     1                                 %line 1+1 /home/se170/VirtualBox-4.3.28/src/VBox/VMM/VMMSwitcher/AMD64ToPAE.asm
     2                                 
     3                                 
     4                                 
     5                                 
     6                                 
     7                                 
     8                                 
     9                                 
    10                                 
    11                                 
    12                                 
    13                                 
    14                                 
    15                                 
    16                                 
    17                                 
    18                                 
    19                                 
    20                                 
    21                                 
    22                                 %line 26+1 /home/se170/VirtualBox-4.3.28/src/VBox/VMM/VMMSwitcher/AMD64ToPAE.asm
    23                                 
    24                                 %line 28+1 /home/se170/VirtualBox-4.3.28/src/VBox/VMM/VMMSwitcher/AMD64ToPAE.asm
    25                                 
    26                                 
    27                                 
    28                                 
    29                                 
    30                                 %line 1+1 /home/se170/VirtualBox-4.3.28/include/VBox/asmdefs.mac
    31                                 
    32                                 
    33                                 
    34                                 
    35                                 
    36                                 
    37                                 
    38                                 
    39                                 
    40                                 
    41                                 
    42                                 
    43                                 
    44                                 
    45                                 
    46                                 
    47                                 
    48                                 
    49                                 
    50                                 
    51                                 
    52                                 
    53                                 
    54                                 
    55                                 
    56                                 %line 28+1 /home/se170/VirtualBox-4.3.28/include/VBox/asmdefs.mac
    57                                 
    58                                 
    59                                 
    60                                 
    61                                 %line 37+1 /home/se170/VirtualBox-4.3.28/include/VBox/asmdefs.mac
    62                                 
    63                                 %line 1+1 /home/se170/VirtualBox-4.3.28/include/iprt/asmdefs.mac
    64                                 
    65                                 
    66                                 
    67                                 
    68                                 
    69                                 
    70                                 
    71                                 
    72                                 
    73                                 
    74                                 
    75                                 
    76                                 
    77                                 
    78                                 
    79                                 
    80                                 
    81                                 
    82                                 
    83                                 
    84                                 
    85                                 
    86                                 
    87                                 
    88                                 
    89                                 %line 28+1 /home/se170/VirtualBox-4.3.28/include/iprt/asmdefs.mac
    90                                 
    91                                 
    92                                 
    93                                 
    94                                 
    95                                 
    96                                 %line 35+1 /home/se170/VirtualBox-4.3.28/include/iprt/asmdefs.mac
    97                                 
    98                                 %line 37+1 /home/se170/VirtualBox-4.3.28/include/iprt/asmdefs.mac
    99                                 
   100                                 %line 39+1 /home/se170/VirtualBox-4.3.28/include/iprt/asmdefs.mac
   101                                 
   102                                 %line 41+1 /home/se170/VirtualBox-4.3.28/include/iprt/asmdefs.mac
   103                                 
   104                                 %line 43+1 /home/se170/VirtualBox-4.3.28/include/iprt/asmdefs.mac
   105                                 
   106                                 %line 45+1 /home/se170/VirtualBox-4.3.28/include/iprt/asmdefs.mac
   107                                 
   108                                 %line 47+1 /home/se170/VirtualBox-4.3.28/include/iprt/asmdefs.mac
   109                                 
   110                                 %line 49+1 /home/se170/VirtualBox-4.3.28/include/iprt/asmdefs.mac
   111                                 
   112                                 %line 51+1 /home/se170/VirtualBox-4.3.28/include/iprt/asmdefs.mac
   113                                 
   114                                 %line 53+1 /home/se170/VirtualBox-4.3.28/include/iprt/asmdefs.mac
   115                                 
   116                                 %line 55+1 /home/se170/VirtualBox-4.3.28/include/iprt/asmdefs.mac
   117                                 
   118                                 %line 57+1 /home/se170/VirtualBox-4.3.28/include/iprt/asmdefs.mac
   119                                 
   120                                 %line 59+1 /home/se170/VirtualBox-4.3.28/include/iprt/asmdefs.mac
   121                                 
   122                                 %line 61+1 /home/se170/VirtualBox-4.3.28/include/iprt/asmdefs.mac
   123                                 
   124                                 %line 63+1 /home/se170/VirtualBox-4.3.28/include/iprt/asmdefs.mac
   125                                 
   126                                 %line 65+1 /home/se170/VirtualBox-4.3.28/include/iprt/asmdefs.mac
   127                                 
   128                                 %line 67+1 /home/se170/VirtualBox-4.3.28/include/iprt/asmdefs.mac
   129                                 
   130                                 
   131                                 
   132                                 
   133                                 
   134                                 %line 73+1 /home/se170/VirtualBox-4.3.28/include/iprt/asmdefs.mac
   135                                 
   136                                 
   137                                 
   138                                 %line 77+1 /home/se170/VirtualBox-4.3.28/include/iprt/asmdefs.mac
   139                                 
   140                                 
   141                                 %line 84+1 /home/se170/VirtualBox-4.3.28/include/iprt/asmdefs.mac
   142                                 
   143                                 
   144                                 
   145                                 %line 92+1 /home/se170/VirtualBox-4.3.28/include/iprt/asmdefs.mac
   146                                 
   147                                 
   148                                 
   149                                 %line 100+1 /home/se170/VirtualBox-4.3.28/include/iprt/asmdefs.mac
   150                                 
   151                                 
   152                                 
   153                                 %line 108+1 /home/se170/VirtualBox-4.3.28/include/iprt/asmdefs.mac
   154                                 
   155                                 
   156                                 
   157                                 %line 116+1 /home/se170/VirtualBox-4.3.28/include/iprt/asmdefs.mac
   158                                 
   159                                 
   160                                 
   161                                 
   162                                 %line 121+1 /home/se170/VirtualBox-4.3.28/include/iprt/asmdefs.mac
   163                                 
   164                                 
   165                                 
   166                                 %line 125+1 /home/se170/VirtualBox-4.3.28/include/iprt/asmdefs.mac
   167                                 
   168                                 
   169                                 
   170                                 %line 129+1 /home/se170/VirtualBox-4.3.28/include/iprt/asmdefs.mac
   171                                 
   172                                 
   173                                 
   174                                 
   175                                 
   176                                 %line 137+1 /home/se170/VirtualBox-4.3.28/include/iprt/asmdefs.mac
   177                                 
   178                                 
   179                                 
   180                                 
   181                                 %line 157+1 /home/se170/VirtualBox-4.3.28/include/iprt/asmdefs.mac
   182                                 
   183                                 
   184                                 
   185                                 %line 165+1 /home/se170/VirtualBox-4.3.28/include/iprt/asmdefs.mac
   186                                 
   187                                 
   188                                 
   189                                 %line 177+1 /home/se170/VirtualBox-4.3.28/include/iprt/asmdefs.mac
   190                                 
   191                                 
   192                                 
   193                                 
   194                                 %line 188+1 /home/se170/VirtualBox-4.3.28/include/iprt/asmdefs.mac
   195                                 
   196                                 
   197                                 
   198                                 %line 211+1 /home/se170/VirtualBox-4.3.28/include/iprt/asmdefs.mac
   199                                 
   200                                 
   201                                 
   202                                 
   203                                 
   204                                 %line 222+1 /home/se170/VirtualBox-4.3.28/include/iprt/asmdefs.mac
   205                                 
   206                                 
   207                                 
   208                                 %line 236+1 /home/se170/VirtualBox-4.3.28/include/iprt/asmdefs.mac
   209                                 
   210                                 
   211                                 
   212                                 %line 249+1 /home/se170/VirtualBox-4.3.28/include/iprt/asmdefs.mac
   213                                 
   214                                 
   215                                 
   216                                 %line 263+1 /home/se170/VirtualBox-4.3.28/include/iprt/asmdefs.mac
   217                                 
   218                                 
   219                                 
   220                                 %line 274+1 /home/se170/VirtualBox-4.3.28/include/iprt/asmdefs.mac
   221                                 
   222                                 
   223                                 
   224                                 %line 288+1 /home/se170/VirtualBox-4.3.28/include/iprt/asmdefs.mac
   225                                 
   226                                 
   227                                 
   228                                 %line 302+1 /home/se170/VirtualBox-4.3.28/include/iprt/asmdefs.mac
   229                                 
   230                                 
   231                                 
   232                                 
   233                                 
   234                                 
   235                                 
   236                                 
   237                                 %line 356+1 /home/se170/VirtualBox-4.3.28/include/iprt/asmdefs.mac
   238                                 
   239                                 %line 363+1 /home/se170/VirtualBox-4.3.28/include/iprt/asmdefs.mac
   240                                 
   241                                 
   242                                 
   243                                 
   244                                 %line 376+1 /home/se170/VirtualBox-4.3.28/include/iprt/asmdefs.mac
   245                                 
   246                                 
   247                                 
   248                                 
   249                                 
   250                                 
   251                                 
   252                                 %line 396+1 /home/se170/VirtualBox-4.3.28/include/iprt/asmdefs.mac
   253                                 
   254                                 
   255                                 
   256                                 %line 408+1 /home/se170/VirtualBox-4.3.28/include/iprt/asmdefs.mac
   257                                 
   258                                 
   259                                 
   260                                 %line 420+1 /home/se170/VirtualBox-4.3.28/include/iprt/asmdefs.mac
   261                                 
   262                                 
   263                                 
   264                                 
   265                                 
   266                                 %line 432+1 /home/se170/VirtualBox-4.3.28/include/iprt/asmdefs.mac
   267                                 
   268                                 
   269                                 
   270                                 %line 442+1 /home/se170/VirtualBox-4.3.28/include/iprt/asmdefs.mac
   271                                 
   272                                 
   273                                 
   274                                 %line 452+1 /home/se170/VirtualBox-4.3.28/include/iprt/asmdefs.mac
   275                                 
   276                                 
   277                                 
   278                                 %line 462+1 /home/se170/VirtualBox-4.3.28/include/iprt/asmdefs.mac
   279                                 
   280                                 
   281                                 
   282                                 %line 472+1 /home/se170/VirtualBox-4.3.28/include/iprt/asmdefs.mac
   283                                 
   284                                 
   285                                 
   286                                 
   287                                 
   288                                 %line 482+1 /home/se170/VirtualBox-4.3.28/include/iprt/asmdefs.mac
   289                                 
   290                                 
   291                                 
   292                                 
   293                                 %line 491+1 /home/se170/VirtualBox-4.3.28/include/iprt/asmdefs.mac
   294                                 
   295                                 
   296                                 
   297                                 %line 499+1 /home/se170/VirtualBox-4.3.28/include/iprt/asmdefs.mac
   298                                 
   299                                 
   300                                 
   301                                 %line 507+1 /home/se170/VirtualBox-4.3.28/include/iprt/asmdefs.mac
   302                                 
   303                                 
   304                                 
   305                                 
   306                                 
   307                                 %line 517+1 /home/se170/VirtualBox-4.3.28/include/iprt/asmdefs.mac
   308                                 
   309                                 
   310                                 
   311                                 
   312                                 %line 526+1 /home/se170/VirtualBox-4.3.28/include/iprt/asmdefs.mac
   313                                 
   314                                 
   315                                 
   316                                 %line 534+1 /home/se170/VirtualBox-4.3.28/include/iprt/asmdefs.mac
   317                                 
   318                                 
   319                                 
   320                                 %line 542+1 /home/se170/VirtualBox-4.3.28/include/iprt/asmdefs.mac
   321                                 
   322                                 
   323                                 
   324                                 
   325                                 
   326                                 %line 552+1 /home/se170/VirtualBox-4.3.28/include/iprt/asmdefs.mac
   327                                 
   328                                 
   329                                 
   330                                 
   331                                 %line 561+1 /home/se170/VirtualBox-4.3.28/include/iprt/asmdefs.mac
   332                                 
   333                                 
   334                                 
   335                                 %line 569+1 /home/se170/VirtualBox-4.3.28/include/iprt/asmdefs.mac
   336                                 
   337                                 
   338                                 
   339                                 %line 577+1 /home/se170/VirtualBox-4.3.28/include/iprt/asmdefs.mac
   340                                 
   341                                 
   342                                 
   343                                 
   344                                 
   345                                 %line 587+1 /home/se170/VirtualBox-4.3.28/include/iprt/asmdefs.mac
   346                                 
   347                                 
   348                                 
   349                                 
   350                                 %line 596+1 /home/se170/VirtualBox-4.3.28/include/iprt/asmdefs.mac
   351                                 
   352                                 %line 599+1 /home/se170/VirtualBox-4.3.28/include/iprt/asmdefs.mac
   353                                 
   354                                 
   355                                 
   356                                 %line 607+1 /home/se170/VirtualBox-4.3.28/include/iprt/asmdefs.mac
   357                                 
   358                                 
   359                                 
   360                                 %line 615+1 /home/se170/VirtualBox-4.3.28/include/iprt/asmdefs.mac
   361                                 
   362                                 
   363                                 
   364                                 
   365                                 %line 620+1 /home/se170/VirtualBox-4.3.28/include/iprt/asmdefs.mac
   366                                 
   367                                 
   368                                 
   369                                 
   370                                 %line 625+1 /home/se170/VirtualBox-4.3.28/include/iprt/asmdefs.mac
   371                                 
   372                                 
   373                                 
   374                                 %line 629+1 /home/se170/VirtualBox-4.3.28/include/iprt/asmdefs.mac
   375                                 
   376                                 
   377                                 
   378                                 %line 633+1 /home/se170/VirtualBox-4.3.28/include/iprt/asmdefs.mac
   379                                 
   380                                 
   381                                 
   382                                 
   383                                 
   384                                 
   385                                 
   386                                 
   387                                 
   388                                 
   389                                 
   390                                 
   391                                 
   392                                 
   393                                 
   394                                 %line 666+1 /home/se170/VirtualBox-4.3.28/include/iprt/asmdefs.mac
   395                                 
   396                                 
   397                                 
   398                                 
   399                                 
   400                                 %line 672+1 /home/se170/VirtualBox-4.3.28/include/iprt/asmdefs.mac
   401                                 
   402                                 
   403                                 
   404                                 
   405                                 %line 677+1 /home/se170/VirtualBox-4.3.28/include/iprt/asmdefs.mac
   406                                 
   407                                 
   408                                 
   409                                 %line 681+1 /home/se170/VirtualBox-4.3.28/include/iprt/asmdefs.mac
   410                                 
   411                                 
   412                                 
   413                                 %line 685+1 /home/se170/VirtualBox-4.3.28/include/iprt/asmdefs.mac
   414                                 
   415                                 
   416                                 
   417                                 
   418                                 
   419                                 %line 691+1 /home/se170/VirtualBox-4.3.28/include/iprt/asmdefs.mac
   420                                 
   421                                 
   422                                 
   423                                 
   424                                 %line 696+1 /home/se170/VirtualBox-4.3.28/include/iprt/asmdefs.mac
   425                                 
   426                                 
   427                                 
   428                                 %line 700+1 /home/se170/VirtualBox-4.3.28/include/iprt/asmdefs.mac
   429                                 
   430                                 
   431                                 
   432                                 %line 704+1 /home/se170/VirtualBox-4.3.28/include/iprt/asmdefs.mac
   433                                 
   434                                 
   435                                 
   436                                 
   437                                 
   438                                 
   439                                 
   440                                 
   441                                 %line 721+1 /home/se170/VirtualBox-4.3.28/include/iprt/asmdefs.mac
   442                                 
   443                                 
   444                                 
   445                                 
   446                                 
   447                                 
   448                                 
   449                                 
   450                                 
   451                                 
   452                                 
   453                                 
   454                                 
   455                                 
   456                                 %line 738+1 /home/se170/VirtualBox-4.3.28/include/iprt/asmdefs.mac
   457                                 
   458                                 %line 752+1 /home/se170/VirtualBox-4.3.28/include/iprt/asmdefs.mac
   459                                 
   460                                 
   461                                 
   462                                 
   463                                 
   464                                 
   465                                 
   466                                 
   467                                 
   468                                 
   469                                 
   470                                 
   471                                 
   472                                 %line 770+1 /home/se170/VirtualBox-4.3.28/include/iprt/asmdefs.mac
   473                                 
   474                                 
   475                                 
   476                                 
   477                                 
   478                                 
   479                                 
   480                                 %line 791+1 /home/se170/VirtualBox-4.3.28/include/iprt/asmdefs.mac
   481                                 
   482                                 %line 797+1 /home/se170/VirtualBox-4.3.28/include/iprt/asmdefs.mac
   483                                 
   484                                 
   485                                 
   486                                 
   487                                 
   488                                 
   489                                 
   490                                 
   491                                 
   492                                 
   493                                 
   494                                 
   495                                 
   496                                 
   497                                 
   498                                 
   499                                 
   500                                 
   501                                 
   502                                 
   503                                 
   504                                 
   505                                 
   506                                 
   507                                 
   508                                 
   509                                 
   510                                 
   511                                 
   512                                 
   513                                 
   514                                 
   515                                 
   516                                 %line 853+1 /home/se170/VirtualBox-4.3.28/include/iprt/asmdefs.mac
   517                                 
   518                                 
   519                                 
   520                                 
   521                                 
   522                                 
   523                                 
   524                                 
   525                                 
   526                                 
   527                                 %line 873+1 /home/se170/VirtualBox-4.3.28/include/iprt/asmdefs.mac
   528                                 
   529                                 
   530                                 
   531                                 %line 886+1 /home/se170/VirtualBox-4.3.28/include/iprt/asmdefs.mac
   532                                 
   533                                 %line 39+1 /home/se170/VirtualBox-4.3.28/include/VBox/asmdefs.mac
   534                                 
   535                                 
   536                                 
   537                                 
   538                                 %line 51+1 /home/se170/VirtualBox-4.3.28/include/VBox/asmdefs.mac
   539                                 
   540                                 
   541                                 %line 66+1 /home/se170/VirtualBox-4.3.28/include/VBox/asmdefs.mac
   542                                 
   543                                 
   544                                 
   545                                 
   546                                 
   547                                 
   548                                 
   549                                 %line 116+1 /home/se170/VirtualBox-4.3.28/include/VBox/asmdefs.mac
   550                                 
   551                                 
   552                                 
   553                                 
   554                                 
   555                                 
   556                                 %line 159+1 /home/se170/VirtualBox-4.3.28/include/VBox/asmdefs.mac
   557                                 
   558                                 %line 195+1 /home/se170/VirtualBox-4.3.28/include/VBox/asmdefs.mac
   559                                 
   560                                 %line 203+1 /home/se170/VirtualBox-4.3.28/include/VBox/asmdefs.mac
   561                                 
   562                                 
   563                                 
   564                                 
   565                                 %line 232+1 /home/se170/VirtualBox-4.3.28/include/VBox/asmdefs.mac
   566                                 
   567                                 
   568                                 
   569                                 
   570                                 
   571                                 %line 260+1 /home/se170/VirtualBox-4.3.28/include/VBox/asmdefs.mac
   572                                 
   573                                 %line 284+1 /home/se170/VirtualBox-4.3.28/include/VBox/asmdefs.mac
   574                                 
   575                                 %line 292+1 /home/se170/VirtualBox-4.3.28/include/VBox/asmdefs.mac
   576                                 
   577                                 
   578                                 
   579                                 
   580                                 %line 331+1 /home/se170/VirtualBox-4.3.28/include/VBox/asmdefs.mac
   581                                 
   582                                 
   583                                 
   584                                 
   585                                 
   586                                 %line 369+1 /home/se170/VirtualBox-4.3.28/include/VBox/asmdefs.mac
   587                                 
   588                                 %line 403+1 /home/se170/VirtualBox-4.3.28/include/VBox/asmdefs.mac
   589                                 
   590                                 %line 411+1 /home/se170/VirtualBox-4.3.28/include/VBox/asmdefs.mac
   591                                 
   592                                 
   593                                 
   594                                 
   595                                 
   596                                 %line 453+1 /home/se170/VirtualBox-4.3.28/include/VBox/asmdefs.mac
   597                                 
   598                                 
   599                                 
   600                                 
   601                                 
   602                                 %line 494+1 /home/se170/VirtualBox-4.3.28/include/VBox/asmdefs.mac
   603                                 
   604                                 %line 531+1 /home/se170/VirtualBox-4.3.28/include/VBox/asmdefs.mac
   605                                 
   606                                 %line 539+1 /home/se170/VirtualBox-4.3.28/include/VBox/asmdefs.mac
   607                                 
   608                                 
   609                                 
   610                                 
   611                                 %line 579+1 /home/se170/VirtualBox-4.3.28/include/VBox/asmdefs.mac
   612                                 
   613                                 
   614                                 
   615                                 
   616                                 
   617                                 %line 621+1 /home/se170/VirtualBox-4.3.28/include/VBox/asmdefs.mac
   618                                 
   619                                 %line 659+1 /home/se170/VirtualBox-4.3.28/include/VBox/asmdefs.mac
   620                                 
   621                                 %line 667+1 /home/se170/VirtualBox-4.3.28/include/VBox/asmdefs.mac
   622                                 
   623                                 
   624                                 
   625                                 
   626                                 
   627                                 
   628                                 %line 701+1 /home/se170/VirtualBox-4.3.28/include/VBox/asmdefs.mac
   629                                 
   630                                 %line 730+1 /home/se170/VirtualBox-4.3.28/include/VBox/asmdefs.mac
   631                                 
   632                                 %line 738+1 /home/se170/VirtualBox-4.3.28/include/VBox/asmdefs.mac
   633                                 
   634                                 
   635                                 
   636                                 
   637                                 
   638                                 %line 756+1 /home/se170/VirtualBox-4.3.28/include/VBox/asmdefs.mac
   639                                 
   640                                 
   641                                 
   642                                 
   643                                 
   644                                 %line 773+1 /home/se170/VirtualBox-4.3.28/include/VBox/asmdefs.mac
   645                                 
   646                                 %line 775+1 /home/se170/VirtualBox-4.3.28/include/VBox/asmdefs.mac
   647                                 
   648                                 %line 1+1 /home/se170/VirtualBox-4.3.28/src/VBox/VMM/VMMSwitcher/AMD64andLegacy.mac
   649                                 
   650                                 
   651                                 
   652                                 
   653                                 
   654                                 
   655                                 
   656                                 
   657                                 
   658                                 
   659                                 
   660                                 
   661                                 
   662                                 
   663                                 
   664                                 
   665                                 
   666                                 
   667                                 
   668                                 
   669                                 
   670                                 
   671                                 
   672                                 %line 1+1 /home/se170/VirtualBox-4.3.28/include/VBox/asmdefs.mac
   673                                 
   674                                 
   675                                 
   676                                 
   677                                 
   678                                 
   679                                 
   680                                 
   681                                 
   682                                 
   683                                 
   684                                 
   685                                 
   686                                 
   687                                 
   688                                 
   689                                 
   690                                 
   691                                 
   692                                 
   693                                 
   694                                 
   695                                 
   696                                 
   697                                 
   698                                 %line 775+1 /home/se170/VirtualBox-4.3.28/include/VBox/asmdefs.mac
   699                                 
   700                                 %line 1+1 /home/se170/VirtualBox-4.3.28/include/iprt/x86extra.mac
   701                                 
   702                                 
   703                                 
   704                                 
   705                                 
   706                                 
   707                                 
   708                                 
   709                                 
   710                                 
   711                                 
   712                                 
   713                                 
   714                                 
   715                                 
   716                                 
   717                                 
   718                                 
   719                                 
   720                                 
   721                                 
   722                                 
   723                                 
   724                                 
   725                                 
   726                                 
   727                                 %line 29+1 /home/se170/VirtualBox-4.3.28/include/iprt/x86extra.mac
   728                                 
   729                                 
   730                                 %line 52+1 /home/se170/VirtualBox-4.3.28/include/iprt/x86extra.mac
   731                                 
   732                                 %line 54+1 /home/se170/VirtualBox-4.3.28/include/iprt/x86extra.mac
   733                                 
   734                                 
   735                                 
   736                                 
   737                                 
   738                                 [absolute 0]
   739                                 %line 59+0 /home/se170/VirtualBox-4.3.28/include/iprt/x86extra.mac
   740                                 X86FSTENV32P:
   741                                 %line 60+1 /home/se170/VirtualBox-4.3.28/include/iprt/x86extra.mac
   742                                  .FCW resw 1
   743                                  .padding1 resw 1
   744                                  .FSW resw 1
   745                                  .padding2 resw 1
   746                                  .FTW resw 1
   747                                  .padding3 resw 1
   748                                  .FPUIP resd 1
   749                                  .FPUCS resw 1
   750                                  .FOP resw 1
   751                                  .FPUDP resd 1
   752                                  .FPUDS resw 1
   753                                  .padding4 resw 1
   754                                 X86FSTENV32P_size:
   755                                 %line 72+0 /home/se170/VirtualBox-4.3.28/include/iprt/x86extra.mac
   756                                 [section .text]
   757                                 %line 73+1 /home/se170/VirtualBox-4.3.28/include/iprt/x86extra.mac
   758                                 
   759                                 
   760                                 
   761                                 
   762                                 
   763                                 [absolute 0]
   764                                 %line 78+0 /home/se170/VirtualBox-4.3.28/include/iprt/x86extra.mac
   765                                 X86FXSTATE:
   766                                 %line 79+1 /home/se170/VirtualBox-4.3.28/include/iprt/x86extra.mac
   767                                  .FCW resw 1
   768                                  .FSW resw 1
   769                                  .FTW resw 1
   770                                  .FOP resw 1
   771                                  .FPUIP resd 1
   772                                  .FPUCS resw 1
   773                                  .Rsrvd1 resw 1
   774                                  .FPUDP resd 1
   775                                  .FPUDS resw 1
   776                                  .Rsrvd2 resw 1
   777                                  .MXCSR resd 1
   778                                  .MXCSR_MASK resd 1
   779                                  .st0 resd 4
   780                                  .st1 resd 4
   781                                  .st2 resd 4
   782                                  .st3 resd 4
   783                                  .st4 resd 4
   784                                  .st5 resd 4
   785                                  .st6 resd 4
   786                                  .st7 resd 4
   787                                  .xmm0 resd 4
   788                                  .xmm1 resd 4
   789                                  .xmm2 resd 4
   790                                  .xmm3 resd 4
   791                                  .xmm4 resd 4
   792                                  .xmm5 resd 4
   793                                  .xmm6 resd 4
   794                                  .xmm7 resd 4
   795                                  .xmm8 resd 4
   796                                  .xmm9 resd 4
   797                                  .xmm10 resd 4
   798                                  .xmm11 resd 4
   799                                  .xmm12 resd 4
   800                                  .xmm13 resd 4
   801                                  .xmm14 resd 4
   802                                  .xmm15 resd 4
   803                                  .au32RsrvdRest resd 24
   804                                 X86FXSTATE_size:
   805                                 %line 116+0 /home/se170/VirtualBox-4.3.28/include/iprt/x86extra.mac
   806                                 [section .text]
   807                                 %line 117+1 /home/se170/VirtualBox-4.3.28/include/iprt/x86extra.mac
   808                                 
   809                                 
   810                                 [absolute 0]
   811                                 %line 119+0 /home/se170/VirtualBox-4.3.28/include/iprt/x86extra.mac
   812                                 X86TSS16:
   813                                 %line 120+1 /home/se170/VirtualBox-4.3.28/include/iprt/x86extra.mac
   814                                  .selPrev resw 1
   815                                  .sp0 resw 1
   816                                  .ss0 resw 1
   817                                  .sp1 resw 1
   818                                  .ss1 resw 1
   819                                  .sp2 resw 1
   820                                  .ss2 resw 1
   821                                  .ip resw 1
   822                                  .flags resw 1
   823                                  .ax resw 1
   824                                  .cx resw 1
   825                                  .dx resw 1
   826                                  .bx resw 1
   827                                  .sp resw 1
   828                                  .bp resw 1
   829                                  .si resw 1
   830                                  .di resw 1
   831                                  .es resw 1
   832                                  .cs resw 1
   833                                  .ss resw 1
   834                                  .ds resw 1
   835                                  .selLdt resw 1
   836                                 X86TSS16_size:
   837                                 %line 142+0 /home/se170/VirtualBox-4.3.28/include/iprt/x86extra.mac
   838                                 [section .text]
   839                                 %line 144+1 /home/se170/VirtualBox-4.3.28/include/iprt/x86extra.mac
   840                                 
   841                                 
   842                                 [absolute 0]
   843                                 %line 146+0 /home/se170/VirtualBox-4.3.28/include/iprt/x86extra.mac
   844                                 X86TSS32:
   845                                 %line 147+1 /home/se170/VirtualBox-4.3.28/include/iprt/x86extra.mac
   846                                  .selPrev resw 1
   847                                  .padding1 resw 1
   848                                  .esp0 resd 1
   849                                  .ss0 resw 1
   850                                  .padding_ss0 resw 1
   851                                  .esp1 resd 1
   852                                  .ss1 resw 1
   853                                  .padding_ss1 resw 1
   854                                  .esp2 resd 1
   855                                  .ss2 resw 1
   856                                  .padding_ss2 resw 1
   857                                  .cr3 resd 1
   858                                  .eip resd 1
   859                                  .eflags resd 1
   860                                  .eax resd 1
   861                                  .ecx resd 1
   862                                  .edx resd 1
   863                                  .ebx resd 1
   864                                  .esp resd 1
   865                                  .ebp resd 1
   866                                  .esi resd 1
   867                                  .edi resd 1
   868                                  .es resw 1
   869                                  .padding_es resw 1
   870                                  .cs resw 1
   871                                  .padding_cs resw 1
   872                                  .ss resw 1
   873                                  .padding_ss resw 1
   874                                  .ds resw 1
   875                                  .padding_ds resw 1
   876                                  .fs resw 1
   877                                  .padding_fs resw 1
   878                                  .gs resw 1
   879                                  .padding_gs resw 1
   880                                  .selLdt resw 1
   881                                  .padding_ldt resw 1
   882                                  .fDebugTrap resw 1
   883                                  .offIoBitmap resw 1
   884                                  .IntRedirBitmap resb 32
   885                                 X86TSS32_size:
   886                                 %line 186+0 /home/se170/VirtualBox-4.3.28/include/iprt/x86extra.mac
   887                                 [section .text]
   888                                 %line 187+1 /home/se170/VirtualBox-4.3.28/include/iprt/x86extra.mac
   889                                 
   890                                 
   891                                 [absolute 0]
   892                                 %line 189+0 /home/se170/VirtualBox-4.3.28/include/iprt/x86extra.mac
   893                                 X86TSS64:
   894                                 %line 190+1 /home/se170/VirtualBox-4.3.28/include/iprt/x86extra.mac
   895                                  .u32Reserved resd 1
   896                                  .rsp0 resq 1
   897                                  .rsp1 resq 1
   898                                  .rsp2 resq 1
   899                                  .u32Reserved2 resd 2
   900                                  .ist1 resq 1
   901                                  .ist2 resq 1
   902                                  .ist3 resq 1
   903                                  .ist4 resq 1
   904                                  .ist5 resq 1
   905                                  .ist6 resq 1
   906                                  .ist7 resq 1
   907                                  .u16Reserved resw 5
   908                                  .offIoBitmap resw 1
   909                                  .IntRedirBitmap resb 32
   910                                 X86TSS64_size:
   911                                 %line 205+0 /home/se170/VirtualBox-4.3.28/include/iprt/x86extra.mac
   912                                 [section .text]
   913                                 %line 207+1 /home/se170/VirtualBox-4.3.28/include/iprt/x86extra.mac
   914                                 
   915                                 %line 209+1 /home/se170/VirtualBox-4.3.28/include/iprt/x86extra.mac
   916                                 
   917                                 %line 1+1 /home/se170/VirtualBox-4.3.28/include/VBox/vmm/cpum.mac
   918                                 
   919                                 
   920                                 
   921                                 
   922                                 
   923                                 
   924                                 
   925                                 
   926                                 
   927                                 
   928                                 
   929                                 
   930                                 
   931                                 
   932                                 
   933                                 
   934                                 
   935                                 
   936                                 
   937                                 
   938                                 
   939                                 
   940                                 
   941                                 
   942                                 
   943                                 %line 28+1 /home/se170/VirtualBox-4.3.28/include/VBox/vmm/cpum.mac
   944                                 
   945                                 
   946                                 
   947                                 
   948                                 
   949                                 [absolute 0]
   950                                 %line 33+0 /home/se170/VirtualBox-4.3.28/include/VBox/vmm/cpum.mac
   951                                 CPUMCTXCORE:
   952                                 %line 34+1 /home/se170/VirtualBox-4.3.28/include/VBox/vmm/cpum.mac
   953                                  .eax resq 1
   954                                  .ecx resq 1
   955                                  .edx resq 1
   956                                  .ebx resq 1
   957                                  .esp resq 1
   958                                  .ebp resq 1
   959                                  .esi resq 1
   960                                  .edi resq 1
   961                                  .r8 resq 1
   962                                  .r9 resq 1
   963                                  .r10 resq 1
   964                                  .r11 resq 1
   965                                  .r12 resq 1
   966                                  .r13 resq 1
   967                                  .r14 resq 1
   968                                  .r15 resq 1
   969                                  .es.Sel resw 1
   970                                  .es.PaddingSel resw 1
   971                                  .es.ValidSel resw 1
   972                                  .es.fFlags resw 1
   973                                  .es.u64Base resq 1
   974                                  .es.u32Limit resd 1
   975                                  .es.Attr resd 1
   976                                  .cs.Sel resw 1
   977                                  .cs.PaddingSel resw 1
   978                                  .cs.ValidSel resw 1
   979                                  .cs.fFlags resw 1
   980                                  .cs.u64Base resq 1
   981                                  .cs.u32Limit resd 1
   982                                  .cs.Attr resd 1
   983                                  .ss.Sel resw 1
   984                                  .ss.PaddingSel resw 1
   985                                  .ss.ValidSel resw 1
   986                                  .ss.fFlags resw 1
   987                                  .ss.u64Base resq 1
   988                                  .ss.u32Limit resd 1
   989                                  .ss.Attr resd 1
   990                                  .ds.Sel resw 1
   991                                  .ds.PaddingSel resw 1
   992                                  .ds.ValidSel resw 1
   993                                  .ds.fFlags resw 1
   994                                  .ds.u64Base resq 1
   995                                  .ds.u32Limit resd 1
   996                                  .ds.Attr resd 1
   997                                  .fs.Sel resw 1
   998                                  .fs.PaddingSel resw 1
   999                                  .fs.ValidSel resw 1
  1000                                  .fs.fFlags resw 1
  1001                                  .fs.u64Base resq 1
  1002                                  .fs.u32Limit resd 1
  1003                                  .fs.Attr resd 1
  1004                                  .gs.Sel resw 1
  1005                                  .gs.PaddingSel resw 1
  1006                                  .gs.ValidSel resw 1
  1007                                  .gs.fFlags resw 1
  1008                                  .gs.u64Base resq 1
  1009                                  .gs.u32Limit resd 1
  1010                                  .gs.Attr resd 1
  1011                                  .eip resq 1
  1012                                  .eflags resq 1
  1013                                 CPUMCTXCORE_size:
  1014                                 %line 94+0 /home/se170/VirtualBox-4.3.28/include/VBox/vmm/cpum.mac
  1015                                 [section .text]
  1016                                 %line 95+1 /home/se170/VirtualBox-4.3.28/include/VBox/vmm/cpum.mac
  1017                                 
  1018                                 
  1019                                 [absolute 0]
  1020                                 %line 97+0 /home/se170/VirtualBox-4.3.28/include/VBox/vmm/cpum.mac
  1021                                 CPUMCTX:
  1022                                 %line 98+1 /home/se170/VirtualBox-4.3.28/include/VBox/vmm/cpum.mac
  1023                                  .fpu resb 512
  1024                                  .eax resq 1
  1025                                  .ecx resq 1
  1026                                  .edx resq 1
  1027                                  .ebx resq 1
  1028                                  .esp resq 1
  1029                                  .ebp resq 1
  1030                                  .esi resq 1
  1031                                  .edi resq 1
  1032                                  .r8 resq 1
  1033                                  .r9 resq 1
  1034                                  .r10 resq 1
  1035                                  .r11 resq 1
  1036                                  .r12 resq 1
  1037                                  .r13 resq 1
  1038                                  .r14 resq 1
  1039                                  .r15 resq 1
  1040                                  .es.Sel resw 1
  1041                                  .es.PaddingSel resw 1
  1042                                  .es.ValidSel resw 1
  1043                                  .es.fFlags resw 1
  1044                                  .es.u64Base resq 1
  1045                                  .es.u32Limit resd 1
  1046                                  .es.Attr resd 1
  1047                                  .cs.Sel resw 1
  1048                                  .cs.PaddingSel resw 1
  1049                                  .cs.ValidSel resw 1
  1050                                  .cs.fFlags resw 1
  1051                                  .cs.u64Base resq 1
  1052                                  .cs.u32Limit resd 1
  1053                                  .cs.Attr resd 1
  1054                                  .ss.Sel resw 1
  1055                                  .ss.PaddingSel resw 1
  1056                                  .ss.ValidSel resw 1
  1057                                  .ss.fFlags resw 1
  1058                                  .ss.u64Base resq 1
  1059                                  .ss.u32Limit resd 1
  1060                                  .ss.Attr resd 1
  1061                                  .ds.Sel resw 1
  1062                                  .ds.PaddingSel resw 1
  1063                                  .ds.ValidSel resw 1
  1064                                  .ds.fFlags resw 1
  1065                                  .ds.u64Base resq 1
  1066                                  .ds.u32Limit resd 1
  1067                                  .ds.Attr resd 1
  1068                                  .fs.Sel resw 1
  1069                                  .fs.PaddingSel resw 1
  1070                                  .fs.ValidSel resw 1
  1071                                  .fs.fFlags resw 1
  1072                                  .fs.u64Base resq 1
  1073                                  .fs.u32Limit resd 1
  1074                                  .fs.Attr resd 1
  1075                                  .gs.Sel resw 1
  1076                                  .gs.PaddingSel resw 1
  1077                                  .gs.ValidSel resw 1
  1078                                  .gs.fFlags resw 1
  1079                                  .gs.u64Base resq 1
  1080                                  .gs.u32Limit resd 1
  1081                                  .gs.Attr resd 1
  1082                                  .eip resq 1
  1083                                  .eflags resq 1
  1084                                  .cr0 resq 1
  1085                                  .cr2 resq 1
  1086                                  .cr3 resq 1
  1087                                  .cr4 resq 1
  1088                                  .dr resq 8
  1089                                  .gdtrPadding resw 3
  1090                                  .gdtr resw 0
  1091                                  .gdtr.cbGdt resw 1
  1092                                  .gdtr.pGdt resq 1
  1093                                  .idtrPadding resw 3
  1094                                  .idtr resw 0
  1095                                  .idtr.cbIdt resw 1
  1096                                  .idtr.pIdt resq 1
  1097                                  .ldtr.Sel resw 1
  1098                                  .ldtr.PaddingSel resw 1
  1099                                  .ldtr.ValidSel resw 1
  1100                                  .ldtr.fFlags resw 1
  1101                                  .ldtr.u64Base resq 1
  1102                                  .ldtr.u32Limit resd 1
  1103                                  .ldtr.Attr resd 1
  1104                                  .tr.Sel resw 1
  1105                                  .tr.PaddingSel resw 1
  1106                                  .tr.ValidSel resw 1
  1107                                  .tr.fFlags resw 1
  1108                                  .tr.u64Base resq 1
  1109                                  .tr.u32Limit resd 1
  1110                                  .tr.Attr resd 1
  1111                                  .SysEnter.cs resb 8
  1112                                  .SysEnter.eip resb 8
  1113                                  .SysEnter.esp resb 8
  1114                                  .msrEFER resb 8
  1115                                  .msrSTAR resb 8
  1116                                  .msrPAT resb 8
  1117                                  .msrLSTAR resb 8
  1118                                  .msrCSTAR resb 8
  1119                                  .msrSFMASK resb 8
  1120                                  .msrKERNELGSBASE resb 8
  1121                                  .msrApicBase resb 8
  1122                                  .au32SizePadding resb 24
  1123                                 CPUMCTX_size:
  1124                                 %line 198+0 /home/se170/VirtualBox-4.3.28/include/VBox/vmm/cpum.mac
  1125                                 [section .text]
  1126                                 %line 199+1 /home/se170/VirtualBox-4.3.28/include/VBox/vmm/cpum.mac
  1127                                 
  1128                                 
  1129                                 
  1130                                 
  1131                                 [absolute 0]
  1132                                 %line 203+0 /home/se170/VirtualBox-4.3.28/include/VBox/vmm/cpum.mac
  1133                                 CPUMCTXMSRS:
  1134                                 %line 204+1 /home/se170/VirtualBox-4.3.28/include/VBox/vmm/cpum.mac
  1135                                  .au64 resq 64
  1136                                 CPUMCTXMSRS_size:
  1137                                 %line 205+0 /home/se170/VirtualBox-4.3.28/include/VBox/vmm/cpum.mac
  1138                                 [section .text]
  1139                                 %line 206+1 /home/se170/VirtualBox-4.3.28/include/VBox/vmm/cpum.mac
  1140                                 
  1141                                 
  1142                                 %line 209+1 /home/se170/VirtualBox-4.3.28/include/VBox/vmm/cpum.mac
  1143                                 
  1144                                 %line 1+1 /home/se170/VirtualBox-4.3.28/include/VBox/vmm/stam.mac
  1145                                 
  1146                                 
  1147                                 
  1148                                 
  1149                                 
  1150                                 
  1151                                 
  1152                                 
  1153                                 
  1154                                 
  1155                                 
  1156                                 
  1157                                 
  1158                                 
  1159                                 
  1160                                 
  1161                                 
  1162                                 
  1163                                 
  1164                                 
  1165                                 
  1166                                 
  1167                                 
  1168                                 
  1169                                 
  1170                                 %line 28+1 /home/se170/VirtualBox-4.3.28/include/VBox/vmm/stam.mac
  1171                                 
  1172                                 
  1173                                 %line 35+1 /home/se170/VirtualBox-4.3.28/include/VBox/vmm/stam.mac
  1174                                 
  1175                                 
  1176                                 
  1177                                 
  1178                                 
  1179                                 [absolute 0]
  1180                                 %line 40+0 /home/se170/VirtualBox-4.3.28/include/VBox/vmm/stam.mac
  1181                                 STAMCOUNTER:
  1182                                 %line 41+1 /home/se170/VirtualBox-4.3.28/include/VBox/vmm/stam.mac
  1183                                  .c resd 2
  1184                                 STAMCOUNTER_size:
  1185                                 %line 42+0 /home/se170/VirtualBox-4.3.28/include/VBox/vmm/stam.mac
  1186                                 [section .text]
  1187                                 %line 43+1 /home/se170/VirtualBox-4.3.28/include/VBox/vmm/stam.mac
  1188                                 
  1189                                 
  1190                                 
  1191                                 
  1192                                 %line 56+1 /home/se170/VirtualBox-4.3.28/include/VBox/vmm/stam.mac
  1193                                 
  1194                                 %line 65+1 /home/se170/VirtualBox-4.3.28/include/VBox/vmm/stam.mac
  1195                                 
  1196                                 %line 75+1 /home/se170/VirtualBox-4.3.28/include/VBox/vmm/stam.mac
  1197                                 
  1198                                 
  1199                                 
  1200                                 
  1201                                 
  1202                                 
  1203                                 
  1204                                 %line 96+1 /home/se170/VirtualBox-4.3.28/include/VBox/vmm/stam.mac
  1205                                 
  1206                                 %line 110+1 /home/se170/VirtualBox-4.3.28/include/VBox/vmm/stam.mac
  1207                                 
  1208                                 %line 120+1 /home/se170/VirtualBox-4.3.28/include/VBox/vmm/stam.mac
  1209                                 
  1210                                 
  1211                                 
  1212                                 
  1213                                 [absolute 0]
  1214                                 %line 124+0 /home/se170/VirtualBox-4.3.28/include/VBox/vmm/stam.mac
  1215                                 STAMPROFILE:
  1216                                 %line 125+1 /home/se170/VirtualBox-4.3.28/include/VBox/vmm/stam.mac
  1217                                  .cPeriods resd 2
  1218                                  .cTicks resd 2
  1219                                  .cTicksMax resd 2
  1220                                  .cTicksMin resd 2
  1221                                 STAMPROFILE_size:
  1222                                 %line 129+0 /home/se170/VirtualBox-4.3.28/include/VBox/vmm/stam.mac
  1223                                 [section .text]
  1224                                 %line 130+1 /home/se170/VirtualBox-4.3.28/include/VBox/vmm/stam.mac
  1225                                 
  1226                                 
  1227                                 
  1228                                 
  1229                                 
  1230                                 
  1231                                 %line 152+1 /home/se170/VirtualBox-4.3.28/include/VBox/vmm/stam.mac
  1232                                 
  1233                                 %line 169+1 /home/se170/VirtualBox-4.3.28/include/VBox/vmm/stam.mac
  1234                                 
  1235                                 %line 179+1 /home/se170/VirtualBox-4.3.28/include/VBox/vmm/stam.mac
  1236                                 
  1237                                 
  1238                                 
  1239                                 
  1240                                 
  1241                                 
  1242                                 
  1243                                 %line 235+1 /home/se170/VirtualBox-4.3.28/include/VBox/vmm/stam.mac
  1244                                 
  1245                                 %line 275+1 /home/se170/VirtualBox-4.3.28/include/VBox/vmm/stam.mac
  1246                                 
  1247                                 %line 285+1 /home/se170/VirtualBox-4.3.28/include/VBox/vmm/stam.mac
  1248                                 
  1249                                 
  1250                                 
  1251                                 [absolute 0]
  1252                                 %line 288+0 /home/se170/VirtualBox-4.3.28/include/VBox/vmm/stam.mac
  1253                                 STAMPROFILEADV:
  1254                                 %line 289+1 /home/se170/VirtualBox-4.3.28/include/VBox/vmm/stam.mac
  1255                                  .cPeriods resd 2
  1256                                  .cTicks resd 2
  1257                                  .cTicksMax resd 2
  1258                                  .cTicksMin resd 2
  1259                                  .tsStart resd 2
  1260                                 STAMPROFILEADV_size:
  1261                                 %line 294+0 /home/se170/VirtualBox-4.3.28/include/VBox/vmm/stam.mac
  1262                                 [section .text]
  1263                                 %line 295+1 /home/se170/VirtualBox-4.3.28/include/VBox/vmm/stam.mac
  1264                                 
  1265                                 
  1266                                 
  1267                                 
  1268                                 
  1269                                 
  1270                                 %line 310+1 /home/se170/VirtualBox-4.3.28/include/VBox/vmm/stam.mac
  1271                                 
  1272                                 %line 320+1 /home/se170/VirtualBox-4.3.28/include/VBox/vmm/stam.mac
  1273                                 
  1274                                 %line 330+1 /home/se170/VirtualBox-4.3.28/include/VBox/vmm/stam.mac
  1275                                 
  1276                                 
  1277                                 
  1278                                 
  1279                                 
  1280                                 
  1281                                 
  1282                                 %line 354+1 /home/se170/VirtualBox-4.3.28/include/VBox/vmm/stam.mac
  1283                                 
  1284                                 %line 369+1 /home/se170/VirtualBox-4.3.28/include/VBox/vmm/stam.mac
  1285                                 
  1286                                 %line 379+1 /home/se170/VirtualBox-4.3.28/include/VBox/vmm/stam.mac
  1287                                 
  1288                                 
  1289                                 
  1290                                 %line 1+1 /home/se170/VirtualBox-4.3.28/include/VBox/vmm/vm.mac
  1291                                 
  1292                                 
  1293                                 
  1294                                 
  1295                                 
  1296                                 
  1297                                 
  1298                                 
  1299                                 
  1300                                 
  1301                                 
  1302                                 
  1303                                 
  1304                                 
  1305                                 
  1306                                 
  1307                                 
  1308                                 
  1309                                 
  1310                                 
  1311                                 
  1312                                 
  1313                                 
  1314                                 
  1315                                 
  1316                                 %line 28+1 /home/se170/VirtualBox-4.3.28/include/VBox/vmm/vm.mac
  1317                                 
  1318                                 %line 1+1 /home/se170/VirtualBox-4.3.28/include/VBox/vmm/stam.mac
  1319                                 
  1320                                 
  1321                                 
  1322                                 
  1323                                 
  1324                                 
  1325                                 
  1326                                 
  1327                                 
  1328                                 
  1329                                 
  1330                                 
  1331                                 
  1332                                 
  1333                                 
  1334                                 
  1335                                 
  1336                                 
  1337                                 
  1338                                 
  1339                                 
  1340                                 
  1341                                 
  1342                                 
  1343                                 
  1344                                 %line 30+1 /home/se170/VirtualBox-4.3.28/include/VBox/vmm/vm.mac
  1345                                 
  1346                                 
  1347                                 %line 33+1 /home/se170/VirtualBox-4.3.28/include/VBox/vmm/vm.mac
  1348                                 
  1349                                 %line 35+1 /home/se170/VirtualBox-4.3.28/include/VBox/vmm/vm.mac
  1350                                 
  1351                                 %line 37+1 /home/se170/VirtualBox-4.3.28/include/VBox/vmm/vm.mac
  1352                                 
  1353                                 
  1354                                 %line 40+1 /home/se170/VirtualBox-4.3.28/include/VBox/vmm/vm.mac
  1355                                 
  1356                                 
  1357                                 
  1358                                 [absolute 0]
  1359                                 %line 43+0 /home/se170/VirtualBox-4.3.28/include/VBox/vmm/vm.mac
  1360                                 VM:
  1361                                 %line 44+1 /home/se170/VirtualBox-4.3.28/include/VBox/vmm/vm.mac
  1362                                  .enmVMState resd 1
  1363                                  .fGlobalForcedActions resd 1
  1364                                  .paVMPagesR3 resq 1
  1365                                  .pSession resq 1
  1366                                  .pUVM resq 1
  1367                                  .pVMR3 resq 1
  1368                                  .pVMR0 resq 1
  1369                                  .pVMRC resd 1
  1370                                  .hSelf resd 1
  1371                                  .cCpus resd 1
  1372                                  .uCpuExecutionCap resd 1
  1373                                  .cbSelf resd 1
  1374                                  .offVMCPU resd 1
  1375                                  .pfnVMMRCToHostAsm resd 1
  1376                                  .pfnVMMRCToHostAsmNoReturn resd 1
  1377                                  .fRecompileUser resb 1
  1378                                  .fRecompileSupervisor resb 1
  1379                                  .fRawRing1Enabled resb 1
  1380                                  .fPATMEnabled resb 1
  1381                                  .fCSAMEnabled resb 1
  1382                                  .fHMEnabled resb 1
  1383                                  .fHMEnabledFixed resb 1
  1384                                  .fHMNeedRawModeCtx resb 1
  1385                                  .fFaultTolerantMaster resb 1
  1386                                  .fUseLargePages resb 1
  1387                                 
  1388                                  .uPadding1 resb 2
  1389                                 
  1390                                  .hTraceBufRC resd 1
  1391                                  .hTraceBufR3 resq 1
  1392                                  .hTraceBufR0 resq 1
  1393                                 
  1394                                 times ($$-$) & ((8)-1) resb 1
  1395                                 
  1396                                  .StatTotalQemuToGC resb STAMPROFILEADV_size
  1397                                  .StatTotalGCToQemu resb STAMPROFILEADV_size
  1398                                  .StatTotalInGC resb STAMPROFILEADV_size
  1399                                  .StatTotalInQemu resb STAMPROFILEADV_size
  1400                                  .StatSwitcherToGC resb STAMPROFILEADV_size
  1401                                  .StatSwitcherToHC resb STAMPROFILEADV_size
  1402                                  .StatSwitcherSaveRegs resb STAMPROFILEADV_size
  1403                                  .StatSwitcherSysEnter resb STAMPROFILEADV_size
  1404                                  .StatSwitcherDebug resb STAMPROFILEADV_size
  1405                                  .StatSwitcherCR0 resb STAMPROFILEADV_size
  1406                                  .StatSwitcherCR4 resb STAMPROFILEADV_size
  1407                                  .StatSwitcherJmpCR3 resb STAMPROFILEADV_size
  1408                                  .StatSwitcherRstrRegs resb STAMPROFILEADV_size
  1409                                  .StatSwitcherLgdt resb STAMPROFILEADV_size
  1410                                  .StatSwitcherLidt resb STAMPROFILEADV_size
  1411                                  .StatSwitcherLldt resb STAMPROFILEADV_size
  1412                                  .StatSwitcherTSS resb STAMPROFILEADV_size
  1413                                 
  1414                                 %line 102+1 /home/se170/VirtualBox-4.3.28/include/VBox/vmm/vm.mac
  1415                                 
  1416                                 %line 104+1 /home/se170/VirtualBox-4.3.28/include/VBox/vmm/vm.mac
  1417                                 
  1418                                 times ($$-$) & ((64)-1) resb 1
  1419                                  .cpum resb 1536
  1420                                  .vmm resb 1536
  1421                                 
  1422                                 VM_size:
  1423                                 %line 109+0 /home/se170/VirtualBox-4.3.28/include/VBox/vmm/vm.mac
  1424                                 [section .text]
  1425                                 %line 110+1 /home/se170/VirtualBox-4.3.28/include/VBox/vmm/vm.mac
  1426                                 
  1427                                 
  1428                                 
  1429                                 [absolute 0]
  1430                                 %line 113+0 /home/se170/VirtualBox-4.3.28/include/VBox/vmm/vm.mac
  1431                                 VMCPU:
  1432                                 %line 114+1 /home/se170/VirtualBox-4.3.28/include/VBox/vmm/vm.mac
  1433                                  .fLocalForcedActions resd 1
  1434                                  .enmState resd 1
  1435                                  .pUVCpu resq 1
  1436                                  .pVMR3 resq 1
  1437                                  .pVMR0 resq 1
  1438                                  .pVMRC resd 1
  1439                                  .idCpu resd 1
  1440                                 
  1441                                  .hNativeThread resq 1
  1442                                  .hNativeThreadR0 resq 1
  1443                                  .idHostCpu resd 1
  1444                                  .fTraceGroups resd 1
  1445                                 %line 129+1 /home/se170/VirtualBox-4.3.28/include/VBox/vmm/vm.mac
  1446                                  .abAlignment1 resb 60
  1447                                 %line 131+1 /home/se170/VirtualBox-4.3.28/include/VBox/vmm/vm.mac
  1448                                  .uAdHoc resd 1
  1449                                  .aStatAdHoc resb STAMPROFILEADV_size * 8
  1450                                 
  1451                                 times ($$-$) & ((64)-1) resb 1
  1452                                 
  1453                                  .cpum resb 3584
  1454                                  .hm resb 5568
  1455                                  .em resb 1472
  1456                                  .iem resb 3072
  1457                                  .trpm resb 128
  1458                                  .tm resb 384
  1459                                  .vmm resb 704
  1460                                  .pdm resb 256
  1461                                  .iom resb 512
  1462                                  .dbgf resb 64
  1463                                 times ($$-$) & ((4096)-1) resb 1
  1464                                  .pgm resb 4096
  1465                                 VMCPU_size:
  1466                                 %line 148+0 /home/se170/VirtualBox-4.3.28/include/VBox/vmm/vm.mac
  1467                                 [section .text]
  1468                                 %line 149+1 /home/se170/VirtualBox-4.3.28/include/VBox/vmm/vm.mac
  1469                                 
  1470                                 
  1471                                 %line 152+1 /home/se170/VirtualBox-4.3.28/include/VBox/vmm/vm.mac
  1472                                 
  1473                                 %line 1+1 /home/se170/VirtualBox-4.3.28/src/VBox/VMM/include/CPUMInternal.mac
  1474                                 
  1475                                 
  1476                                 
  1477                                 
  1478                                 
  1479                                 
  1480                                 
  1481                                 
  1482                                 
  1483                                 
  1484                                 
  1485                                 
  1486                                 
  1487                                 
  1488                                 
  1489                                 
  1490                                 
  1491                                 %line 1+1 /home/se170/VirtualBox-4.3.28/include/VBox/asmdefs.mac
  1492                                 
  1493                                 
  1494                                 
  1495                                 
  1496                                 
  1497                                 
  1498                                 
  1499                                 
  1500                                 
  1501                                 
  1502                                 
  1503                                 
  1504                                 
  1505                                 
  1506                                 
  1507                                 
  1508                                 
  1509                                 
  1510                                 
  1511                                 
  1512                                 
  1513                                 
  1514                                 
  1515                                 
  1516                                 
  1517                                 %line 775+1 /home/se170/VirtualBox-4.3.28/include/VBox/asmdefs.mac
  1518                                 
  1519                                 %line 19+1 /home/se170/VirtualBox-4.3.28/src/VBox/VMM/include/CPUMInternal.mac
  1520                                 
  1521                                 
  1522                                 %line 36+1 /home/se170/VirtualBox-4.3.28/src/VBox/VMM/include/CPUMInternal.mac
  1523                                 
  1524                                 %line 44+1 /home/se170/VirtualBox-4.3.28/src/VBox/VMM/include/CPUMInternal.mac
  1525                                 
  1526                                 %line 46+1 /home/se170/VirtualBox-4.3.28/src/VBox/VMM/include/CPUMInternal.mac
  1527                                 
  1528                                 %line 48+1 /home/se170/VirtualBox-4.3.28/src/VBox/VMM/include/CPUMInternal.mac
  1529                                 
  1530                                 
  1531                                 
  1532                                 %line 56+1 /home/se170/VirtualBox-4.3.28/src/VBox/VMM/include/CPUMInternal.mac
  1533                                 
  1534                                 [absolute 0]
  1535                                 %line 57+0 /home/se170/VirtualBox-4.3.28/src/VBox/VMM/include/CPUMInternal.mac
  1536                                 CPUM:
  1537                                 %line 58+1 /home/se170/VirtualBox-4.3.28/src/VBox/VMM/include/CPUMInternal.mac
  1538                                 
  1539                                  .offCPUMCPU0 resd 1
  1540                                  .fHostUseFlags resd 1
  1541                                 
  1542                                 
  1543                                  .CPUFeatures.edx resd 1
  1544                                  .CPUFeatures.ecx resd 1
  1545                                 
  1546                                 
  1547                                  .CPUFeaturesExt.edx resd 1
  1548                                  .CPUFeaturesExt.ecx resd 1
  1549                                 
  1550                                 
  1551                                  .CR4.AndMask resd 1
  1552                                  .CR4.OrMask resd 1
  1553                                 
  1554                                  .u8PortableCpuIdLevel resb 1
  1555                                  .fPendingRestore resb 1
  1556                                 %line 77+1 /home/se170/VirtualBox-4.3.28/src/VBox/VMM/include/CPUMInternal.mac
  1557                                  .abPadding resb 6
  1558                                 %line 81+1 /home/se170/VirtualBox-4.3.28/src/VBox/VMM/include/CPUMInternal.mac
  1559                                 
  1560                                 
  1561                                  .aGuestCpuIdStd resb 16*6
  1562                                  .aGuestCpuIdExt resb 16*10
  1563                                  .aGuestCpuIdCentaur resb 16*4
  1564                                  .aGuestCpuIdHyper resb 16*4
  1565                                  .GuestCpuIdDef resb 16
  1566                                 
  1567                                 %line 92+1 /home/se170/VirtualBox-4.3.28/src/VBox/VMM/include/CPUMInternal.mac
  1568                                 
  1569                                  .GuestInfo resb 8*4 + 4*2 + 4*12
  1570                                  .GuestFeatures resb 32
  1571                                  .HostFeatures resb 32
  1572                                 
  1573                                  .cMsrWrites resq 1
  1574                                  .cMsrWritesToIgnoredBits resq 1
  1575                                  .cMsrWritesRaiseGp resq 1
  1576                                  .cMsrWritesUnknown resq 1
  1577                                  .cMsrReads resq 1
  1578                                  .cMsrReadsRaiseGp resq 1
  1579                                  .cMsrReadsUnknown resq 1
  1580                                 CPUM_size:
  1581                                 %line 104+0 /home/se170/VirtualBox-4.3.28/src/VBox/VMM/include/CPUMInternal.mac
  1582                                 [section .text]
  1583                                 %line 105+1 /home/se170/VirtualBox-4.3.28/src/VBox/VMM/include/CPUMInternal.mac
  1584                                 
  1585                                 [absolute 0]
  1586                                 %line 106+0 /home/se170/VirtualBox-4.3.28/src/VBox/VMM/include/CPUMInternal.mac
  1587                                 CPUMCPU:
  1588                                 %line 107+1 /home/se170/VirtualBox-4.3.28/src/VBox/VMM/include/CPUMInternal.mac
  1589                                 
  1590                                 
  1591                                 
  1592                                  .Hyper.fpu resb 512
  1593                                  .Hyper.eax resq 1
  1594                                  .Hyper.ecx resq 1
  1595                                  .Hyper.edx resq 1
  1596                                  .Hyper.ebx resq 1
  1597                                  .Hyper.esp resq 1
  1598                                  .Hyper.ebp resq 1
  1599                                  .Hyper.esi resq 1
  1600                                  .Hyper.edi resq 1
  1601                                  .Hyper.r8 resq 1
  1602                                  .Hyper.r9 resq 1
  1603                                  .Hyper.r10 resq 1
  1604                                  .Hyper.r11 resq 1
  1605                                  .Hyper.r12 resq 1
  1606                                  .Hyper.r13 resq 1
  1607                                  .Hyper.r14 resq 1
  1608                                  .Hyper.r15 resq 1
  1609                                  .Hyper.es.Sel resw 1
  1610                                  .Hyper.es.PaddingSel resw 1
  1611                                  .Hyper.es.ValidSel resw 1
  1612                                  .Hyper.es.fFlags resw 1
  1613                                  .Hyper.es.u64Base resq 1
  1614                                  .Hyper.es.u32Limit resd 1
  1615                                  .Hyper.es.Attr resd 1
  1616                                  .Hyper.cs.Sel resw 1
  1617                                  .Hyper.cs.PaddingSel resw 1
  1618                                  .Hyper.cs.ValidSel resw 1
  1619                                  .Hyper.cs.fFlags resw 1
  1620                                  .Hyper.cs.u64Base resq 1
  1621                                  .Hyper.cs.u32Limit resd 1
  1622                                  .Hyper.cs.Attr resd 1
  1623                                  .Hyper.ss.Sel resw 1
  1624                                  .Hyper.ss.PaddingSel resw 1
  1625                                  .Hyper.ss.ValidSel resw 1
  1626                                  .Hyper.ss.fFlags resw 1
  1627                                  .Hyper.ss.u64Base resq 1
  1628                                  .Hyper.ss.u32Limit resd 1
  1629                                  .Hyper.ss.Attr resd 1
  1630                                  .Hyper.ds.Sel resw 1
  1631                                  .Hyper.ds.PaddingSel resw 1
  1632                                  .Hyper.ds.ValidSel resw 1
  1633                                  .Hyper.ds.fFlags resw 1
  1634                                  .Hyper.ds.u64Base resq 1
  1635                                  .Hyper.ds.u32Limit resd 1
  1636                                  .Hyper.ds.Attr resd 1
  1637                                  .Hyper.fs.Sel resw 1
  1638                                  .Hyper.fs.PaddingSel resw 1
  1639                                  .Hyper.fs.ValidSel resw 1
  1640                                  .Hyper.fs.fFlags resw 1
  1641                                  .Hyper.fs.u64Base resq 1
  1642                                  .Hyper.fs.u32Limit resd 1
  1643                                  .Hyper.fs.Attr resd 1
  1644                                  .Hyper.gs.Sel resw 1
  1645                                  .Hyper.gs.PaddingSel resw 1
  1646                                  .Hyper.gs.ValidSel resw 1
  1647                                  .Hyper.gs.fFlags resw 1
  1648                                  .Hyper.gs.u64Base resq 1
  1649                                  .Hyper.gs.u32Limit resd 1
  1650                                  .Hyper.gs.Attr resd 1
  1651                                  .Hyper.eip resq 1
  1652                                  .Hyper.eflags resq 1
  1653                                  .Hyper.cr0 resq 1
  1654                                  .Hyper.cr2 resq 1
  1655                                  .Hyper.cr3 resq 1
  1656                                  .Hyper.cr4 resq 1
  1657                                  .Hyper.dr resq 8
  1658                                  .Hyper.gdtrPadding resw 3
  1659                                  .Hyper.gdtr resw 0
  1660                                  .Hyper.gdtr.cbGdt resw 1
  1661                                  .Hyper.gdtr.pGdt resq 1
  1662                                  .Hyper.idtrPadding resw 3
  1663                                  .Hyper.idtr resw 0
  1664                                  .Hyper.idtr.cbIdt resw 1
  1665                                  .Hyper.idtr.pIdt resq 1
  1666                                  .Hyper.ldtr.Sel resw 1
  1667                                  .Hyper.ldtr.PaddingSel resw 1
  1668                                  .Hyper.ldtr.ValidSel resw 1
  1669                                  .Hyper.ldtr.fFlags resw 1
  1670                                  .Hyper.ldtr.u64Base resq 1
  1671                                  .Hyper.ldtr.u32Limit resd 1
  1672                                  .Hyper.ldtr.Attr resd 1
  1673                                  .Hyper.tr.Sel resw 1
  1674                                  .Hyper.tr.PaddingSel resw 1
  1675                                  .Hyper.tr.ValidSel resw 1
  1676                                  .Hyper.tr.fFlags resw 1
  1677                                  .Hyper.tr.u64Base resq 1
  1678                                  .Hyper.tr.u32Limit resd 1
  1679                                  .Hyper.tr.Attr resd 1
  1680                                  .Hyper.SysEnter.cs resb 8
  1681                                  .Hyper.SysEnter.eip resb 8
  1682                                  .Hyper.SysEnter.esp resb 8
  1683                                  .Hyper.msrEFER resb 8
  1684                                  .Hyper.msrSTAR resb 8
  1685                                  .Hyper.msrPAT resb 8
  1686                                  .Hyper.msrLSTAR resb 8
  1687                                  .Hyper.msrCSTAR resb 8
  1688                                  .Hyper.msrSFMASK resb 8
  1689                                  .Hyper.msrKERNELGSBASE resb 8
  1690                                  .Hyper.msrApicBase resb 8
  1691                                 
  1692                                 
  1693                                 
  1694                                 
  1695                                 times ($$-$) & ((64)-1) resb 1
  1696                                  .Host.fpu resb 512
  1697                                 
  1698                                 %line 217+1 /home/se170/VirtualBox-4.3.28/src/VBox/VMM/include/CPUMInternal.mac
  1699                                 
  1700                                  .Host.rbx resq 1
  1701                                 
  1702                                 
  1703                                  .Host.rdi resq 1
  1704                                  .Host.rsi resq 1
  1705                                  .Host.rbp resq 1
  1706                                  .Host.rsp resq 1
  1707                                 
  1708                                 
  1709                                  .Host.r10 resq 1
  1710                                  .Host.r11 resq 1
  1711                                  .Host.r12 resq 1
  1712                                  .Host.r13 resq 1
  1713                                  .Host.r14 resq 1
  1714                                  .Host.r15 resq 1
  1715                                 
  1716                                  .Host.rflags resq 1
  1717                                 %line 249+1 /home/se170/VirtualBox-4.3.28/src/VBox/VMM/include/CPUMInternal.mac
  1718                                  .Host.ss resw 1
  1719                                  .Host.ssPadding resw 1
  1720                                  .Host.gs resw 1
  1721                                  .Host.gsPadding resw 1
  1722                                  .Host.fs resw 1
  1723                                  .Host.fsPadding resw 1
  1724                                  .Host.es resw 1
  1725                                  .Host.esPadding resw 1
  1726                                  .Host.ds resw 1
  1727                                  .Host.dsPadding resw 1
  1728                                  .Host.cs resw 1
  1729                                  .Host.csPadding resw 1
  1730                                 
  1731                                 %line 291+1 /home/se170/VirtualBox-4.3.28/src/VBox/VMM/include/CPUMInternal.mac
  1732                                 
  1733                                  .Host.cr0 resq 1
  1734                                 
  1735                                  .Host.cr3 resq 1
  1736                                  .Host.cr4 resq 1
  1737                                  .Host.cr8 resq 1
  1738                                 
  1739                                  .Host.dr0 resq 1
  1740                                  .Host.dr1 resq 1
  1741                                  .Host.dr2 resq 1
  1742                                  .Host.dr3 resq 1
  1743                                  .Host.dr6 resq 1
  1744                                  .Host.dr7 resq 1
  1745                                 
  1746                                  .Host.gdtr resb 10
  1747                                  .Host.gdtrPadding resw 1
  1748                                  .Host.idtr resb 10
  1749                                  .Host.idtrPadding resw 1
  1750                                  .Host.ldtr resw 1
  1751                                  .Host.ldtrPadding resw 1
  1752                                  .Host.tr resw 1
  1753                                  .Host.trPadding resw 1
  1754                                 
  1755                                  .Host.SysEnter.cs resq 1
  1756                                  .Host.SysEnter.eip resq 1
  1757                                  .Host.SysEnter.esp resq 1
  1758                                  .Host.FSbase resq 1
  1759                                  .Host.GSbase resq 1
  1760                                  .Host.efer resq 1
  1761                                 %line 321+1 /home/se170/VirtualBox-4.3.28/src/VBox/VMM/include/CPUMInternal.mac
  1762                                 
  1763                                 %line 326+1 /home/se170/VirtualBox-4.3.28/src/VBox/VMM/include/CPUMInternal.mac
  1764                                 
  1765                                 
  1766                                 
  1767                                 
  1768                                 times ($$-$) & ((64)-1) resb 1
  1769                                  .Guest.fpu resb 512
  1770                                  .Guest.eax resq 1
  1771                                  .Guest.ecx resq 1
  1772                                  .Guest.edx resq 1
  1773                                  .Guest.ebx resq 1
  1774                                  .Guest.esp resq 1
  1775                                  .Guest.ebp resq 1
  1776                                  .Guest.esi resq 1
  1777                                  .Guest.edi resq 1
  1778                                  .Guest.r8 resq 1
  1779                                  .Guest.r9 resq 1
  1780                                  .Guest.r10 resq 1
  1781                                  .Guest.r11 resq 1
  1782                                  .Guest.r12 resq 1
  1783                                  .Guest.r13 resq 1
  1784                                  .Guest.r14 resq 1
  1785                                  .Guest.r15 resq 1
  1786                                  .Guest.es.Sel resw 1
  1787                                  .Guest.es.PaddingSel resw 1
  1788                                  .Guest.es.ValidSel resw 1
  1789                                  .Guest.es.fFlags resw 1
  1790                                  .Guest.es.u64Base resq 1
  1791                                  .Guest.es.u32Limit resd 1
  1792                                  .Guest.es.Attr resd 1
  1793                                  .Guest.cs.Sel resw 1
  1794                                  .Guest.cs.PaddingSel resw 1
  1795                                  .Guest.cs.ValidSel resw 1
  1796                                  .Guest.cs.fFlags resw 1
  1797                                  .Guest.cs.u64Base resq 1
  1798                                  .Guest.cs.u32Limit resd 1
  1799                                  .Guest.cs.Attr resd 1
  1800                                  .Guest.ss.Sel resw 1
  1801                                  .Guest.ss.PaddingSel resw 1
  1802                                  .Guest.ss.ValidSel resw 1
  1803                                  .Guest.ss.fFlags resw 1
  1804                                  .Guest.ss.u64Base resq 1
  1805                                  .Guest.ss.u32Limit resd 1
  1806                                  .Guest.ss.Attr resd 1
  1807                                  .Guest.ds.Sel resw 1
  1808                                  .Guest.ds.PaddingSel resw 1
  1809                                  .Guest.ds.ValidSel resw 1
  1810                                  .Guest.ds.fFlags resw 1
  1811                                  .Guest.ds.u64Base resq 1
  1812                                  .Guest.ds.u32Limit resd 1
  1813                                  .Guest.ds.Attr resd 1
  1814                                  .Guest.fs.Sel resw 1
  1815                                  .Guest.fs.PaddingSel resw 1
  1816                                  .Guest.fs.ValidSel resw 1
  1817                                  .Guest.fs.fFlags resw 1
  1818                                  .Guest.fs.u64Base resq 1
  1819                                  .Guest.fs.u32Limit resd 1
  1820                                  .Guest.fs.Attr resd 1
  1821                                  .Guest.gs.Sel resw 1
  1822                                  .Guest.gs.PaddingSel resw 1
  1823                                  .Guest.gs.ValidSel resw 1
  1824                                  .Guest.gs.fFlags resw 1
  1825                                  .Guest.gs.u64Base resq 1
  1826                                  .Guest.gs.u32Limit resd 1
  1827                                  .Guest.gs.Attr resd 1
  1828                                  .Guest.eip resq 1
  1829                                  .Guest.eflags resq 1
  1830                                  .Guest.cr0 resq 1
  1831                                  .Guest.cr2 resq 1
  1832                                  .Guest.cr3 resq 1
  1833                                  .Guest.cr4 resq 1
  1834                                  .Guest.dr resq 8
  1835                                  .Guest.gdtrPadding resw 3
  1836                                  .Guest.gdtr resw 0
  1837                                  .Guest.gdtr.cbGdt resw 1
  1838                                  .Guest.gdtr.pGdt resq 1
  1839                                  .Guest.idtrPadding resw 3
  1840                                  .Guest.idtr resw 0
  1841                                  .Guest.idtr.cbIdt resw 1
  1842                                  .Guest.idtr.pIdt resq 1
  1843                                  .Guest.ldtr.Sel resw 1
  1844                                  .Guest.ldtr.PaddingSel resw 1
  1845                                  .Guest.ldtr.ValidSel resw 1
  1846                                  .Guest.ldtr.fFlags resw 1
  1847                                  .Guest.ldtr.u64Base resq 1
  1848                                  .Guest.ldtr.u32Limit resd 1
  1849                                  .Guest.ldtr.Attr resd 1
  1850                                  .Guest.tr.Sel resw 1
  1851                                  .Guest.tr.PaddingSel resw 1
  1852                                  .Guest.tr.ValidSel resw 1
  1853                                  .Guest.tr.fFlags resw 1
  1854                                  .Guest.tr.u64Base resq 1
  1855                                  .Guest.tr.u32Limit resd 1
  1856                                  .Guest.tr.Attr resd 1
  1857                                  .Guest.SysEnter.cs resb 8
  1858                                  .Guest.SysEnter.eip resb 8
  1859                                  .Guest.SysEnter.esp resb 8
  1860                                  .Guest.msrEFER resb 8
  1861                                  .Guest.msrSTAR resb 8
  1862                                  .Guest.msrPAT resb 8
  1863                                  .Guest.msrLSTAR resb 8
  1864                                  .Guest.msrCSTAR resb 8
  1865                                  .Guest.msrSFMASK resb 8
  1866                                  .Guest.msrKERNELGSBASE resb 8
  1867                                  .Guest.msrApicBase resb 8
  1868                                 
  1869                                 
  1870                                 times ($$-$) & ((64)-1) resb 1
  1871                                  .GuestMsrs.au64 resq 64
  1872                                 
  1873                                 
  1874                                 
  1875                                 
  1876                                  .fUseFlags resd 1
  1877                                  .fChanged resd 1
  1878                                  .offCPUM resd 1
  1879                                  .u32RetCode resd 1
  1880                                 
  1881                                 %line 444+1 /home/se170/VirtualBox-4.3.28/src/VBox/VMM/include/CPUMInternal.mac
  1882                                  .pvApicBase resq 1
  1883                                  .fApicDisVectors resd 1
  1884                                  .fX2Apic resb 1
  1885                                 %line 450+1 /home/se170/VirtualBox-4.3.28/src/VBox/VMM/include/CPUMInternal.mac
  1886                                 
  1887                                  .fRawEntered resb 1
  1888                                  .fRemEntered resb 1
  1889                                 
  1890                                  .abPadding2 resb (64 - 16 - 8 - 4 - 1 - 2)
  1891                                 CPUMCPU_size:
  1892                                 %line 455+0 /home/se170/VirtualBox-4.3.28/src/VBox/VMM/include/CPUMInternal.mac
  1893                                 [section .text]
  1894                                 %line 456+1 /home/se170/VirtualBox-4.3.28/src/VBox/VMM/include/CPUMInternal.mac
  1895                                 
  1896                                 
  1897                                 
  1898                                 
  1899                                 
  1900                                 %line 464+1 /home/se170/VirtualBox-4.3.28/src/VBox/VMM/include/CPUMInternal.mac
  1901                                 
  1902                                 
  1903                                 
  1904                                 
  1905                                 
  1906                                 %line 472+1 /home/se170/VirtualBox-4.3.28/src/VBox/VMM/include/CPUMInternal.mac
  1907                                 
  1908                                 
  1909                                 
  1910                                 
  1911                                 %line 479+1 /home/se170/VirtualBox-4.3.28/src/VBox/VMM/include/CPUMInternal.mac
  1912                                 
  1913                                 
  1914                                 
  1915                                 
  1916                                 
  1917                                 %line 487+1 /home/se170/VirtualBox-4.3.28/src/VBox/VMM/include/CPUMInternal.mac
  1918                                 
  1919                                 %line 1+1 /home/se170/VirtualBox-4.3.28/src/VBox/VMM/include/VMMSwitcher.mac
  1920                                 
  1921                                 
  1922                                 
  1923                                 
  1924                                 
  1925                                 
  1926                                 
  1927                                 
  1928                                 
  1929                                 
  1930                                 
  1931                                 
  1932                                 
  1933                                 
  1934                                 
  1935                                 
  1936                                 
  1937                                 %line 20+1 /home/se170/VirtualBox-4.3.28/src/VBox/VMM/include/VMMSwitcher.mac
  1938                                 
  1939                                 %line 1+1 /home/se170/VirtualBox-4.3.28/include/iprt/asmdefs.mac
  1940                                 
  1941                                 
  1942                                 
  1943                                 
  1944                                 
  1945                                 
  1946                                 
  1947                                 
  1948                                 
  1949                                 
  1950                                 
  1951                                 
  1952                                 
  1953                                 
  1954                                 
  1955                                 
  1956                                 
  1957                                 
  1958                                 
  1959                                 
  1960                                 
  1961                                 
  1962                                 
  1963                                 
  1964                                 
  1965                                 %line 22+1 /home/se170/VirtualBox-4.3.28/src/VBox/VMM/include/VMMSwitcher.mac
  1966                                 
  1967                                 
  1968                                 %line 37+1 /home/se170/VirtualBox-4.3.28/src/VBox/VMM/include/VMMSwitcher.mac
  1969                                 
  1970                                 
  1971                                 
  1972                                 [absolute 0]
  1973                                 %line 40+0 /home/se170/VirtualBox-4.3.28/src/VBox/VMM/include/VMMSwitcher.mac
  1974                                 VMMSWITCHERDEF:
  1975                                 %line 41+1 /home/se170/VirtualBox-4.3.28/src/VBox/VMM/include/VMMSwitcher.mac
  1976                                  .pvCode: resq 1
  1977                                  .pvFixups: resq 1
  1978                                  .pszDesc: resq 1
  1979                                  .pfnRelocate: resq 1
  1980                                  .enmType: resd 1
  1981                                  .cbCode: resd 1
  1982                                  .offR0ToRawMode: resd 1
  1983                                  .offRCToHost: resd 1
  1984                                  .offRCCallTrampoline: resd 1
  1985                                  .offRCToHostAsm: resd 1
  1986                                  .offRCToHostAsmNoReturn: resd 1
  1987                                 
  1988                                  .offHCCode0: resd 1
  1989                                  .cbHCCode0: resd 1
  1990                                  .offHCCode1: resd 1
  1991                                  .cbHCCode1: resd 1
  1992                                  .offIDCode0: resd 1
  1993                                  .cbIDCode0: resd 1
  1994                                  .offIDCode1: resd 1
  1995                                  .cbIDCode1: resd 1
  1996                                  .offGCCode: resd 1
  1997                                  .cbGCCode: resd 1
  1998                                 VMMSWITCHERDEF_size:
  1999                                 %line 63+0 /home/se170/VirtualBox-4.3.28/src/VBox/VMM/include/VMMSwitcher.mac
  2000                                 [section .text]
  2001                                 %line 64+1 /home/se170/VirtualBox-4.3.28/src/VBox/VMM/include/VMMSwitcher.mac
  2002                                 
  2003                                 
  2004                                 
  2005                                 
  2006                                 
  2007                                 %line 103+1 /home/se170/VirtualBox-4.3.28/src/VBox/VMM/include/VMMSwitcher.mac
  2008                                 
  2009                                 
  2010                                 
  2011                                 
  2012                                 
  2013                                 
  2014                                 
  2015                                 
  2016                                 %line 124+1 /home/se170/VirtualBox-4.3.28/src/VBox/VMM/include/VMMSwitcher.mac
  2017                                 
  2018                                 
  2019                                 
  2020                                 
  2021                                 
  2022                                 %line 144+1 /home/se170/VirtualBox-4.3.28/src/VBox/VMM/include/VMMSwitcher.mac
  2023                                 
  2024                                 %line 146+1 /home/se170/VirtualBox-4.3.28/src/VBox/VMM/include/VMMSwitcher.mac
  2025                                 
  2026                                 %line 33+1 /home/se170/VirtualBox-4.3.28/src/VBox/VMM/VMMSwitcher/AMD64andLegacy.mac
  2027                                 
  2028                                 
  2029                                 
  2030                                 
  2031                                 
  2032                                 
  2033                                 
  2034                                 
  2035                                 [section .data]
  2036                                 [global vmmR3SwitcherAMD64ToPAE_Fixups]
  2037                                 %line 42+0 /home/se170/VirtualBox-4.3.28/src/VBox/VMM/VMMSwitcher/AMD64andLegacy.mac
  2038                                 vmmR3SwitcherAMD64ToPAE_Fixups:
  2039                                 %line 43+1 /home/se170/VirtualBox-4.3.28/src/VBox/VMM/VMMSwitcher/AMD64andLegacy.mac
  2040                                 
  2041                                 
  2042                                 
  2043                                 [section .text]
  2044                                 [global vmmR3SwitcherAMD64ToPAE_Start]
  2045                                 %line 47+0 /home/se170/VirtualBox-4.3.28/src/VBox/VMM/VMMSwitcher/AMD64andLegacy.mac
  2046                                 vmmR3SwitcherAMD64ToPAE_Start:
  2047                                 %line 48+1 /home/se170/VirtualBox-4.3.28/src/VBox/VMM/VMMSwitcher/AMD64andLegacy.mac
  2048                                 
  2049                                 %line 50+1 /home/se170/VirtualBox-4.3.28/src/VBox/VMM/VMMSwitcher/AMD64andLegacy.mac
  2050                                 [bits 64]
  2051                                 
  2052                                 
  2053                                 
  2054                                 
  2055                                 
  2056                                 
  2057                                 [global vmmR3SwitcherAMD64ToPAE_vmmR0ToRawMode:function hidden]
  2058                                 %line 57+0 /home/se170/VirtualBox-4.3.28/src/VBox/VMM/VMMSwitcher/AMD64andLegacy.mac
  2059                                 vmmR3SwitcherAMD64ToPAE_vmmR0ToRawMode:
  2060                                 %line 62+1 /home/se170/VirtualBox-4.3.28/src/VBox/VMM/VMMSwitcher/AMD64andLegacy.mac
  2061                                 
  2062                                 
  2063                                 
  2064                                 
  2065                                 %line 75+1 /home/se170/VirtualBox-4.3.28/src/VBox/VMM/VMMSwitcher/AMD64andLegacy.mac
  2066                                 
  2067                                 
  2068                                 
  2069                                 
  2070                                 %line 82+1 /home/se170/VirtualBox-4.3.28/src/VBox/VMM/VMMSwitcher/AMD64andLegacy.mac
  2071 00000000 4989F9                  mov r9, rdi
  2072                                 %line 84+1 /home/se170/VirtualBox-4.3.28/src/VBox/VMM/VMMSwitcher/AMD64andLegacy.mac
  2073 00000003 498D9140030000          lea rdx, [r9 + VM.cpum]
  2074                                 
  2075                                 %line 87+1 /home/se170/VirtualBox-4.3.28/src/VBox/VMM/VMMSwitcher/AMD64andLegacy.mac
  2076                                 
  2077                                 
  2078                                 
  2079 0000000A 4D8D8110010000          lea r8, [r9 + VM.StatSwitcherToGC]
  2080 00000011 51                      push rcx
  2081                                 %line 91+0 /home/se170/VirtualBox-4.3.28/src/VBox/VMM/VMMSwitcher/AMD64andLegacy.mac
  2082 00000012 4C89C1                  mov rcx, r8
  2083 00000015 488D4920                lea rcx, [rcx + STAMPROFILEADV.tsStart]
  2084 00000019 53                      push rbx
  2085 0000001A 4889CB                  mov rbx, rcx
  2086 0000001D 50                      push rax
  2087 0000001E 52                      push rdx
  2088                                 
  2089 0000001F 0F31                    rdtsc
  2090 00000021 8903                    mov [rbx], eax
  2091 00000023 895304                  mov [rbx + 4], edx
  2092                                 
  2093 00000026 5A                      pop rdx
  2094 00000027 58                      pop rax
  2095 00000028 5B                      pop rbx
  2096 00000029 59                      pop rcx
  2097                                 %line 93+1 /home/se170/VirtualBox-4.3.28/src/VBox/VMM/VMMSwitcher/AMD64andLegacy.mac
  2098                                 
  2099                                 
  2100                                 
  2101                                 
  2102 0000002A 8CC8                    mov eax, cs
  2103 0000002C 50                      push rax
  2104 0000002D E839010000              call vmmR3SwitcherAMD64ToPAE_vmmR0ToRawModeAsm
  2105                                 
  2106                                 %line 102+1 /home/se170/VirtualBox-4.3.28/src/VBox/VMM/VMMSwitcher/AMD64andLegacy.mac
  2107                                 
  2108                                 
  2109 00000032 448B02                  mov r8d, [rdx + CPUM.offCPUMCPU0]
  2110 00000035 428B8C02D80D0000        mov ecx, [rdx + r8 + CPUMCPU.fApicDisVectors]
  2111 0000003D 85C9                    test ecx, ecx
  2112 0000003F 0F84C2000000            jz gth64_apic_done
  2113 00000045 4280BC02DC0D000001      cmp byte [rdx + r8 + CPUMCPU.fX2Apic], 1
  2114 0000004E 7453                    je gth64_x2apic
  2115                                 
  2116                                 
  2117 00000050 4E8B8402D00D0000        mov r8, [rdx + r8 + CPUMCPU.pvApicBase]
  2118 00000058 D1E9                    shr ecx, 1
  2119 0000005A 7309                    jnc gth64_nolint0
  2120 0000005C 4181A050030000FFFF-     and dword [r8 + 0x0350], ~(1 << 16)
  2121 0000005C FEFF               
  2122                                 gth64_nolint0:
  2123 00000067 D1E9                    shr ecx, 1
  2124 00000069 7309                    jnc gth64_nolint1
  2125 0000006B 4181A060030000FFFF-     and dword [r8 + 0x0360], ~(1 << 16)
  2126 0000006B FEFF               
  2127                                 gth64_nolint1:
  2128 00000076 D1E9                    shr ecx, 1
  2129 00000078 7309                    jnc gth64_nopc
  2130 0000007A 4181A040030000FFFF-     and dword [r8 + 0x0340], ~(1 << 16)
  2131 0000007A FEFF               
  2132                                 gth64_nopc:
  2133 00000085 D1E9                    shr ecx, 1
  2134 00000087 7309                    jnc gth64_notherm
  2135 00000089 4181A030030000FFFF-     and dword [r8 + 0x0330], ~(1 << 16)
  2136 00000089 FEFF               
  2137                                 gth64_notherm:
  2138 00000094 D1E9                    shr ecx, 1
  2139 00000096 7309                    jnc gth64_nocmci
  2140 00000098 4181A0F0020000FFFF-     and dword [r8 + 0x02F0], ~(1 << 16)
  2141 00000098 FEFF               
  2142                                 gth64_nocmci:
  2143 000000A3 EB66                    jmp gth64_apic_done
  2144                                 
  2145                                 
  2146                                 gth64_x2apic:
  2147 000000A5 4989C0                  mov r8, rax
  2148 000000A8 4989CA                  mov r10, rcx
  2149 000000AB 41D1EA                  shr r10d, 1
  2150 000000AE 730C                    jnc gth64_x2_nolint0
  2151 000000B0 B935080000              mov ecx, 0x800 + (0x0350 >> 4)
  2152 000000B5 0F32                    rdmsr
  2153 000000B7 25FFFFFEFF              and eax, ~(1 << 16)
  2154 000000BC 0F30                    wrmsr
  2155                                 gth64_x2_nolint0:
  2156 000000BE 41D1EA                  shr r10d, 1
  2157 000000C1 730C                    jnc gth64_x2_nolint1
  2158 000000C3 B936080000              mov ecx, 0x800 + (0x0360 >> 4)
  2159 000000C8 0F32                    rdmsr
  2160 000000CA 25FFFFFEFF              and eax, ~(1 << 16)
  2161 000000CF 0F30                    wrmsr
  2162                                 gth64_x2_nolint1:
  2163 000000D1 41D1EA                  shr r10d, 1
  2164 000000D4 730C                    jnc gth64_x2_nopc
  2165 000000D6 B934080000              mov ecx, 0x800 + (0x0340 >> 4)
  2166 000000DB 0F32                    rdmsr
  2167 000000DD 25FFFFFEFF              and eax, ~(1 << 16)
  2168 000000E2 0F30                    wrmsr
  2169                                 gth64_x2_nopc:
  2170 000000E4 41D1EA                  shr r10d, 1
  2171 000000E7 730C                    jnc gth64_x2_notherm
  2172 000000E9 B933080000              mov ecx, 0x800 + (0x0330 >> 4)
  2173 000000EE 0F32                    rdmsr
  2174 000000F0 25FFFFFEFF              and eax, ~(1 << 16)
  2175 000000F5 0F30                    wrmsr
  2176                                 gth64_x2_notherm:
  2177 000000F7 41D1EA                  shr r10d, 1
  2178 000000FA 730C                    jnc gth64_x2_nocmci
  2179 000000FC B92F080000              mov ecx, 0x800 + (0x02F0 >> 4)
  2180 00000101 0F32                    rdmsr
  2181 00000103 25FFFFFEFF              and eax, ~(1 << 16)
  2182 00000108 0F30                    wrmsr
  2183                                 gth64_x2_nocmci:
  2184 0000010A 4C89C0                  mov rax, r8
  2185                                 
  2186                                 gth64_apic_done:
  2187                                 %line 178+1 /home/se170/VirtualBox-4.3.28/src/VBox/VMM/VMMSwitcher/AMD64andLegacy.mac
  2188                                 
  2189                                 %line 180+1 /home/se170/VirtualBox-4.3.28/src/VBox/VMM/VMMSwitcher/AMD64andLegacy.mac
  2190                                 
  2191                                 
  2192                                 
  2193 0000010D 4D8D8110010000          lea r8, [r9 + VM.StatSwitcherToGC]
  2194 00000114 51                      push rcx
  2195                                 %line 184+0 /home/se170/VirtualBox-4.3.28/src/VBox/VMM/VMMSwitcher/AMD64andLegacy.mac
  2196 00000115 4C89C1                  mov rcx, r8
  2197 00000118 488D4920                lea rcx, [rcx + STAMPROFILEADV.tsStart]
  2198 0000011C 48833900                cmp qword [rcx], byte 0
  2199 00000120 7439                    jz short ..@71.dont
  2200                                 ..@71.doit:
  2201 00000122 53                      push rbx
  2202 00000123 4C89C3                  mov rbx, r8
  2203 00000126 50                      push rax
  2204 00000127 52                      push rdx
  2205                                 
  2206                                 
  2207 00000128 51                      push rcx
  2208 00000129 4889C9                  mov rcx, rcx
  2209 0000012C 0F31                    rdtsc
  2210 0000012E 67482B01                sub rax, [ecx]
  2211 00000132 67481B5104              sbb rdx, [ecx + 4]
  2212 00000137 59                      pop rcx
  2213                                 
  2214                                 
  2215 00000138 48C1E220                shl rdx, 32
  2216 0000013C 4809C2                  or rdx, rax
  2217 0000013F 48015308                add [rbx + STAMPROFILE.cTicks], rdx
  2218                                 
  2219 00000143 48FF03                  inc qword [rbx + STAMPROFILE.cPeriods]
  2220                                 
  2221                                 
  2222 00000146 483B5310                cmp rdx, [rbx + STAMPROFILE.cTicksMax]
  2223 0000014A 7602                    jbe short ..@72.not_update_max
  2224 0000014C 48895310                mov [rbx + STAMPROFILE.cTicksMax], rdx
  2225                                 ..@72.not_update_max:
  2226                                 
  2227                                 
  2228 00000150 483B5318                cmp rdx, [rbx + STAMPROFILE.cTicksMin]
  2229 00000154 7302                    jae short ..@72.not_update_min
  2230 00000156 48894318                mov [rbx + STAMPROFILE.cTicksMin], rax
  2231                                 ..@72.not_update_min:
  2232                                 
  2233 0000015A 5A                      pop rdx
  2234 0000015B 58                      pop rax
  2235 0000015C 5B                      pop rbx
  2236                                 ..@71.dont:
  2237 0000015D 48C70100000000          mov qword [rcx], 0
  2238 00000164 59                      pop rcx
  2239                                 %line 186+1 /home/se170/VirtualBox-4.3.28/src/VBox/VMM/VMMSwitcher/AMD64andLegacy.mac
  2240                                 
  2241 00000165 C3                      ret
  2242                                 [global vmmR3SwitcherAMD64ToPAE_vmmR0ToRawMode_EndProc:function hidden]
  2243                                 %line 188+0 /home/se170/VirtualBox-4.3.28/src/VBox/VMM/VMMSwitcher/AMD64andLegacy.mac
  2244                                 vmmR3SwitcherAMD64ToPAE_vmmR0ToRawMode_EndProc:
  2245                                 [size vmmR3SwitcherAMD64ToPAE_vmmR0ToRawMode vmmR3SwitcherAMD64ToPAE_vmmR0ToRawMode_EndProc - vmmR3SwitcherAMD64ToPAE_vmmR0ToRawMode]
  2246                                 [size vmmR3SwitcherAMD64ToPAE_vmmR0ToRawMode_EndProc 0]
  2247 00000166 CCCCCCCC                db 0xCC, 0xCC, 0xCC, 0xCC
  2248                                 %line 189+1 /home/se170/VirtualBox-4.3.28/src/VBox/VMM/VMMSwitcher/AMD64andLegacy.mac
  2249                                 
  2250                                 
  2251                                 %line 262+1 /home/se170/VirtualBox-4.3.28/src/VBox/VMM/VMMSwitcher/AMD64andLegacy.mac
  2252                                 
  2253                                 
  2254                                 
  2255                                 
  2256                                 
  2257                                 
  2258                                 
  2259                                 
  2260                                 
  2261                                 
  2262                                 
  2263                                 
  2264                                 
  2265                                 
  2266                                 
  2267                                 
  2268                                 
  2269                                 
  2270 0000016A CC<rept>               times ($$-$) & ((16)-1) db 0cc
  2271                                 [global vmmR3SwitcherAMD64ToPAE_vmmR0ToRawModeAsm:function hidden]
  2272                                 %line 281+0 /home/se170/VirtualBox-4.3.28/src/VBox/VMM/VMMSwitcher/AMD64andLegacy.mac
  2273                                 vmmR3SwitcherAMD64ToPAE_vmmR0ToRawModeAsm:
  2274                                 %line 282+1 /home/se170/VirtualBox-4.3.28/src/VBox/VMM/VMMSwitcher/AMD64andLegacy.mac
  2275                                 
  2276 00000170 448B02                  mov r8d, [rdx + CPUM.offCPUMCPU0]
  2277                                 
  2278                                 
  2279                                 
  2280                                 
  2281                                 
  2282                                 
  2283                                 
  2284 00000173 4A899C0240060000        mov [rdx + r8 + CPUMCPU.Host.rbx], rbx
  2285                                 
  2286                                 
  2287 0000017B 4A89BC0248060000        mov [rdx + r8 + CPUMCPU.Host.rdi], rdi
  2288 00000183 4A89B40250060000        mov [rdx + r8 + CPUMCPU.Host.rsi], rsi
  2289 0000018B 4A89A40260060000        mov [rdx + r8 + CPUMCPU.Host.rsp], rsp
  2290 00000193 4A89AC0258060000        mov [rdx + r8 + CPUMCPU.Host.rbp], rbp
  2291                                 
  2292                                 
  2293 0000019B 4E89940268060000        mov [rdx + r8 + CPUMCPU.Host.r10], r10
  2294 000001A3 4E899C0270060000        mov [rdx + r8 + CPUMCPU.Host.r11], r11
  2295 000001AB 4E89A40278060000        mov [rdx + r8 + CPUMCPU.Host.r12], r12
  2296 000001B3 4E89AC0280060000        mov [rdx + r8 + CPUMCPU.Host.r13], r13
  2297 000001BB 4E89B40288060000        mov [rdx + r8 + CPUMCPU.Host.r14], r14
  2298 000001C3 4E89BC0290060000        mov [rdx + r8 + CPUMCPU.Host.r15], r15
  2299                                 
  2300 000001CB 428C9C02B0060000        mov [rdx + r8 + CPUMCPU.Host.ds], ds
  2301 000001D3 428C8402AC060000        mov [rdx + r8 + CPUMCPU.Host.es], es
  2302 000001DB 428CA402A8060000        mov [rdx + r8 + CPUMCPU.Host.fs], fs
  2303 000001E3 428CAC02A4060000        mov [rdx + r8 + CPUMCPU.Host.gs], gs
  2304 000001EB 428C9402A0060000        mov [rdx + r8 + CPUMCPU.Host.ss], ss
  2305                                 
  2306 000001F3 4889D3                  mov rbx, rdx
  2307 000001F6 B9000100C0              mov ecx, 0xc0000100
  2308 000001FB 0F32                    rdmsr
  2309 000001FD 4289840340070000        mov [rbx + r8 + CPUMCPU.Host.FSbase], eax
  2310 00000205 4289940344070000        mov [rbx + r8 + CPUMCPU.Host.FSbase + 4], edx
  2311 0000020D B9010100C0              mov ecx, 0xc0000101
  2312 00000212 0F32                    rdmsr
  2313 00000214 4289840348070000        mov [rbx + r8 + CPUMCPU.Host.GSbase], eax
  2314 0000021C 428994034C070000        mov [rbx + r8 + CPUMCPU.Host.GSbase + 4], edx
  2315 00000224 B9800000C0              mov ecx, 0xc0000080
  2316 00000229 0F32                    rdmsr
  2317 0000022B 4289840350070000        mov [rbx + r8 + CPUMCPU.Host.efer], eax
  2318 00000233 4289940354070000        mov [rbx + r8 + CPUMCPU.Host.efer + 4], edx
  2319 0000023B 4889DA                  mov rdx, rbx
  2320                                 
  2321 0000023E 420F00840220070000      sldt [rdx + r8 + CPUMCPU.Host.ldtr]
  2322 00000247 420F018C0214070000      sidt [rdx + r8 + CPUMCPU.Host.idtr]
  2323 00000250 420F01840208070000      sgdt [rdx + r8 + CPUMCPU.Host.gdtr]
  2324 00000259 420F008C0224070000      str [rdx + r8 + CPUMCPU.Host.tr]
  2325                                 
  2326 00000262 9C                      pushf
  2327 00000263 428F840298060000        pop qword [rdx + r8 + CPUMCPU.Host.rflags]
  2328                                 
  2329                                 %line 337+1 /home/se170/VirtualBox-4.3.28/src/VBox/VMM/VMMSwitcher/AMD64andLegacy.mac
  2330                                 
  2331 0000026B 4280BC02DC0D000001      cmp byte [rdx + r8 + CPUMCPU.fX2Apic], 1
  2332 00000274 0F84F8000000            je htg_x2apic
  2333                                 
  2334                                 
  2335 0000027A 4A8B9C02D00D0000        mov rbx, [rdx + r8 + CPUMCPU.pvApicBase]
  2336 00000282 4809DB                  or rbx, rbx
  2337 00000285 0F84AC010000            jz htg_apic_done
  2338 0000028B 31FF                    xor edi, edi
  2339 0000028D 8B8350030000            mov eax, [rbx + 0x0350]
  2340 00000293 89C1                    mov ecx, eax
  2341 00000295 81E100070100            and ecx, ((1 << 16) | ((1 << 8) | (1 << 9) | (1 << 10)))
  2342 0000029B 81F900040000            cmp ecx, (1 << 10)
  2343 000002A1 7512                    jne htg_nolint0
  2344 000002A3 83CF01                  or edi, 0x01
  2345 000002A6 0D00000100              or eax, (1 << 16)
  2346 000002AB 898350030000            mov [rbx + 0x0350], eax
  2347 000002B1 8B8350030000            mov eax, [rbx + 0x0350]
  2348                                 htg_nolint0:
  2349 000002B7 8B8360030000            mov eax, [rbx + 0x0360]
  2350 000002BD 89C1                    mov ecx, eax
  2351 000002BF 81E100070100            and ecx, ((1 << 16) | ((1 << 8) | (1 << 9) | (1 << 10)))
  2352 000002C5 81F900040000            cmp ecx, (1 << 10)
  2353 000002CB 7512                    jne htg_nolint1
  2354 000002CD 83CF02                  or edi, 0x02
  2355 000002D0 0D00000100              or eax, (1 << 16)
  2356 000002D5 898360030000            mov [rbx + 0x0360], eax
  2357 000002DB 8B8360030000            mov eax, [rbx + 0x0360]
  2358                                 htg_nolint1:
  2359 000002E1 8B8340030000            mov eax, [rbx + 0x0340]
  2360 000002E7 89C1                    mov ecx, eax
  2361 000002E9 81E100070100            and ecx, ((1 << 16) | ((1 << 8) | (1 << 9) | (1 << 10)))
  2362 000002EF 81F900040000            cmp ecx, (1 << 10)
  2363 000002F5 7512                    jne htg_nopc
  2364 000002F7 83CF04                  or edi, 0x04
  2365 000002FA 0D00000100              or eax, (1 << 16)
  2366 000002FF 898340030000            mov [rbx + 0x0340], eax
  2367 00000305 8B8340030000            mov eax, [rbx + 0x0340]
  2368                                 htg_nopc:
  2369 0000030B 8B4330                  mov eax, [rbx + 0x0030]
  2370 0000030E C1E810                  shr eax, 16
  2371 00000311 3C05                    cmp al, 5
  2372 00000313 7254                    jb htg_notherm
  2373 00000315 7428                    je htg_nocmci
  2374 00000317 8B83F0020000            mov eax, [rbx + 0x02F0]
  2375 0000031D 89C1                    mov ecx, eax
  2376 0000031F 81E100070100            and ecx, ((1 << 16) | ((1 << 8) | (1 << 9) | (1 << 10)))
  2377 00000325 81F900040000            cmp ecx, (1 << 10)
  2378 0000032B 7512                    jne htg_nocmci
  2379 0000032D 83CF10                  or edi, 0x10
  2380 00000330 0D00000100              or eax, (1 << 16)
  2381 00000335 8983F0020000            mov [rbx + 0x02F0], eax
  2382 0000033B 8B83F0020000            mov eax, [rbx + 0x02F0]
  2383                                 htg_nocmci:
  2384 00000341 8B8330030000            mov eax, [rbx + 0x0330]
  2385 00000347 89C1                    mov ecx, eax
  2386 00000349 81E100070100            and ecx, ((1 << 16) | ((1 << 8) | (1 << 9) | (1 << 10)))
  2387 0000034F 81F900040000            cmp ecx, (1 << 10)
  2388 00000355 7512                    jne htg_notherm
  2389 00000357 83CF08                  or edi, 0x08
  2390 0000035A 0D00000100              or eax, (1 << 16)
  2391 0000035F 898330030000            mov [rbx + 0x0330], eax
  2392 00000365 8B8330030000            mov eax, [rbx + 0x0330]
  2393                                 htg_notherm:
  2394 0000036B 4289BC02D80D0000        mov [rdx + r8 + CPUMCPU.fApicDisVectors], edi
  2395 00000373 E9C0000000              jmp htg_apic_done
  2396                                 
  2397                                 
  2398                                 htg_x2apic:
  2399 00000378 4989D7                  mov r15, rdx
  2400 0000037B 31FF                    xor edi, edi
  2401                                 
  2402 0000037D B935080000              mov ecx, 0x800 + (0x0350 >> 4)
  2403 00000382 0F32                    rdmsr
  2404 00000384 89C3                    mov ebx, eax
  2405 00000386 81E300070100            and ebx, ((1 << 16) | ((1 << 8) | (1 << 9) | (1 << 10)))
  2406 0000038C 81FB00040000            cmp ebx, (1 << 10)
  2407 00000392 7508                    jne htg_x2_nolint0
  2408 00000394 83CF01                  or edi, 0x01
  2409 00000397 0D00000100              or eax, (1 << 16)
  2410 0000039C 0F30                    wrmsr
  2411                                 htg_x2_nolint0:
  2412 0000039E B936080000              mov ecx, 0x800 + (0x0360 >> 4)
  2413 000003A3 0F32                    rdmsr
  2414 000003A5 89C3                    mov ebx, eax
  2415 000003A7 81E300070100            and ebx, ((1 << 16) | ((1 << 8) | (1 << 9) | (1 << 10)))
  2416 000003AD 81FB00040000            cmp ebx, (1 << 10)
  2417 000003B3 7508                    jne htg_x2_nolint1
  2418 000003B5 83CF02                  or edi, 0x02
  2419 000003B8 0D00000100              or eax, (1 << 16)
  2420 000003BD 0F30                    wrmsr
  2421                                 htg_x2_nolint1:
  2422 000003BF B934080000              mov ecx, 0x800 + (0x0340 >> 4)
  2423 000003C4 0F32                    rdmsr
  2424 000003C6 89C3                    mov ebx, eax
  2425 000003C8 81E300070100            and ebx, ((1 << 16) | ((1 << 8) | (1 << 9) | (1 << 10)))
  2426 000003CE 81FB00040000            cmp ebx, (1 << 10)
  2427 000003D4 7508                    jne htg_x2_nopc
  2428 000003D6 83CF04                  or edi, 0x04
  2429 000003D9 0D00000100              or eax, (1 << 16)
  2430 000003DE 0F30                    wrmsr
  2431                                 htg_x2_nopc:
  2432 000003E0 B903080000              mov ecx, 0x800 + (0x0030 >> 4)
  2433 000003E5 0F32                    rdmsr
  2434 000003E7 C1E810                  shr eax, 16
  2435 000003EA 3C05                    cmp al, 5
  2436 000003EC 7242                    jb htg_x2_notherm
  2437 000003EE 741F                    je htg_x2_nocmci
  2438 000003F0 B92F080000              mov ecx, 0x800 + (0x02F0 >> 4)
  2439 000003F5 0F32                    rdmsr
  2440 000003F7 89C3                    mov ebx, eax
  2441 000003F9 81E300070100            and ebx, ((1 << 16) | ((1 << 8) | (1 << 9) | (1 << 10)))
  2442 000003FF 81FB00040000            cmp ebx, (1 << 10)
  2443 00000405 7508                    jne htg_x2_nocmci
  2444 00000407 83CF10                  or edi, 0x10
  2445 0000040A 0D00000100              or eax, (1 << 16)
  2446 0000040F 0F30                    wrmsr
  2447                                 htg_x2_nocmci:
  2448 00000411 B933080000              mov ecx, 0x800 + (0x0330 >> 4)
  2449 00000416 0F32                    rdmsr
  2450 00000418 89C3                    mov ebx, eax
  2451 0000041A 81E300070100            and ebx, ((1 << 16) | ((1 << 8) | (1 << 9) | (1 << 10)))
  2452 00000420 81FB00040000            cmp ebx, (1 << 10)
  2453 00000426 7508                    jne htg_x2_notherm
  2454 00000428 83CF08                  or edi, 0x08
  2455 0000042B 0D00000100              or eax, (1 << 16)
  2456 00000430 0F30                    wrmsr
  2457                                 htg_x2_notherm:
  2458 00000432 4C89FA                  mov rdx, r15
  2459 00000435 4289BC02D80D0000        mov [rdx + r8 + CPUMCPU.fApicDisVectors], edi
  2460                                 htg_apic_done:
  2461                                 
  2462                                 %line 470+1 /home/se170/VirtualBox-4.3.28/src/VBox/VMM/VMMSwitcher/AMD64andLegacy.mac
  2463                                 
  2464                                 [section .data]
  2465                                 %line 471+0 /home/se170/VirtualBox-4.3.28/src/VBox/VMM/VMMSwitcher/AMD64andLegacy.mac
  2466 00000000 19                      db 25
  2467 00000001 3D040000                dd ..@82.instruction + 0 - vmmR3SwitcherAMD64ToPAE_Start
  2468 00000005 70040000                dd htg_no_sysenter - vmmR3SwitcherAMD64ToPAE_Start
  2469                                 
  2470                                 [section .text]
  2471                                 ..@82.instruction:
  2472                                 %line 472+1 /home/se170/VirtualBox-4.3.28/src/VBox/VMM/VMMSwitcher/AMD64andLegacy.mac
  2473                                 
  2474 0000043D 4889D3                  mov rbx, rdx
  2475 00000440 B974010000              mov ecx, 0x174
  2476 00000445 0F32                    rdmsr
  2477 00000447 4289840328070000        mov [rbx + r8 + CPUMCPU.Host.SysEnter.cs], eax
  2478 0000044F 428994032C070000        mov [rbx + r8 + CPUMCPU.Host.SysEnter.cs + 4], edx
  2479 00000457 31C0                    xor eax, eax
  2480 00000459 31D2                    xor edx, edx
  2481 0000045B 0F30                    wrmsr
  2482 0000045D 4889DA                  mov rdx, rbx
  2483 00000460 EB0C                    jmp short htg_no_sysenter
  2484                                 
  2485 00000462 CC<rept>               times ($$-$) & ((16)-1) db 0cc
  2486                                 htg_no_sysenter:
  2487                                 
  2488                                 
  2489 00000470 428BB402C00D0000        mov esi, [rdx + r8 + CPUMCPU.fUseFlags]
  2490 00000478 83E6FE                  and esi, ~(1 << 0)
  2491 0000047B 4289B402C00D0000        mov [rdx + r8 + CPUMCPU.fUseFlags], esi
  2492                                 
  2493                                 
  2494 00000483 F7C6A0000000            test esi, (1 << 7) | (1 << 5)
  2495 00000489 7570                    jnz htg_debug_regs_save
  2496                                 htg_debug_regs_no:
  2497                                  
  2498                                 
  2499                                 
  2500 0000048B 0F20C0                  mov rax, cr0
  2501 0000048E 4A898402B8060000        mov [rdx + r8 + CPUMCPU.Host.cr0], rax
  2502                                 
  2503                                 
  2504 00000496 0F20D8                  mov rax, cr3
  2505 00000499 4A898402C0060000        mov [rdx + r8 + CPUMCPU.Host.cr3], rax
  2506 000004A1 0F20E0                  mov rax, cr4
  2507 000004A4 4A898402C8060000        mov [rdx + r8 + CPUMCPU.Host.cr4], rax
  2508                                 
  2509                                 
  2510                                 
  2511                                 
  2512                                 
  2513                                 
  2514                                 
  2515                                 
  2516                                 
  2517                                 
  2518 000004AC 4883E070                and rax, (1 << 6) | (1 << 4) | (1 << 5)
  2519 000004B0 428B8C02B80A0000        mov ecx, [rdx + r8 + CPUMCPU.Guest.cr4]
  2520                                  
  2521                                 
  2522                                 
  2523                                 
  2524                                 
  2525                                 
  2526                                 
  2527                                 
  2528                                 
  2529 000004B8 234A18                  and ecx, [rdx + CPUM.CR4.AndMask]
  2530 000004BB 09C8                    or eax, ecx
  2531 000004BD 0B421C                  or eax, [rdx + CPUM.CR4.OrMask]
  2532 000004C0 0F22E0                  mov cr4, rax
  2533                                  
  2534                                 
  2535 000004C3 428B8402A00A0000        mov eax, [rdx + r8 + CPUMCPU.Guest.cr0]
  2536 000004CB 83E004                  and eax, (1 << 2)
  2537 000004CE 0D3B000080              or eax, (1 << 0) | (1 << 31) | (1 << 3) | (1 << 4) | (1 << 5) | (1 << 1)
  2538 000004D3 0F22C0                  mov cr0, rax
  2539                                  
  2540                                 
  2541                                 
  2542                                 
  2543 000004D6 420F01940286030000      lgdt [rdx + r8 + CPUMCPU.Hyper.gdtr]
  2544                                  
  2545                                 
  2546                                 
  2547 000004DF 428BAC0230030000        mov ebp, [rdx + r8 + CPUMCPU.Hyper.cr3]
  2548                                 
  2549                                 
  2550                                 
  2551                                 
  2552                                 [section .data]
  2553                                 %line 551+0 /home/se170/VirtualBox-4.3.28/src/VBox/VMM/VMMSwitcher/AMD64andLegacy.mac
  2554 00000009 0E                      db 14
  2555 0000000A E8040000                dd ..@88.instruction + 1 - vmmR3SwitcherAMD64ToPAE_Start
  2556                                 
  2557                                 [section .text]
  2558                                 ..@88.instruction:
  2559                                 %line 552+1 /home/se170/VirtualBox-4.3.28/src/VBox/VMM/VMMSwitcher/AMD64andLegacy.mac
  2560 000004E7 B8FFFFFFFF              mov eax, 0ffffffff
  2561 000004EC 0F22D8                  mov cr3, rax
  2562                                  
  2563                                 
  2564                                 
  2565                                 
  2566                                 
  2567 000004EF FF2DFAFFFFFF            jmp far [vmmR3SwitcherAMD64ToPAE_fpIDEnterTarget wrt rip]
  2568                                 
  2569                                 
  2570                                 vmmR3SwitcherAMD64ToPAE_fpIDEnterTarget:
  2571                                 [section .data]
  2572                                 %line 563+0 /home/se170/VirtualBox-4.3.28/src/VBox/VMM/VMMSwitcher/AMD64andLegacy.mac
  2573 0000000E 1F                      db 31
  2574 0000000F F5040000                dd ..@93.instruction + 0 - vmmR3SwitcherAMD64ToPAE_Start
  2575 00000013 70050000                dd vmmR3SwitcherAMD64ToPAE_IDEnterTarget - vmmR3SwitcherAMD64ToPAE_Start
  2576                                 
  2577                                 [section .text]
  2578                                 ..@93.instruction:
  2579                                 %line 564+1 /home/se170/VirtualBox-4.3.28/src/VBox/VMM/VMMSwitcher/AMD64andLegacy.mac
  2580 000004F5 00000000               dd 0
  2581                                 [section .data]
  2582                                 %line 565+0 /home/se170/VirtualBox-4.3.28/src/VBox/VMM/VMMSwitcher/AMD64andLegacy.mac
  2583 00000017 12                      db 18
  2584 00000018 F9040000                dd ..@98.instruction + 0 - vmmR3SwitcherAMD64ToPAE_Start
  2585                                 
  2586                                 [section .text]
  2587                                 ..@98.instruction:
  2588                                 %line 566+1 /home/se170/VirtualBox-4.3.28/src/VBox/VMM/VMMSwitcher/AMD64andLegacy.mac
  2589 000004F9 00000000               dd 0
  2590                                 
  2591                                 
  2592                                 
  2593                                 
  2594                                 
  2595                                 htg_debug_regs_save:
  2596                                  
  2597 000004FD 0F21F8                  mov rax, dr7
  2598 00000500 4A89840200070000        mov [rdx + r8 + CPUMCPU.Host.dr7], rax
  2599 00000508 B900040000              mov ecx, 0x400
  2600 0000050D 39C8                    cmp eax, ecx
  2601 0000050F 7401                    je .htg_debug_regs_dr7_disabled
  2602 00000511 0F23F9                  mov dr7, rcx
  2603                                 .htg_debug_regs_dr7_disabled:
  2604 00000514 0F21F0                  mov rax, dr6
  2605 00000517 4A898402F8060000        mov [rdx + r8 + CPUMCPU.Host.dr6], rax
  2606                                 
  2607 0000051F F7C680000000            test esi, (1 << 7)
  2608 00000525 0F845AFFFFFF            jz htg_debug_regs_no
  2609                                  
  2610 0000052B 0F21C0                  mov rax, dr0
  2611 0000052E 4A898402D8060000        mov [rdx + r8 + CPUMCPU.Host.dr0], rax
  2612 00000536 0F21CB                  mov rbx, dr1
  2613 00000539 4A899C02E0060000        mov [rdx + r8 + CPUMCPU.Host.dr1], rbx
  2614 00000541 0F21D1                  mov rcx, dr2
  2615 00000544 4A898C02E8060000        mov [rdx + r8 + CPUMCPU.Host.dr2], rcx
  2616 0000054C 0F21D8                  mov rax, dr3
  2617 0000054F 4A898402F0060000        mov [rdx + r8 + CPUMCPU.Host.dr3], rax
  2618 00000557 42838C02C00D000040      or dword [rdx + r8 + CPUMCPU.fUseFlags], (1 << 6)
  2619 00000560 E921FFFFFF              jmp htg_debug_regs_no
  2620                                 
  2621                                 
  2622                                 
  2623                                 [bits 32]
  2624 00000565 CC<rept>               times ($$-$) & ((16)-1) db 0cc
  2625                                 [global vmmR3SwitcherAMD64ToPAE_IDEnterTarget]
  2626                                 %line 602+0 /home/se170/VirtualBox-4.3.28/src/VBox/VMM/VMMSwitcher/AMD64andLegacy.mac
  2627                                 vmmR3SwitcherAMD64ToPAE_IDEnterTarget:
  2628                                 %line 603+1 /home/se170/VirtualBox-4.3.28/src/VBox/VMM/VMMSwitcher/AMD64andLegacy.mac
  2629                                  
  2630                                 
  2631                                 
  2632 00000570 0F20C3                  mov ebx, cr0
  2633 00000573 81E3FFFFFF7F            and ebx, ~(1 << 31)
  2634 00000579 0F22C3                  mov cr0, ebx
  2635                                  
  2636                                 
  2637                                 
  2638                                 [section .data]
  2639                                 %line 612+0 /home/se170/VirtualBox-4.3.28/src/VBox/VMM/VMMSwitcher/AMD64andLegacy.mac
  2640 0000001C 0D                      db 13
  2641 0000001D 7D050000                dd ..@107.instruction + 1 - vmmR3SwitcherAMD64ToPAE_Start
  2642                                 
  2643                                 [section .text]
  2644                                 ..@107.instruction:
  2645                                 %line 613+1 /home/se170/VirtualBox-4.3.28/src/VBox/VMM/VMMSwitcher/AMD64andLegacy.mac
  2646 0000057C BAFFFFFFFF              mov edx, 0ffffffff
  2647 00000581 0F22DA                  mov cr3, edx
  2648                                 
  2649                                 
  2650                                 
  2651 00000584 B9800000C0              mov ecx, 0xc0000080
  2652 00000589 0F32                    rdmsr
  2653                                  
  2654 0000058B 25FEBEFFFF              and eax, ~((1 << 8) | (1 << 0) | (1 << 14))
  2655 00000590 0F30                    wrmsr
  2656                                  
  2657                                 
  2658                                 %line 632+1 /home/se170/VirtualBox-4.3.28/src/VBox/VMM/VMMSwitcher/AMD64andLegacy.mac
  2659                                 
  2660                                 
  2661 00000592 81CB00000080            or ebx, (1 << 31)
  2662 00000598 0F22C3                  mov cr0, ebx
  2663 0000059B EBFE                    jmp short just_a_jump
  2664                                 just_a_jump:
  2665                                  
  2666                                 
  2667                                 
  2668                                 
  2669                                 
  2670                                 [section .data]
  2671                                 %line 643+0 /home/se170/VirtualBox-4.3.28/src/VBox/VMM/VMMSwitcher/AMD64andLegacy.mac
  2672 00000021 06                      db 6
  2673 00000022 9E050000                dd ..@112.instruction + 1 - vmmR3SwitcherAMD64ToPAE_Start
  2674 00000026 B0050000                dd vmmR3SwitcherAMD64ToPAE_JmpGCTarget - vmmR3SwitcherAMD64ToPAE_Start
  2675                                 
  2676                                 [section .text]
  2677                                 ..@112.instruction:
  2678                                 %line 644+1 /home/se170/VirtualBox-4.3.28/src/VBox/VMM/VMMSwitcher/AMD64andLegacy.mac
  2679 0000059D E909000000              jmp near vmmR3SwitcherAMD64ToPAE_JmpGCTarget
  2680                                 
  2681                                 
  2682                                 
  2683                                 
  2684                                 
  2685                                 
  2686 000005A2 CC<rept>               times ($$-$) & ((16)-1) db 0cc
  2687                                 [global vmmR3SwitcherAMD64ToPAE_JmpGCTarget]
  2688                                 %line 652+0 /home/se170/VirtualBox-4.3.28/src/VBox/VMM/VMMSwitcher/AMD64andLegacy.mac
  2689                                 vmmR3SwitcherAMD64ToPAE_JmpGCTarget:
  2690                                 %line 653+1 /home/se170/VirtualBox-4.3.28/src/VBox/VMM/VMMSwitcher/AMD64andLegacy.mac
  2691                                  
  2692                                 
  2693 000005B0 0F22DD                  mov cr3, ebp
  2694                                  
  2695                                 
  2696                                 
  2697                                 
  2698                                 
  2699                                 
  2700                                 
  2701                                  
  2702                                 [section .data]
  2703                                 %line 664+0 /home/se170/VirtualBox-4.3.28/src/VBox/VMM/VMMSwitcher/AMD64andLegacy.mac
  2704 0000002A 13                      db 19
  2705 0000002B B4050000                dd ..@120.instruction + 1 - vmmR3SwitcherAMD64ToPAE_Start
  2706                                 
  2707                                 [section .text]
  2708                                 ..@120.instruction:
  2709                                 %line 665+1 /home/se170/VirtualBox-4.3.28/src/VBox/VMM/VMMSwitcher/AMD64andLegacy.mac
  2710 000005B3 B8FFFF0000              mov eax, 0ffff
  2711 000005B8 8ED8                    mov ds, eax
  2712 000005BA 8EC0                    mov es, eax
  2713 000005BC 31C0                    xor eax, eax
  2714 000005BE 8EE8                    mov gs, eax
  2715 000005C0 8EE0                    mov fs, eax
  2716                                 
  2717                                 [section .data]
  2718                                 %line 672+0 /home/se170/VirtualBox-4.3.28/src/VBox/VMM/VMMSwitcher/AMD64andLegacy.mac
  2719 0000002F 25                      db 37
  2720 00000030 C3050000                dd ..@125.instruction + 1 - vmmR3SwitcherAMD64ToPAE_Start
  2721 00000034 00000000                dd 0
  2722                                 
  2723                                 [section .text]
  2724                                 ..@125.instruction:
  2725                                 %line 673+1 /home/se170/VirtualBox-4.3.28/src/VBox/VMM/VMMSwitcher/AMD64andLegacy.mac
  2726 000005C2 BAFFFFFFFF              mov edx, 0ffffffff
  2727                                 
  2728                                  
  2729 000005C7 0F019A96030000          lidt [edx + CPUMCPU.Hyper.idtr]
  2730                                 
  2731                                 
  2732                                  
  2733 000005CE 668B82B0020000          mov ax, [edx + CPUMCPU.Hyper.ss.Sel]
  2734 000005D5 8ED0                    mov ss, ax
  2735 000005D7 8BA220020000            mov esp, [edx + CPUMCPU.Hyper.esp]
  2736                                 
  2737                                 
  2738                                  
  2739                                 [section .data]
  2740                                 %line 686+0 /home/se170/VirtualBox-4.3.28/src/VBox/VMM/VMMSwitcher/AMD64andLegacy.mac
  2741 00000038 15                      db 21
  2742 00000039 DF050000                dd ..@130.instruction + 2 - vmmR3SwitcherAMD64ToPAE_Start
  2743                                 
  2744                                 [section .text]
  2745                                 ..@130.instruction:
  2746                                 %line 687+1 /home/se170/VirtualBox-4.3.28/src/VBox/VMM/VMMSwitcher/AMD64andLegacy.mac
  2747 000005DD 8125FFFFFFFFFFFDFF-     and dword [0ffffffff
  2748 000005DD FF                 
  2749                                  
  2750 000005E7 0F009AB8030000          ltr word [edx + CPUMCPU.Hyper.tr.Sel]
  2751                                  
  2752                                 
  2753                                 
  2754 000005EE 0F0092A0030000          lldt [edx + CPUMCPU.Hyper.ldtr.Sel]
  2755                                  
  2756                                 
  2757                                 
  2758 000005F5 8BB2C00D0000            mov esi, [edx + CPUMCPU.fUseFlags]
  2759                                 
  2760                                 
  2761 000005FB F7C680000000            test esi, (1 << 7)
  2762 00000601 0F859B000000            jnz htg_debug_regs_guest
  2763                                 htg_debug_regs_guest_done:
  2764                                  
  2765                                 
  2766                                 
  2767 00000607 8B8200020000            mov eax, [edx + CPUMCPU.Hyper.eax]
  2768 0000060D 8B9A18020000            mov ebx, [edx + CPUMCPU.Hyper.ebx]
  2769 00000613 8B8A08020000            mov ecx, [edx + CPUMCPU.Hyper.ecx]
  2770 00000619 8BAA28020000            mov ebp, [edx + CPUMCPU.Hyper.ebp]
  2771 0000061F 8BB230020000            mov esi, [edx + CPUMCPU.Hyper.esi]
  2772 00000625 8BBA38020000            mov edi, [edx + CPUMCPU.Hyper.edi]
  2773                                  
  2774                                 
  2775                                 
  2776                                 
  2777                                 
  2778                                 
  2779 0000062B FFB218030000            push dword [edx + CPUMCPU.Hyper.eflags]
  2780 00000631 0E                      push cs
  2781 00000632 FFB210030000            push dword [edx + CPUMCPU.Hyper.eip]
  2782 00000638 8B9210020000            mov edx, [edx + CPUMCPU.Hyper.edx]
  2783                                 
  2784                                 %line 732+1 /home/se170/VirtualBox-4.3.28/src/VBox/VMM/VMMSwitcher/AMD64andLegacy.mac
  2785 0000063E 50                      push eax
  2786                                 [section .data]
  2787                                 %line 733+0 /home/se170/VirtualBox-4.3.28/src/VBox/VMM/VMMSwitcher/AMD64andLegacy.mac
  2788 0000003D 09                      db 9
  2789 0000003E 40060000                dd ..@135.instruction + 1 - vmmR3SwitcherAMD64ToPAE_Start
  2790 00000042 10010000                dd VM.StatSwitcherToGC
  2791                                 
  2792                                 [section .text]
  2793                                 ..@135.instruction:
  2794                                 %line 734+1 /home/se170/VirtualBox-4.3.28/src/VBox/VMM/VMMSwitcher/AMD64andLegacy.mac
  2795 0000063F B8FFFFFFFF              mov eax, 0ffffffff
  2796 00000644 51                      push ecx
  2797                                 %line 735+0 /home/se170/VirtualBox-4.3.28/src/VBox/VMM/VMMSwitcher/AMD64andLegacy.mac
  2798 00000645 89C1                    mov ecx, eax
  2799 00000647 8D4920                  lea ecx, [ecx + STAMPROFILEADV.tsStart]
  2800 0000064A 833900                  cmp dword [ecx], byte 0
  2801 0000064D 7504                    jnz short ..@140.doit
  2802 0000064F 83790400                cmp dword [ecx + 4], byte 0
  2803 00000653 7441                    jz short ..@140.dont
  2804                                 ..@140.doit:
  2805 00000655 53                      push ebx
  2806 00000656 89C3                    mov ebx, eax
  2807 00000658 50                      push eax
  2808 00000659 52                      push edx
  2809                                 
  2810                                 
  2811 0000065A 51                      push ecx
  2812 0000065B 89C9                    mov ecx, ecx
  2813 0000065D 0F31                    rdtsc
  2814 0000065F 2B01                    sub eax, [ecx]
  2815 00000661 1B5104                  sbb edx, [ecx + 4]
  2816 00000664 59                      pop ecx
  2817                                 
  2818                                 
  2819 00000665 014308                  add [ebx + STAMPROFILE.cTicks], eax
  2820 00000668 11530C                  adc [ebx + STAMPROFILE.cTicks + 4], edx
  2821                                 
  2822 0000066B FF03                    inc dword [ebx + STAMPROFILE.cPeriods]
  2823 0000066D 83530400                adc dword [ebx + STAMPROFILE.cPeriods + 4], byte 0
  2824                                 
  2825                                 
  2826 00000671 3B5314                  cmp edx, [ebx + STAMPROFILE.cTicksMax + 4]
  2827 00000674 720B                    jb short ..@141.not_update_max
  2828 00000676 7703                    ja short ..@141.update_max
  2829 00000678 3B4310                  cmp eax, [ebx + STAMPROFILE.cTicksMax]
  2830 0000067B 7604                    jbe short ..@141.not_update_max
  2831                                 ..@141.update_max:
  2832 0000067D 894310                  mov [ebx + STAMPROFILE.cTicksMax], eax
  2833 00000680 895314                  mov [ebx + STAMPROFILE.cTicksMax + 4], edx
  2834                                 ..@141.not_update_max:
  2835                                 
  2836                                 
  2837 00000683 3B531C                  cmp edx, [ebx + STAMPROFILE.cTicksMin + 4]
  2838 00000686 770B                    ja short ..@141.not_update_min
  2839 00000688 7203                    jb short ..@141.update_min
  2840 0000068A 3B4318                  cmp eax, [ebx + STAMPROFILE.cTicksMin]
  2841 0000068D 7304                    jae short ..@141.not_update_min
  2842                                 ..@141.update_min:
  2843 0000068F 894318                  mov [ebx + STAMPROFILE.cTicksMin], eax
  2844 00000692 89531C                  mov [ebx + STAMPROFILE.cTicksMin + 4], edx
  2845                                 ..@141.not_update_min:
  2846                                 
  2847 00000695 5A                      pop edx
  2848 00000696 58                      pop eax
  2849 00000697 5B                      pop ebx
  2850                                 ..@140.dont:
  2851 00000698 C70100000000            mov dword [ecx], 0
  2852 0000069E C7410400000000          mov dword [ecx + 4], 0
  2853 000006A5 59                      pop ecx
  2854                                 %line 736+1 /home/se170/VirtualBox-4.3.28/src/VBox/VMM/VMMSwitcher/AMD64andLegacy.mac
  2855 000006A6 58                      pop eax
  2856                                 %line 738+1 /home/se170/VirtualBox-4.3.28/src/VBox/VMM/VMMSwitcher/AMD64andLegacy.mac
  2857                                 
  2858 000006A7 CF                      iret
  2859                                 
  2860                                 
  2861                                 
  2862                                 
  2863                                 htg_debug_regs_guest:
  2864                                  
  2865                                  
  2866                                  
  2867                                 
  2868 000006A8 8B9A40030000            mov ebx, [edx + CPUMCPU.Hyper.dr]
  2869 000006AE 0F23C3                  mov dr0, ebx
  2870 000006B1 8B8A48030000            mov ecx, [edx + CPUMCPU.Hyper.dr + 8*1]
  2871 000006B7 0F23C9                  mov dr1, ecx
  2872 000006BA 8B8250030000            mov eax, [edx + CPUMCPU.Hyper.dr + 8*2]
  2873 000006C0 0F23D0                  mov dr2, eax
  2874 000006C3 8B9A58030000            mov ebx, [edx + CPUMCPU.Hyper.dr + 8*3]
  2875 000006C9 0F23DB                  mov dr3, ebx
  2876 000006CC B9F00FFFFF              mov ecx, 0xFFFF0FF0
  2877 000006D1 0F23F1                  mov dr6, ecx
  2878 000006D4 8B8278030000            mov eax, [edx + CPUMCPU.Hyper.dr + 8*7]
  2879 000006DA 0F23F8                  mov dr7, eax
  2880 000006DD 818AC00D0000000100-     or dword [edx + CPUMCPU.fUseFlags], (1 << 8)
  2881 000006DD 00                 
  2882 000006E7 E916FFFFFF              jmp htg_debug_regs_guest_done
  2883                                 
  2884                                 [global vmmR3SwitcherAMD64ToPAE_vmmR0ToRawModeAsm_EndProc:function hidden]
  2885                                 %line 764+0 /home/se170/VirtualBox-4.3.28/src/VBox/VMM/VMMSwitcher/AMD64andLegacy.mac
  2886                                 vmmR3SwitcherAMD64ToPAE_vmmR0ToRawModeAsm_EndProc:
  2887                                 [size vmmR3SwitcherAMD64ToPAE_vmmR0ToRawModeAsm vmmR3SwitcherAMD64ToPAE_vmmR0ToRawModeAsm_EndProc - vmmR3SwitcherAMD64ToPAE_vmmR0ToRawModeAsm]
  2888                                 [size vmmR3SwitcherAMD64ToPAE_vmmR0ToRawModeAsm_EndProc 0]
  2889 000006EC CCCCCCCC                db 0xCC, 0xCC, 0xCC, 0xCC
  2890                                 %line 765+1 /home/se170/VirtualBox-4.3.28/src/VBox/VMM/VMMSwitcher/AMD64andLegacy.mac
  2891                                 
  2892                                 
  2893                                 
  2894                                 
  2895                                 
  2896                                 
  2897                                 
  2898                                 
  2899                                 
  2900                                 
  2901                                 
  2902                                 [global vmmR3SwitcherAMD64ToPAE_vmmRCCallTrampoline:function hidden]
  2903                                 %line 777+0 /home/se170/VirtualBox-4.3.28/src/VBox/VMM/VMMSwitcher/AMD64andLegacy.mac
  2904                                 vmmR3SwitcherAMD64ToPAE_vmmRCCallTrampoline:
  2905                                 %line 783+1 /home/se170/VirtualBox-4.3.28/src/VBox/VMM/VMMSwitcher/AMD64andLegacy.mac
  2906                                 
  2907                                 
  2908 000006F0 58                      pop eax
  2909 000006F1 5F                      pop edi
  2910                                 %line 792+1 /home/se170/VirtualBox-4.3.28/src/VBox/VMM/VMMSwitcher/AMD64andLegacy.mac
  2911 000006F2 FFD0                    call eax
  2912 000006F4 01FC                    add esp, edi
  2913                                 
  2914                                 
  2915                                 %line 799+1 /home/se170/VirtualBox-4.3.28/src/VBox/VMM/VMMSwitcher/AMD64andLegacy.mac
  2916                                 .to_host_again:
  2917 000006F6 E8D0000000              call vmmR3SwitcherAMD64ToPAE_vmmRCToHostAsm
  2918 000006FB B867F5FFFF              mov eax, (-2713)
  2919 00000700 EBF2                    jmp .to_host_again
  2920                                 [global vmmR3SwitcherAMD64ToPAE_vmmRCCallTrampoline_EndProc:function hidden]
  2921                                 %line 803+0 /home/se170/VirtualBox-4.3.28/src/VBox/VMM/VMMSwitcher/AMD64andLegacy.mac
  2922                                 vmmR3SwitcherAMD64ToPAE_vmmRCCallTrampoline_EndProc:
  2923                                 [size vmmR3SwitcherAMD64ToPAE_vmmRCCallTrampoline vmmR3SwitcherAMD64ToPAE_vmmRCCallTrampoline_EndProc - vmmR3SwitcherAMD64ToPAE_vmmRCCallTrampoline]
  2924                                 [size vmmR3SwitcherAMD64ToPAE_vmmRCCallTrampoline_EndProc 0]
  2925 00000702 CCCCCCCC                db 0xCC, 0xCC, 0xCC, 0xCC
  2926                                 %line 804+1 /home/se170/VirtualBox-4.3.28/src/VBox/VMM/VMMSwitcher/AMD64andLegacy.mac
  2927                                 
  2928                                 
  2929                                 
  2930                                 
  2931                                 
  2932                                 
  2933 00000706 CC<rept>               times ($$-$) & ((16)-1) db 0cc
  2934                                 [global vmmR3SwitcherAMD64ToPAE_vmmRCToHost:function hidden]
  2935                                 %line 811+0 /home/se170/VirtualBox-4.3.28/src/VBox/VMM/VMMSwitcher/AMD64andLegacy.mac
  2936                                 vmmR3SwitcherAMD64ToPAE_vmmRCToHost:
  2937                                 %line 823+1 /home/se170/VirtualBox-4.3.28/src/VBox/VMM/VMMSwitcher/AMD64andLegacy.mac
  2938 00000710 8B442404                mov eax, [esp + 4]
  2939 00000714 E9B2000000              jmp vmmR3SwitcherAMD64ToPAE_vmmRCToHostAsm
  2940                                 [global vmmR3SwitcherAMD64ToPAE_vmmRCToHost_EndProc:function hidden]
  2941                                 %line 825+0 /home/se170/VirtualBox-4.3.28/src/VBox/VMM/VMMSwitcher/AMD64andLegacy.mac
  2942                                 vmmR3SwitcherAMD64ToPAE_vmmRCToHost_EndProc:
  2943                                 [size vmmR3SwitcherAMD64ToPAE_vmmRCToHost vmmR3SwitcherAMD64ToPAE_vmmRCToHost_EndProc - vmmR3SwitcherAMD64ToPAE_vmmRCToHost]
  2944                                 [size vmmR3SwitcherAMD64ToPAE_vmmRCToHost_EndProc 0]
  2945 00000719 CCCCCCCC                db 0xCC, 0xCC, 0xCC, 0xCC
  2946                                 %line 826+1 /home/se170/VirtualBox-4.3.28/src/VBox/VMM/VMMSwitcher/AMD64andLegacy.mac
  2947                                 
  2948                                 
  2949                                 
  2950                                 
  2951                                 
  2952                                 
  2953                                 
  2954                                 
  2955                                 
  2956                                 
  2957                                 
  2958 0000071D CC<rept>               times ($$-$) & ((16)-1) db 0cc
  2959                                 [global vmmR3SwitcherAMD64ToPAE_vmmRCToHostAsmNoReturn:function hidden]
  2960                                 %line 838+0 /home/se170/VirtualBox-4.3.28/src/VBox/VMM/VMMSwitcher/AMD64andLegacy.mac
  2961                                 vmmR3SwitcherAMD64ToPAE_vmmRCToHostAsmNoReturn:
  2962                                 %line 839+1 /home/se170/VirtualBox-4.3.28/src/VBox/VMM/VMMSwitcher/AMD64andLegacy.mac
  2963                                  
  2964                                 
  2965                                 %line 842+1 /home/se170/VirtualBox-4.3.28/src/VBox/VMM/VMMSwitcher/AMD64andLegacy.mac
  2966                                 [section .data]
  2967                                 %line 842+0 /home/se170/VirtualBox-4.3.28/src/VBox/VMM/VMMSwitcher/AMD64andLegacy.mac
  2968 00000046 09                      db 9
  2969 00000047 21070000                dd ..@169.instruction + 1 - vmmR3SwitcherAMD64ToPAE_Start
  2970 0000004B C0000000                dd VM.StatTotalInGC
  2971                                 
  2972                                 [section .text]
  2973                                 ..@169.instruction:
  2974                                 %line 843+1 /home/se170/VirtualBox-4.3.28/src/VBox/VMM/VMMSwitcher/AMD64andLegacy.mac
  2975 00000720 BAFFFFFFFF              mov edx, 0ffffffff
  2976 00000725 51                      push ecx
  2977                                 %line 844+0 /home/se170/VirtualBox-4.3.28/src/VBox/VMM/VMMSwitcher/AMD64andLegacy.mac
  2978 00000726 89D1                    mov ecx, edx
  2979 00000728 8D4920                  lea ecx, [ecx + STAMPROFILEADV.tsStart]
  2980 0000072B 833900                  cmp dword [ecx], byte 0
  2981 0000072E 7504                    jnz short ..@174.doit
  2982 00000730 83790400                cmp dword [ecx + 4], byte 0
  2983 00000734 7441                    jz short ..@174.dont
  2984                                 ..@174.doit:
  2985 00000736 53                      push ebx
  2986 00000737 89D3                    mov ebx, edx
  2987 00000739 50                      push eax
  2988 0000073A 52                      push edx
  2989                                 
  2990                                 
  2991 0000073B 51                      push ecx
  2992 0000073C 89C9                    mov ecx, ecx
  2993 0000073E 0F31                    rdtsc
  2994 00000740 2B01                    sub eax, [ecx]
  2995 00000742 1B5104                  sbb edx, [ecx + 4]
  2996 00000745 59                      pop ecx
  2997                                 
  2998                                 
  2999 00000746 014308                  add [ebx + STAMPROFILE.cTicks], eax
  3000 00000749 11530C                  adc [ebx + STAMPROFILE.cTicks + 4], edx
  3001                                 
  3002 0000074C FF03                    inc dword [ebx + STAMPROFILE.cPeriods]
  3003 0000074E 83530400                adc dword [ebx + STAMPROFILE.cPeriods + 4], byte 0
  3004                                 
  3005                                 
  3006 00000752 3B5314                  cmp edx, [ebx + STAMPROFILE.cTicksMax + 4]
  3007 00000755 720B                    jb short ..@175.not_update_max
  3008 00000757 7703                    ja short ..@175.update_max
  3009 00000759 3B4310                  cmp eax, [ebx + STAMPROFILE.cTicksMax]
  3010 0000075C 7604                    jbe short ..@175.not_update_max
  3011                                 ..@175.update_max:
  3012 0000075E 894310                  mov [ebx + STAMPROFILE.cTicksMax], eax
  3013 00000761 895314                  mov [ebx + STAMPROFILE.cTicksMax + 4], edx
  3014                                 ..@175.not_update_max:
  3015                                 
  3016                                 
  3017 00000764 3B531C                  cmp edx, [ebx + STAMPROFILE.cTicksMin + 4]
  3018 00000767 770B                    ja short ..@175.not_update_min
  3019 00000769 7203                    jb short ..@175.update_min
  3020 0000076B 3B4318                  cmp eax, [ebx + STAMPROFILE.cTicksMin]
  3021 0000076E 7304                    jae short ..@175.not_update_min
  3022                                 ..@175.update_min:
  3023 00000770 894318                  mov [ebx + STAMPROFILE.cTicksMin], eax
  3024 00000773 89531C                  mov [ebx + STAMPROFILE.cTicksMin + 4], edx
  3025                                 ..@175.not_update_min:
  3026                                 
  3027 00000776 5A                      pop edx
  3028 00000777 58                      pop eax
  3029 00000778 5B                      pop ebx
  3030                                 ..@174.dont:
  3031 00000779 C70100000000            mov dword [ecx], 0
  3032 0000077F C7410400000000          mov dword [ecx + 4], 0
  3033 00000786 59                      pop ecx
  3034                                 %line 845+1 /home/se170/VirtualBox-4.3.28/src/VBox/VMM/VMMSwitcher/AMD64andLegacy.mac
  3035                                 
  3036                                 [section .data]
  3037                                 %line 846+0 /home/se170/VirtualBox-4.3.28/src/VBox/VMM/VMMSwitcher/AMD64andLegacy.mac
  3038 0000004F 09                      db 9
  3039 00000050 88070000                dd ..@176.instruction + 1 - vmmR3SwitcherAMD64ToPAE_Start
  3040 00000054 98000000                dd VM.StatTotalGCToQemu
  3041                                 
  3042                                 [section .text]
  3043                                 ..@176.instruction:
  3044                                 %line 847+1 /home/se170/VirtualBox-4.3.28/src/VBox/VMM/VMMSwitcher/AMD64andLegacy.mac
  3045 00000787 BAFFFFFFFF              mov edx, 0ffffffff
  3046 0000078C 51                      push ecx
  3047                                 %line 848+0 /home/se170/VirtualBox-4.3.28/src/VBox/VMM/VMMSwitcher/AMD64andLegacy.mac
  3048 0000078D 89D1                    mov ecx, edx
  3049 0000078F 8D4920                  lea ecx, [ecx + STAMPROFILEADV.tsStart]
  3050 00000792 53                      push ebx
  3051 00000793 89CB                    mov ebx, ecx
  3052 00000795 50                      push eax
  3053 00000796 52                      push edx
  3054                                 
  3055 00000797 0F31                    rdtsc
  3056 00000799 8903                    mov [ebx], eax
  3057 0000079B 895304                  mov [ebx + 4], edx
  3058                                 
  3059 0000079E 5A                      pop edx
  3060 0000079F 58                      pop eax
  3061 000007A0 5B                      pop ebx
  3062 000007A1 59                      pop ecx
  3063                                 %line 849+1 /home/se170/VirtualBox-4.3.28/src/VBox/VMM/VMMSwitcher/AMD64andLegacy.mac
  3064                                 
  3065                                 [section .data]
  3066                                 %line 850+0 /home/se170/VirtualBox-4.3.28/src/VBox/VMM/VMMSwitcher/AMD64andLegacy.mac
  3067 00000058 09                      db 9
  3068 00000059 A3070000                dd ..@183.instruction + 1 - vmmR3SwitcherAMD64ToPAE_Start
  3069 0000005D 38010000                dd VM.StatSwitcherToHC
  3070                                 
  3071                                 [section .text]
  3072                                 ..@183.instruction:
  3073                                 %line 851+1 /home/se170/VirtualBox-4.3.28/src/VBox/VMM/VMMSwitcher/AMD64andLegacy.mac
  3074 000007A2 BAFFFFFFFF              mov edx, 0ffffffff
  3075 000007A7 51                      push ecx
  3076                                 %line 852+0 /home/se170/VirtualBox-4.3.28/src/VBox/VMM/VMMSwitcher/AMD64andLegacy.mac
  3077 000007A8 89D1                    mov ecx, edx
  3078 000007AA 8D4920                  lea ecx, [ecx + STAMPROFILEADV.tsStart]
  3079 000007AD 53                      push ebx
  3080 000007AE 89CB                    mov ebx, ecx
  3081 000007B0 50                      push eax
  3082 000007B1 52                      push edx
  3083                                 
  3084 000007B2 0F31                    rdtsc
  3085 000007B4 8903                    mov [ebx], eax
  3086 000007B6 895304                  mov [ebx + 4], edx
  3087                                 
  3088 000007B9 5A                      pop edx
  3089 000007BA 58                      pop eax
  3090 000007BB 5B                      pop ebx
  3091 000007BC 59                      pop ecx
  3092                                 %line 854+1 /home/se170/VirtualBox-4.3.28/src/VBox/VMM/VMMSwitcher/AMD64andLegacy.mac
  3093                                 
  3094                                 [section .data]
  3095                                 %line 855+0 /home/se170/VirtualBox-4.3.28/src/VBox/VMM/VMMSwitcher/AMD64andLegacy.mac
  3096 00000061 25                      db 37
  3097 00000062 BE070000                dd ..@190.instruction + 1 - vmmR3SwitcherAMD64ToPAE_Start
  3098 00000066 00000000                dd 0
  3099                                 
  3100                                 [section .text]
  3101                                 ..@190.instruction:
  3102                                 %line 856+1 /home/se170/VirtualBox-4.3.28/src/VBox/VMM/VMMSwitcher/AMD64andLegacy.mac
  3103 000007BD BAFFFFFFFF              mov edx, 0ffffffff
  3104                                 
  3105 000007C2 E9DD000000              jmp vmmRCToHostAsm_SaveNoGeneralRegs
  3106                                 [global vmmR3SwitcherAMD64ToPAE_vmmRCToHostAsmNoReturn_EndProc:function hidden]
  3107                                 %line 859+0 /home/se170/VirtualBox-4.3.28/src/VBox/VMM/VMMSwitcher/AMD64andLegacy.mac
  3108                                 vmmR3SwitcherAMD64ToPAE_vmmRCToHostAsmNoReturn_EndProc:
  3109                                 [size vmmR3SwitcherAMD64ToPAE_vmmRCToHostAsmNoReturn vmmR3SwitcherAMD64ToPAE_vmmRCToHostAsmNoReturn_EndProc - vmmR3SwitcherAMD64ToPAE_vmmRCToHostAsmNoReturn]
  3110                                 [size vmmR3SwitcherAMD64ToPAE_vmmRCToHostAsmNoReturn_EndProc 0]
  3111 000007C7 CCCCCCCC                db 0xCC, 0xCC, 0xCC, 0xCC
  3112                                 %line 860+1 /home/se170/VirtualBox-4.3.28/src/VBox/VMM/VMMSwitcher/AMD64andLegacy.mac
  3113                                 
  3114                                 
  3115                                 
  3116                                 
  3117                                 
  3118                                 
  3119                                 
  3120                                 
  3121                                 
  3122                                 
  3123                                 
  3124                                 
  3125                                 
  3126                                 
  3127                                 
  3128 000007CB CC<rept>               times ($$-$) & ((16)-1) db 0cc
  3129                                 [global vmmR3SwitcherAMD64ToPAE_vmmRCToHostAsm:function hidden]
  3130                                 %line 876+0 /home/se170/VirtualBox-4.3.28/src/VBox/VMM/VMMSwitcher/AMD64andLegacy.mac
  3131                                 vmmR3SwitcherAMD64ToPAE_vmmRCToHostAsm:
  3132                                 %line 877+1 /home/se170/VirtualBox-4.3.28/src/VBox/VMM/VMMSwitcher/AMD64andLegacy.mac
  3133                                  
  3134 000007D0 52                      push edx
  3135                                 
  3136                                 %line 881+1 /home/se170/VirtualBox-4.3.28/src/VBox/VMM/VMMSwitcher/AMD64andLegacy.mac
  3137                                 [section .data]
  3138                                 %line 881+0 /home/se170/VirtualBox-4.3.28/src/VBox/VMM/VMMSwitcher/AMD64andLegacy.mac
  3139 0000006A 09                      db 9
  3140 0000006B D2070000                dd ..@204.instruction + 1 - vmmR3SwitcherAMD64ToPAE_Start
  3141 0000006F C0000000                dd VM.StatTotalInGC
  3142                                 
  3143                                 [section .text]
  3144                                 ..@204.instruction:
  3145                                 %line 882+1 /home/se170/VirtualBox-4.3.28/src/VBox/VMM/VMMSwitcher/AMD64andLegacy.mac
  3146 000007D1 BAFFFFFFFF              mov edx, 0ffffffff
  3147 000007D6 51                      push ecx
  3148                                 %line 883+0 /home/se170/VirtualBox-4.3.28/src/VBox/VMM/VMMSwitcher/AMD64andLegacy.mac
  3149 000007D7 89D1                    mov ecx, edx
  3150 000007D9 8D4920                  lea ecx, [ecx + STAMPROFILEADV.tsStart]
  3151 000007DC 833900                  cmp dword [ecx], byte 0
  3152 000007DF 7504                    jnz short ..@209.doit
  3153 000007E1 83790400                cmp dword [ecx + 4], byte 0
  3154 000007E5 7441                    jz short ..@209.dont
  3155                                 ..@209.doit:
  3156 000007E7 53                      push ebx
  3157 000007E8 89D3                    mov ebx, edx
  3158 000007EA 50                      push eax
  3159 000007EB 52                      push edx
  3160                                 
  3161                                 
  3162 000007EC 51                      push ecx
  3163 000007ED 89C9                    mov ecx, ecx
  3164 000007EF 0F31                    rdtsc
  3165 000007F1 2B01                    sub eax, [ecx]
  3166 000007F3 1B5104                  sbb edx, [ecx + 4]
  3167 000007F6 59                      pop ecx
  3168                                 
  3169                                 
  3170 000007F7 014308                  add [ebx + STAMPROFILE.cTicks], eax
  3171 000007FA 11530C                  adc [ebx + STAMPROFILE.cTicks + 4], edx
  3172                                 
  3173 000007FD FF03                    inc dword [ebx + STAMPROFILE.cPeriods]
  3174 000007FF 83530400                adc dword [ebx + STAMPROFILE.cPeriods + 4], byte 0
  3175                                 
  3176                                 
  3177 00000803 3B5314                  cmp edx, [ebx + STAMPROFILE.cTicksMax + 4]
  3178 00000806 720B                    jb short ..@210.not_update_max
  3179 00000808 7703                    ja short ..@210.update_max
  3180 0000080A 3B4310                  cmp eax, [ebx + STAMPROFILE.cTicksMax]
  3181 0000080D 7604                    jbe short ..@210.not_update_max
  3182                                 ..@210.update_max:
  3183 0000080F 894310                  mov [ebx + STAMPROFILE.cTicksMax], eax
  3184 00000812 895314                  mov [ebx + STAMPROFILE.cTicksMax + 4], edx
  3185                                 ..@210.not_update_max:
  3186                                 
  3187                                 
  3188 00000815 3B531C                  cmp edx, [ebx + STAMPROFILE.cTicksMin + 4]
  3189 00000818 770B                    ja short ..@210.not_update_min
  3190 0000081A 7203                    jb short ..@210.update_min
  3191 0000081C 3B4318                  cmp eax, [ebx + STAMPROFILE.cTicksMin]
  3192 0000081F 7304                    jae short ..@210.not_update_min
  3193                                 ..@210.update_min:
  3194 00000821 894318                  mov [ebx + STAMPROFILE.cTicksMin], eax
  3195 00000824 89531C                  mov [ebx + STAMPROFILE.cTicksMin + 4], edx
  3196                                 ..@210.not_update_min:
  3197                                 
  3198 00000827 5A                      pop edx
  3199 00000828 58                      pop eax
  3200 00000829 5B                      pop ebx
  3201                                 ..@209.dont:
  3202 0000082A C70100000000            mov dword [ecx], 0
  3203 00000830 C7410400000000          mov dword [ecx + 4], 0
  3204 00000837 59                      pop ecx
  3205                                 %line 884+1 /home/se170/VirtualBox-4.3.28/src/VBox/VMM/VMMSwitcher/AMD64andLegacy.mac
  3206                                 
  3207                                 [section .data]
  3208                                 %line 885+0 /home/se170/VirtualBox-4.3.28/src/VBox/VMM/VMMSwitcher/AMD64andLegacy.mac
  3209 00000073 09                      db 9
  3210 00000074 39080000                dd ..@211.instruction + 1 - vmmR3SwitcherAMD64ToPAE_Start
  3211 00000078 98000000                dd VM.StatTotalGCToQemu
  3212                                 
  3213                                 [section .text]
  3214                                 ..@211.instruction:
  3215                                 %line 886+1 /home/se170/VirtualBox-4.3.28/src/VBox/VMM/VMMSwitcher/AMD64andLegacy.mac
  3216 00000838 BAFFFFFFFF              mov edx, 0ffffffff
  3217 0000083D 51                      push ecx
  3218                                 %line 887+0 /home/se170/VirtualBox-4.3.28/src/VBox/VMM/VMMSwitcher/AMD64andLegacy.mac
  3219 0000083E 89D1                    mov ecx, edx
  3220 00000840 8D4920                  lea ecx, [ecx + STAMPROFILEADV.tsStart]
  3221 00000843 53                      push ebx
  3222 00000844 89CB                    mov ebx, ecx
  3223 00000846 50                      push eax
  3224 00000847 52                      push edx
  3225                                 
  3226 00000848 0F31                    rdtsc
  3227 0000084A 8903                    mov [ebx], eax
  3228 0000084C 895304                  mov [ebx + 4], edx
  3229                                 
  3230 0000084F 5A                      pop edx
  3231 00000850 58                      pop eax
  3232 00000851 5B                      pop ebx
  3233 00000852 59                      pop ecx
  3234                                 %line 888+1 /home/se170/VirtualBox-4.3.28/src/VBox/VMM/VMMSwitcher/AMD64andLegacy.mac
  3235                                 
  3236                                 [section .data]
  3237                                 %line 889+0 /home/se170/VirtualBox-4.3.28/src/VBox/VMM/VMMSwitcher/AMD64andLegacy.mac
  3238 0000007C 09                      db 9
  3239 0000007D 54080000                dd ..@218.instruction + 1 - vmmR3SwitcherAMD64ToPAE_Start
  3240 00000081 38010000                dd VM.StatSwitcherToHC
  3241                                 
  3242                                 [section .text]
  3243                                 ..@218.instruction:
  3244                                 %line 890+1 /home/se170/VirtualBox-4.3.28/src/VBox/VMM/VMMSwitcher/AMD64andLegacy.mac
  3245 00000853 BAFFFFFFFF              mov edx, 0ffffffff
  3246 00000858 51                      push ecx
  3247                                 %line 891+0 /home/se170/VirtualBox-4.3.28/src/VBox/VMM/VMMSwitcher/AMD64andLegacy.mac
  3248 00000859 89D1                    mov ecx, edx
  3249 0000085B 8D4920                  lea ecx, [ecx + STAMPROFILEADV.tsStart]
  3250 0000085E 53                      push ebx
  3251 0000085F 89CB                    mov ebx, ecx
  3252 00000861 50                      push eax
  3253 00000862 52                      push edx
  3254                                 
  3255 00000863 0F31                    rdtsc
  3256 00000865 8903                    mov [ebx], eax
  3257 00000867 895304                  mov [ebx + 4], edx
  3258                                 
  3259 0000086A 5A                      pop edx
  3260 0000086B 58                      pop eax
  3261 0000086C 5B                      pop ebx
  3262 0000086D 59                      pop ecx
  3263                                 %line 893+1 /home/se170/VirtualBox-4.3.28/src/VBox/VMM/VMMSwitcher/AMD64andLegacy.mac
  3264                                 
  3265                                 
  3266                                 
  3267                                 
  3268                                 [section .data]
  3269                                 %line 897+0 /home/se170/VirtualBox-4.3.28/src/VBox/VMM/VMMSwitcher/AMD64andLegacy.mac
  3270 00000085 25                      db 37
  3271 00000086 6F080000                dd ..@225.instruction + 1 - vmmR3SwitcherAMD64ToPAE_Start
  3272 0000008A 00000000                dd 0
  3273                                 
  3274                                 [section .text]
  3275                                 ..@225.instruction:
  3276                                 %line 898+1 /home/se170/VirtualBox-4.3.28/src/VBox/VMM/VMMSwitcher/AMD64andLegacy.mac
  3277 0000086E BAFFFFFFFF              mov edx, 0ffffffff
  3278                                 
  3279                                 
  3280 00000873 8F8210020000            pop dword [edx + CPUMCPU.Hyper.edx]
  3281 00000879 8F8210030000            pop dword [edx + CPUMCPU.Hyper.eip]
  3282 0000087F 89A220020000            mov dword [edx + CPUMCPU.Hyper.esp], esp
  3283 00000885 898200020000            mov dword [edx + CPUMCPU.Hyper.eax], eax
  3284 0000088B 899A18020000            mov dword [edx + CPUMCPU.Hyper.ebx], ebx
  3285 00000891 898A08020000            mov dword [edx + CPUMCPU.Hyper.ecx], ecx
  3286 00000897 89B230020000            mov dword [edx + CPUMCPU.Hyper.esi], esi
  3287 0000089D 89BA38020000            mov dword [edx + CPUMCPU.Hyper.edi], edi
  3288 000008A3 89AA28020000            mov dword [edx + CPUMCPU.Hyper.ebp], ebp
  3289                                 
  3290                                 
  3291                                 vmmRCToHostAsm_SaveNoGeneralRegs:
  3292                                 %line 922+1 /home/se170/VirtualBox-4.3.28/src/VBox/VMM/VMMSwitcher/AMD64andLegacy.mac
  3293 000008A9 89C7                    mov edi, eax
  3294                                 
  3295                                 
  3296 000008AB 0F0082A0030000          sldt [edx + CPUMCPU.Hyper.ldtr.Sel]
  3297                                 
  3298                                 
  3299                                 
  3300                                 
  3301                                 
  3302 000008B2 F782C00D0000000100-     test dword [edx + CPUMCPU.fUseFlags], (1 << 8)
  3303 000008B2 00                 
  3304 000008BC 7406                    jz .gth_disabled_dr7
  3305 000008BE B800040000              mov eax, 0x400
  3306 000008C3 0F23F8                  mov dr7, eax
  3307                                 .gth_disabled_dr7:
  3308                                 
  3309                                 
  3310                                 
  3311                                 
  3312                                 [section .data]
  3313                                 %line 940+0 /home/se170/VirtualBox-4.3.28/src/VBox/VMM/VMMSwitcher/AMD64andLegacy.mac
  3314 0000008E 0D                      db 13
  3315 0000008F C7080000                dd ..@230.instruction + 1 - vmmR3SwitcherAMD64ToPAE_Start
  3316                                 
  3317                                 [section .text]
  3318                                 ..@230.instruction:
  3319                                 %line 941+1 /home/se170/VirtualBox-4.3.28/src/VBox/VMM/VMMSwitcher/AMD64andLegacy.mac
  3320 000008C6 B8FFFFFFFF              mov eax, 0ffffffff
  3321 000008CB 0F22D8                  mov cr3, eax
  3322                                  
  3323                                 
  3324                                 
  3325                                 
  3326                                 
  3327                                 
  3328                                 
  3329                                 [section .data]
  3330                                 %line 950+0 /home/se170/VirtualBox-4.3.28/src/VBox/VMM/VMMSwitcher/AMD64andLegacy.mac
  3331 00000093 04                      db 4
  3332 00000094 CF080000                dd ..@235.instruction + 1 - vmmR3SwitcherAMD64ToPAE_Start
  3333 00000098 E0080000                dd vmmR3SwitcherAMD64ToPAE_IDExitTarget - vmmR3SwitcherAMD64ToPAE_Start
  3334                                 
  3335                                 [section .text]
  3336                                 ..@235.instruction:
  3337                                 %line 951+1 /home/se170/VirtualBox-4.3.28/src/VBox/VMM/VMMSwitcher/AMD64andLegacy.mac
  3338 000008CE E908000000              jmp near vmmR3SwitcherAMD64ToPAE_IDExitTarget
  3339                                 
  3340                                 
  3341 000008D3 CC<rept>               times ($$-$) & ((16)-1) db 0cc
  3342                                 [global vmmR3SwitcherAMD64ToPAE_IDExitTarget]
  3343                                 %line 955+0 /home/se170/VirtualBox-4.3.28/src/VBox/VMM/VMMSwitcher/AMD64andLegacy.mac
  3344                                 vmmR3SwitcherAMD64ToPAE_IDExitTarget:
  3345                                 %line 956+1 /home/se170/VirtualBox-4.3.28/src/VBox/VMM/VMMSwitcher/AMD64andLegacy.mac
  3346                                  
  3347                                 
  3348                                 
  3349 000008E0 0F20C3                  mov ebx, cr0
  3350 000008E3 81E3FFFFFF7F            and ebx, ~(1 << 31)
  3351 000008E9 0F22C3                  mov cr0, ebx
  3352                                  
  3353                                 
  3354                                 
  3355                                 %line 966+1 /home/se170/VirtualBox-4.3.28/src/VBox/VMM/VMMSwitcher/AMD64andLegacy.mac
  3356                                 
  3357                                 %line 972+1 /home/se170/VirtualBox-4.3.28/src/VBox/VMM/VMMSwitcher/AMD64andLegacy.mac
  3358                                 
  3359                                 
  3360                                 [section .data]
  3361                                 %line 974+0 /home/se170/VirtualBox-4.3.28/src/VBox/VMM/VMMSwitcher/AMD64andLegacy.mac
  3362 0000009C 0E                      db 14
  3363 0000009D ED080000                dd ..@243.instruction + 1 - vmmR3SwitcherAMD64ToPAE_Start
  3364                                 
  3365                                 [section .text]
  3366                                 ..@243.instruction:
  3367                                 %line 975+1 /home/se170/VirtualBox-4.3.28/src/VBox/VMM/VMMSwitcher/AMD64andLegacy.mac
  3368 000008EC B9FFFFFFFF              mov ecx, 0ffffffff
  3369 000008F1 0F22D9                  mov cr3, ecx
  3370                                  
  3371                                 
  3372                                 
  3373 000008F4 89D5                    mov ebp, edx
  3374 000008F6 B9800000C0              mov ecx, 0xc0000080
  3375 000008FB 0F32                    rdmsr
  3376 000008FD 0D00010000              or eax, (1 << 8)
  3377 00000902 0F30                    wrmsr
  3378 00000904 89EA                    mov edx, ebp
  3379                                  
  3380                                 
  3381                                 
  3382 00000906 81CB00000080            or ebx, (1 << 31)
  3383 0000090C 0F22C3                  mov cr0, ebx
  3384                                  
  3385                                 
  3386                                 
  3387                                 [section .data]
  3388                                 %line 994+0 /home/se170/VirtualBox-4.3.28/src/VBox/VMM/VMMSwitcher/AMD64andLegacy.mac
  3389 000000A1 21                      db 33
  3390 000000A2 10090000                dd ..@248.instruction + 1 - vmmR3SwitcherAMD64ToPAE_Start
  3391 000000A6 20090000                dd vmmR3SwitcherAMD64ToPAE_IDExit64Mode - vmmR3SwitcherAMD64ToPAE_Start
  3392                                 
  3393                                 [section .text]
  3394                                 ..@248.instruction:
  3395                                 %line 995+1 /home/se170/VirtualBox-4.3.28/src/VBox/VMM/VMMSwitcher/AMD64andLegacy.mac
  3396 0000090F EAFEFFFFFFFFFF          jmp 0ffff
  3397                                 
  3398                                 
  3399                                 
  3400                                 
  3401                                 
  3402                                 [bits 64]
  3403 00000916 CC<rept>               times ($$-$) & ((16)-1) db 0cc
  3404                                 vmmR3SwitcherAMD64ToPAE_IDExit64Mode:
  3405                                  
  3406 00000920 FF25FAFFFFFF            jmp [vmmR3SwitcherAMD64ToPAE_pHCExitTarget wrt rip]
  3407                                 
  3408                                 
  3409                                 vmmR3SwitcherAMD64ToPAE_pHCExitTarget:
  3410                                 [section .data]
  3411                                 %line 1009+0 /home/se170/VirtualBox-4.3.28/src/VBox/VMM/VMMSwitcher/AMD64andLegacy.mac
  3412 000000AA 1C                      db 28
  3413 000000AB 26090000                dd ..@255.instruction + 0 - vmmR3SwitcherAMD64ToPAE_Start
  3414 000000AF 40090000                dd vmmR3SwitcherAMD64ToPAE_HCExitTarget - vmmR3SwitcherAMD64ToPAE_Start
  3415                                 
  3416                                 [section .text]
  3417                                 ..@255.instruction:
  3418                                 %line 1010+1 /home/se170/VirtualBox-4.3.28/src/VBox/VMM/VMMSwitcher/AMD64andLegacy.mac
  3419 00000926 FFFFFFFFFFFFFFFF       dq 0ffffffffffffffff
  3420                                 
  3421                                 
  3422                                 vmmR3SwitcherAMD64ToPAE_pCpumHC:
  3423                                 [section .data]
  3424                                 %line 1014+0 /home/se170/VirtualBox-4.3.28/src/VBox/VMM/VMMSwitcher/AMD64andLegacy.mac
  3425 000000B3 1D                      db 29
  3426 000000B4 2E090000                dd ..@260.instruction + 0 - vmmR3SwitcherAMD64ToPAE_Start
  3427                                 
  3428                                 [section .text]
  3429                                 ..@260.instruction:
  3430                                 %line 1015+1 /home/se170/VirtualBox-4.3.28/src/VBox/VMM/VMMSwitcher/AMD64andLegacy.mac
  3431 0000092E FFFFFFFFFFFFFFFF       dq 0ffffffffffffffff
  3432                                 
  3433                                 
  3434                                 
  3435                                 
  3436                                 
  3437 00000936 CC<rept>               times ($$-$) & ((16)-1) db 0cc
  3438                                 [global vmmR3SwitcherAMD64ToPAE_HCExitTarget]
  3439                                 %line 1022+0 /home/se170/VirtualBox-4.3.28/src/VBox/VMM/VMMSwitcher/AMD64andLegacy.mac
  3440                                 vmmR3SwitcherAMD64ToPAE_HCExitTarget:
  3441                                 %line 1023+1 /home/se170/VirtualBox-4.3.28/src/VBox/VMM/VMMSwitcher/AMD64andLegacy.mac
  3442                                  
  3443                                 
  3444                                 
  3445 00000940 4881E2FFFFFFFF          and rdx, 0ffffffff
  3446                                 
  3447                                 
  3448 00000947 488BB2C0060000          mov rsi, [rdx + CPUMCPU.Host.cr3]
  3449 0000094E 0F22DE                  mov cr3, rsi
  3450                                  
  3451                                 
  3452                                 
  3453                                 
  3454                                 
  3455                                 
  3456 00000951 488B15CFFFFFFF          mov rdx, [vmmR3SwitcherAMD64ToPAE_pCpumHC wrt rip]
  3457                                 
  3458 00000958 448B02                  mov r8d, [rdx + CPUM.offCPUMCPU0]
  3459                                 
  3460                                 
  3461 0000095B 420F01940208070000      lgdt [rdx + r8 + CPUMCPU.Host.gdtr]
  3462                                  
  3463 00000964 420F019C0214070000      lidt [rdx + r8 + CPUMCPU.Host.idtr]
  3464                                  
  3465                                 
  3466                                 %line 1048+1 /home/se170/VirtualBox-4.3.28/src/VBox/VMM/VMMSwitcher/AMD64andLegacy.mac
  3467 0000096D 420FB7840224070000      movzx eax, word [rdx + r8 + CPUMCPU.Host.tr]
  3468 00000976 24F8                    and al, 0F8
  3469 00000978 4A0384020A070000        add rax, [rdx + r8 + CPUMCPU.Host.gdtr + 2]
  3470 00000980 816004FFFDFFFF          and dword [rax + 4], ~0200
  3471 00000987 420F009C0224070000      ltr word [rdx + r8 + CPUMCPU.Host.tr]
  3472                                 %line 1064+1 /home/se170/VirtualBox-4.3.28/src/VBox/VMM/VMMSwitcher/AMD64andLegacy.mac
  3473                                 
  3474                                  
  3475 00000990 420F00940220070000      lldt [rdx + r8 + CPUMCPU.Host.ldtr]
  3476                                 
  3477 00000999 428B8402B0060000        mov eax, [rdx + r8 + CPUMCPU.Host.ds]
  3478 000009A1 8ED8                    mov ds, eax
  3479 000009A3 428B8402AC060000        mov eax, [rdx + r8 + CPUMCPU.Host.es]
  3480 000009AB 8EC0                    mov es, eax
  3481 000009AD 428B8402A8060000        mov eax, [rdx + r8 + CPUMCPU.Host.fs]
  3482 000009B5 8EE0                    mov fs, eax
  3483 000009B7 428B8402A4060000        mov eax, [rdx + r8 + CPUMCPU.Host.gs]
  3484 000009BF 8EE8                    mov gs, eax
  3485                                 
  3486 000009C1 428B8402A0060000        mov eax, [rdx + r8 + CPUMCPU.Host.ss]
  3487 000009C9 8ED0                    mov ss, eax
  3488 000009CB 4A8BA40260060000        mov rsp, [rdx + r8 + CPUMCPU.Host.rsp]
  3489                                 
  3490                                 [section .data]
  3491                                 %line 1081+0 /home/se170/VirtualBox-4.3.28/src/VBox/VMM/VMMSwitcher/AMD64andLegacy.mac
  3492 000000B8 19                      db 25
  3493 000000B9 D3090000                dd ..@268.instruction + 0 - vmmR3SwitcherAMD64ToPAE_Start
  3494 000000BD 000A0000                dd gth_sysenter_no - vmmR3SwitcherAMD64ToPAE_Start
  3495                                 
  3496                                 [section .text]
  3497                                 ..@268.instruction:
  3498                                 %line 1082+1 /home/se170/VirtualBox-4.3.28/src/VBox/VMM/VMMSwitcher/AMD64andLegacy.mac
  3499                                 
  3500 000009D3 4889D3                  mov rbx, rdx
  3501 000009D6 B974010000              mov ecx, 0x174
  3502 000009DB 428B840328070000        mov eax, [rbx + r8 + CPUMCPU.Host.SysEnter.cs]
  3503 000009E3 428B94032C070000        mov edx, [rbx + r8 + CPUMCPU.Host.SysEnter.cs + 4]
  3504 000009EB 0F30                    wrmsr
  3505 000009ED 4889DA                  mov rdx, rbx
  3506 000009F0 EB0C                    jmp short gth_sysenter_no
  3507                                 
  3508 000009F2 CC<rept>               times ($$-$) & ((16)-1) db 0cc
  3509                                 gth_sysenter_no:
  3510                                 
  3511                                 
  3512                                 
  3513                                 
  3514                                 
  3515 00000A00 428BB402C00D0000        mov esi, [rdx + r8 + CPUMCPU.fUseFlags]
  3516 00000A08 F7C601000000            test esi, (1 << 0)
  3517 00000A0E 741E                    jz short gth_fpu_no
  3518 00000A10 0F20C1                  mov rcx, cr0
  3519 00000A13 4883E1F3                and rcx, ~((1 << 3) | (1 << 2))
  3520 00000A17 0F22C1                  mov cr0, rcx
  3521                                 
  3522 00000A1A 420FAE840280070000      fxsave [rdx + r8 + CPUMCPU.Guest.fpu]
  3523 00000A23 4A0FAE8C0240040000      o64 fxrstor [rdx + r8 + CPUMCPU.Host.fpu]
  3524 00000A2C EB00                    jmp short gth_fpu_no
  3525                                 
  3526 00000A2E CC<rept>               times ($$-$) & ((16)-1) db 0cc
  3527                                 gth_fpu_no:
  3528                                 
  3529                                 
  3530                                 
  3531                                 
  3532 00000A30 4A8B8C02C8060000        mov rcx, [rdx + r8 + CPUMCPU.Host.cr4]
  3533 00000A38 48F7C100000200          test rcx, (1 << 17)
  3534 00000A3F 741F                    jz gth_no_pcide
  3535 00000A41 4A8B8402C0060000        mov rax, [rdx + r8 + CPUMCPU.Host.cr3]
  3536 00000A49 482500F0FFFF            and rax, ~0xfff
  3537 00000A4F 0F22D8                  mov cr3, rax
  3538 00000A52 0F22E1                  mov cr4, rcx
  3539 00000A55 4A8B8402C0060000        mov rax, [rdx + r8 + CPUMCPU.Host.cr3]
  3540 00000A5D 0F22D8                  mov cr3, rax
  3541 00000A60 EB01                    jmp gth_restored_cr4
  3542                                 gth_no_pcide:
  3543 00000A62 0F22E1                  mov cr4, rcx
  3544                                 gth_restored_cr4:
  3545 00000A65 4A8B8C02B8060000        mov rcx, [rdx + r8 + CPUMCPU.Host.cr0]
  3546 00000A6D 0F22C1                  mov cr0, rcx
  3547                                 
  3548                                 
  3549                                 
  3550                                 
  3551 00000A70 4889D3                  mov rbx, rdx
  3552 00000A73 B9000100C0              mov ecx, 0xc0000100
  3553 00000A78 428B840340070000        mov eax, [rbx + r8 + CPUMCPU.Host.FSbase]
  3554 00000A80 428B940344070000        mov edx, [rbx + r8 + CPUMCPU.Host.FSbase + 4]
  3555 00000A88 0F30                    wrmsr
  3556 00000A8A B9010100C0              mov ecx, 0xc0000101
  3557 00000A8F 428B840348070000        mov eax, [rbx + r8 + CPUMCPU.Host.GSbase]
  3558 00000A97 428B94034C070000        mov edx, [rbx + r8 + CPUMCPU.Host.GSbase + 4]
  3559 00000A9F 0F30                    wrmsr
  3560 00000AA1 B9800000C0              mov ecx, 0xc0000080
  3561 00000AA6 428B840350070000        mov eax, [rbx + r8 + CPUMCPU.Host.efer]
  3562 00000AAE 428B940354070000        mov edx, [rbx + r8 + CPUMCPU.Host.efer + 4]
  3563 00000AB6 0F30                    wrmsr
  3564 00000AB8 4889DA                  mov rdx, rbx
  3565                                 
  3566                                 
  3567 00000ABB F7C6E0000000            test esi, (1 << 5) | (1 << 6) | (1 << 7)
  3568 00000AC1 7570                    jnz gth_debug_regs_restore
  3569                                 gth_debug_regs_done:
  3570 00000AC3 4281A402C00D0000BF-     and dword [rdx + r8 + CPUMCPU.fUseFlags], ~((1 << 6) | (1 << 8))
  3571 00000AC3 FEFFFF             
  3572                                 
  3573                                 
  3574 00000ACF 89F8                    mov eax, edi
  3575                                 
  3576 00000AD1 4A8B9C0240060000        mov rbx, [rdx + r8 + CPUMCPU.Host.rbx]
  3577                                 
  3578                                 
  3579 00000AD9 4A8BBC0248060000        mov rdi, [rdx + r8 + CPUMCPU.Host.rdi]
  3580 00000AE1 4A8BB40250060000        mov rsi, [rdx + r8 + CPUMCPU.Host.rsi]
  3581 00000AE9 4A8BA40260060000        mov rsp, [rdx + r8 + CPUMCPU.Host.rsp]
  3582 00000AF1 4A8BAC0258060000        mov rbp, [rdx + r8 + CPUMCPU.Host.rbp]
  3583                                 
  3584                                 
  3585 00000AF9 4E8B940268060000        mov r10, [rdx + r8 + CPUMCPU.Host.r10]
  3586 00000B01 4E8B9C0270060000        mov r11, [rdx + r8 + CPUMCPU.Host.r11]
  3587 00000B09 4E8BA40278060000        mov r12, [rdx + r8 + CPUMCPU.Host.r12]
  3588 00000B11 4E8BAC0280060000        mov r13, [rdx + r8 + CPUMCPU.Host.r13]
  3589 00000B19 4E8BB40288060000        mov r14, [rdx + r8 + CPUMCPU.Host.r14]
  3590 00000B21 4E8BBC0290060000        mov r15, [rdx + r8 + CPUMCPU.Host.r15]
  3591                                 
  3592                                 
  3593 00000B29 42FFB40298060000        push qword [rdx + r8 + CPUMCPU.Host.rflags]
  3594 00000B31 9D                      popf
  3595                                 
  3596                                 
  3597                                 %line 1182+1 /home/se170/VirtualBox-4.3.28/src/VBox/VMM/VMMSwitcher/AMD64andLegacy.mac
  3598 00000B32 48                      db 048
  3599 00000B33 48CB                    retf
  3600                                 
  3601                                 
  3602                                 
  3603                                 
  3604                                 gth_debug_regs_restore:
  3605                                  
  3606 00000B35 0F21F8                  mov rax, dr7
  3607 00000B38 B900040000              mov ecx, 0x400
  3608 00000B3D 4839C8                  cmp rax, rcx
  3609 00000B40 7401                    je .gth_debug_skip_dr7_disabling
  3610 00000B42 0F23F9                  mov dr7, rcx
  3611                                 .gth_debug_skip_dr7_disabling:
  3612 00000B45 F7C640000000            test esi, (1 << 6)
  3613 00000B4B 742A                    jz .gth_debug_regs_dr7
  3614                                 
  3615                                  
  3616 00000B4D 4A8B8402D8060000        mov rax, [rdx + r8 + CPUMCPU.Host.dr0]
  3617 00000B55 0F23C0                  mov dr0, rax
  3618 00000B58 4A8B9C02E0060000        mov rbx, [rdx + r8 + CPUMCPU.Host.dr1]
  3619 00000B60 0F23CB                  mov dr1, rbx
  3620 00000B63 4A8B8C02E8060000        mov rcx, [rdx + r8 + CPUMCPU.Host.dr2]
  3621 00000B6B 0F23D1                  mov dr2, rcx
  3622 00000B6E 4A8B8402F0060000        mov rax, [rdx + r8 + CPUMCPU.Host.dr3]
  3623 00000B76 0F23D8                  mov dr3, rax
  3624                                 .gth_debug_regs_dr7:
  3625 00000B79 4A8B9C02F8060000        mov rbx, [rdx + r8 + CPUMCPU.Host.dr6]
  3626 00000B81 0F23F3                  mov dr6, rbx
  3627 00000B84 4A8B8C0200070000        mov rcx, [rdx + r8 + CPUMCPU.Host.dr7]
  3628 00000B8C 0F23F9                  mov dr7, rcx
  3629                                 
  3630                                 
  3631 00000B8F E92AFFFFFF              jmp gth_debug_regs_done
  3632                                 
  3633                                 [global vmmR3SwitcherAMD64ToPAE_vmmRCToHostAsm_EndProc:function hidden]
  3634                                 %line 1217+0 /home/se170/VirtualBox-4.3.28/src/VBox/VMM/VMMSwitcher/AMD64andLegacy.mac
  3635                                 vmmR3SwitcherAMD64ToPAE_vmmRCToHostAsm_EndProc:
  3636                                 [size vmmR3SwitcherAMD64ToPAE_vmmRCToHostAsm vmmR3SwitcherAMD64ToPAE_vmmRCToHostAsm_EndProc - vmmR3SwitcherAMD64ToPAE_vmmRCToHostAsm]
  3637                                 [size vmmR3SwitcherAMD64ToPAE_vmmRCToHostAsm_EndProc 0]
  3638 00000B94 CCCCCCCC                db 0xCC, 0xCC, 0xCC, 0xCC
  3639                                 %line 1218+1 /home/se170/VirtualBox-4.3.28/src/VBox/VMM/VMMSwitcher/AMD64andLegacy.mac
  3640                                 
  3641                                 
  3642                                 [global vmmR3SwitcherAMD64ToPAE_End]
  3643                                 %line 1220+0 /home/se170/VirtualBox-4.3.28/src/VBox/VMM/VMMSwitcher/AMD64andLegacy.mac
  3644                                 vmmR3SwitcherAMD64ToPAE_End:
  3645                                 %line 1221+1 /home/se170/VirtualBox-4.3.28/src/VBox/VMM/VMMSwitcher/AMD64andLegacy.mac
  3646                                 
  3647                                 
  3648                                 
  3649                                 vmmR3SwitcherAMD64ToPAE_Description:
  3650 00000B98 414D44363420746F2F-     db "AMD64 to/from PAE"
  3651 00000B98 66726F6D20504145   
  3652 00000BA9 00                      db 0
  3653                                 
  3654                                 [extern vmmR3SwitcherAMD64ToPAE_Relocate]
  3655                                 
  3656                                 
  3657                                 
  3658                                 
  3659                                 [section .data]
  3660 000000C1 FF                      db 255
  3661                                 [global vmmR3SwitcherAMD64ToPAE_FixupsEnd]
  3662                                 %line 1235+0 /home/se170/VirtualBox-4.3.28/src/VBox/VMM/VMMSwitcher/AMD64andLegacy.mac
  3663                                 vmmR3SwitcherAMD64ToPAE_FixupsEnd:
  3664                                 %line 1236+1 /home/se170/VirtualBox-4.3.28/src/VBox/VMM/VMMSwitcher/AMD64andLegacy.mac
  3665                                 
  3666                                 
  3667                                 
  3668 000000C2 00<rept>               times ($$-$) & ((16)-1) db 0
  3669                                 [global vmmR3SwitcherAMD64ToPAE_Def]
  3670                                 %line 1240+0 /home/se170/VirtualBox-4.3.28/src/VBox/VMM/VMMSwitcher/AMD64andLegacy.mac
  3671                                 vmmR3SwitcherAMD64ToPAE_Def:
  3672                                 %line 1241+1 /home/se170/VirtualBox-4.3.28/src/VBox/VMM/VMMSwitcher/AMD64andLegacy.mac
  3673                                 ..@291.strucstart:
  3674                                 %line 1242+0 /home/se170/VirtualBox-4.3.28/src/VBox/VMM/VMMSwitcher/AMD64andLegacy.mac
  3675 000000D0 [0000000000000000]     dq vmmR3SwitcherAMD64ToPAE_Start
  3676                                 %line 1243+1 /home/se170/VirtualBox-4.3.28/src/VBox/VMM/VMMSwitcher/AMD64andLegacy.mac
  3677                                 %line 1243+0 /home/se170/VirtualBox-4.3.28/src/VBox/VMM/VMMSwitcher/AMD64andLegacy.mac
  3678 000000D8 [0000000000000000]     dq vmmR3SwitcherAMD64ToPAE_Fixups
  3679                                 %line 1244+1 /home/se170/VirtualBox-4.3.28/src/VBox/VMM/VMMSwitcher/AMD64andLegacy.mac
  3680                                 %line 1244+0 /home/se170/VirtualBox-4.3.28/src/VBox/VMM/VMMSwitcher/AMD64andLegacy.mac
  3681 000000E0 [0000000000000000]     dq vmmR3SwitcherAMD64ToPAE_Description
  3682                                 %line 1245+1 /home/se170/VirtualBox-4.3.28/src/VBox/VMM/VMMSwitcher/AMD64andLegacy.mac
  3683                                 %line 1245+0 /home/se170/VirtualBox-4.3.28/src/VBox/VMM/VMMSwitcher/AMD64andLegacy.mac
  3684 000000E8 [0000000000000000]     dq vmmR3SwitcherAMD64ToPAE_Relocate
  3685                                 %line 1246+1 /home/se170/VirtualBox-4.3.28/src/VBox/VMM/VMMSwitcher/AMD64andLegacy.mac
  3686                                 %line 1246+0 /home/se170/VirtualBox-4.3.28/src/VBox/VMM/VMMSwitcher/AMD64andLegacy.mac
  3687 000000F0 08000000               dd 8
  3688                                 %line 1247+1 /home/se170/VirtualBox-4.3.28/src/VBox/VMM/VMMSwitcher/AMD64andLegacy.mac
  3689                                 %line 1247+0 /home/se170/VirtualBox-4.3.28/src/VBox/VMM/VMMSwitcher/AMD64andLegacy.mac
  3690 000000F4 980B0000               dd vmmR3SwitcherAMD64ToPAE_End - vmmR3SwitcherAMD64ToPAE_Start
  3691                                 %line 1248+1 /home/se170/VirtualBox-4.3.28/src/VBox/VMM/VMMSwitcher/AMD64andLegacy.mac
  3692                                 %line 1248+0 /home/se170/VirtualBox-4.3.28/src/VBox/VMM/VMMSwitcher/AMD64andLegacy.mac
  3693 000000F8 00000000               dd vmmR3SwitcherAMD64ToPAE_vmmR0ToRawMode - vmmR3SwitcherAMD64ToPAE_Start
  3694                                 %line 1249+1 /home/se170/VirtualBox-4.3.28/src/VBox/VMM/VMMSwitcher/AMD64andLegacy.mac
  3695                                 %line 1249+0 /home/se170/VirtualBox-4.3.28/src/VBox/VMM/VMMSwitcher/AMD64andLegacy.mac
  3696 000000FC 10070000               dd vmmR3SwitcherAMD64ToPAE_vmmRCToHost - vmmR3SwitcherAMD64ToPAE_Start
  3697                                 %line 1250+1 /home/se170/VirtualBox-4.3.28/src/VBox/VMM/VMMSwitcher/AMD64andLegacy.mac
  3698                                 %line 1250+0 /home/se170/VirtualBox-4.3.28/src/VBox/VMM/VMMSwitcher/AMD64andLegacy.mac
  3699 00000100 F0060000               dd vmmR3SwitcherAMD64ToPAE_vmmRCCallTrampoline - vmmR3SwitcherAMD64ToPAE_Start
  3700                                 %line 1251+1 /home/se170/VirtualBox-4.3.28/src/VBox/VMM/VMMSwitcher/AMD64andLegacy.mac
  3701                                 %line 1251+0 /home/se170/VirtualBox-4.3.28/src/VBox/VMM/VMMSwitcher/AMD64andLegacy.mac
  3702 00000104 D0070000               dd vmmR3SwitcherAMD64ToPAE_vmmRCToHostAsm - vmmR3SwitcherAMD64ToPAE_Start
  3703                                 %line 1252+1 /home/se170/VirtualBox-4.3.28/src/VBox/VMM/VMMSwitcher/AMD64andLegacy.mac
  3704                                 %line 1252+0 /home/se170/VirtualBox-4.3.28/src/VBox/VMM/VMMSwitcher/AMD64andLegacy.mac
  3705 00000108 20070000               dd vmmR3SwitcherAMD64ToPAE_vmmRCToHostAsmNoReturn - vmmR3SwitcherAMD64ToPAE_Start
  3706                                 %line 1253+1 /home/se170/VirtualBox-4.3.28/src/VBox/VMM/VMMSwitcher/AMD64andLegacy.mac
  3707                                 
  3708                                 %line 1254+0 /home/se170/VirtualBox-4.3.28/src/VBox/VMM/VMMSwitcher/AMD64andLegacy.mac
  3709 0000010C 00000000               dd 0
  3710                                 %line 1255+1 /home/se170/VirtualBox-4.3.28/src/VBox/VMM/VMMSwitcher/AMD64andLegacy.mac
  3711                                 %line 1255+0 /home/se170/VirtualBox-4.3.28/src/VBox/VMM/VMMSwitcher/AMD64andLegacy.mac
  3712 00000110 70050000               dd vmmR3SwitcherAMD64ToPAE_IDEnterTarget - vmmR3SwitcherAMD64ToPAE_Start
  3713                                 %line 1256+1 /home/se170/VirtualBox-4.3.28/src/VBox/VMM/VMMSwitcher/AMD64andLegacy.mac
  3714                                 %line 1256+0 /home/se170/VirtualBox-4.3.28/src/VBox/VMM/VMMSwitcher/AMD64andLegacy.mac
  3715 00000114 40090000               dd vmmR3SwitcherAMD64ToPAE_HCExitTarget - vmmR3SwitcherAMD64ToPAE_Start
  3716                                 %line 1257+1 /home/se170/VirtualBox-4.3.28/src/VBox/VMM/VMMSwitcher/AMD64andLegacy.mac
  3717                                 %line 1257+0 /home/se170/VirtualBox-4.3.28/src/VBox/VMM/VMMSwitcher/AMD64andLegacy.mac
  3718 00000118 58020000               dd vmmR3SwitcherAMD64ToPAE_End - vmmR3SwitcherAMD64ToPAE_HCExitTarget
  3719                                 %line 1258+1 /home/se170/VirtualBox-4.3.28/src/VBox/VMM/VMMSwitcher/AMD64andLegacy.mac
  3720                                 %line 1258+0 /home/se170/VirtualBox-4.3.28/src/VBox/VMM/VMMSwitcher/AMD64andLegacy.mac
  3721 0000011C 70050000               dd vmmR3SwitcherAMD64ToPAE_IDEnterTarget - vmmR3SwitcherAMD64ToPAE_Start
  3722                                 %line 1259+1 /home/se170/VirtualBox-4.3.28/src/VBox/VMM/VMMSwitcher/AMD64andLegacy.mac
  3723                                 %line 1259+0 /home/se170/VirtualBox-4.3.28/src/VBox/VMM/VMMSwitcher/AMD64andLegacy.mac
  3724 00000120 40000000               dd vmmR3SwitcherAMD64ToPAE_JmpGCTarget - vmmR3SwitcherAMD64ToPAE_IDEnterTarget
  3725                                 %line 1260+1 /home/se170/VirtualBox-4.3.28/src/VBox/VMM/VMMSwitcher/AMD64andLegacy.mac
  3726                                 %line 1260+0 /home/se170/VirtualBox-4.3.28/src/VBox/VMM/VMMSwitcher/AMD64andLegacy.mac
  3727 00000124 E0080000               dd vmmR3SwitcherAMD64ToPAE_IDExitTarget - vmmR3SwitcherAMD64ToPAE_Start
  3728                                 %line 1261+1 /home/se170/VirtualBox-4.3.28/src/VBox/VMM/VMMSwitcher/AMD64andLegacy.mac
  3729                                 %line 1261+0 /home/se170/VirtualBox-4.3.28/src/VBox/VMM/VMMSwitcher/AMD64andLegacy.mac
  3730 00000128 60000000               dd vmmR3SwitcherAMD64ToPAE_HCExitTarget - vmmR3SwitcherAMD64ToPAE_IDExitTarget
  3731                                 %line 1262+1 /home/se170/VirtualBox-4.3.28/src/VBox/VMM/VMMSwitcher/AMD64andLegacy.mac
  3732                                 %line 1262+0 /home/se170/VirtualBox-4.3.28/src/VBox/VMM/VMMSwitcher/AMD64andLegacy.mac
  3733 0000012C B0050000               dd vmmR3SwitcherAMD64ToPAE_JmpGCTarget - vmmR3SwitcherAMD64ToPAE_Start
  3734                                 %line 1263+1 /home/se170/VirtualBox-4.3.28/src/VBox/VMM/VMMSwitcher/AMD64andLegacy.mac
  3735                                 %line 1263+0 /home/se170/VirtualBox-4.3.28/src/VBox/VMM/VMMSwitcher/AMD64andLegacy.mac
  3736 00000130 30030000               dd vmmR3SwitcherAMD64ToPAE_IDExitTarget - vmmR3SwitcherAMD64ToPAE_JmpGCTarget
  3737                                 %line 1264+1 /home/se170/VirtualBox-4.3.28/src/VBox/VMM/VMMSwitcher/AMD64andLegacy.mac
  3738                                 
  3739                                 
  3740                                 %line 35+1 /home/se170/VirtualBox-4.3.28/src/VBox/VMM/VMMSwitcher/AMD64ToPAE.asm
  3741                                 
