     1                                 %line 1+1 /home/se170/VirtualBox-4.3.28/out/linux.amd64/debug/obj/VMMR3LazyImp/VMMR3LazyLoad.asm
     2                                 
     3                                 
     4                                 
     5                                 
     6                                 
     7                                 
     8                                 %line 1+1 /home/se170/VirtualBox-4.3.28/include/iprt/asmdefs.mac
     9                                 
    10                                 
    11                                 
    12                                 
    13                                 
    14                                 
    15                                 
    16                                 
    17                                 
    18                                 
    19                                 
    20                                 
    21                                 
    22                                 
    23                                 
    24                                 
    25                                 
    26                                 
    27                                 
    28                                 
    29                                 
    30                                 
    31                                 
    32                                 
    33                                 
    34                                 %line 28+1 /home/se170/VirtualBox-4.3.28/include/iprt/asmdefs.mac
    35                                 
    36                                 
    37                                 
    38                                 
    39                                 
    40                                 
    41                                 %line 35+1 /home/se170/VirtualBox-4.3.28/include/iprt/asmdefs.mac
    42                                 
    43                                 %line 37+1 /home/se170/VirtualBox-4.3.28/include/iprt/asmdefs.mac
    44                                 
    45                                 %line 39+1 /home/se170/VirtualBox-4.3.28/include/iprt/asmdefs.mac
    46                                 
    47                                 %line 41+1 /home/se170/VirtualBox-4.3.28/include/iprt/asmdefs.mac
    48                                 
    49                                 %line 43+1 /home/se170/VirtualBox-4.3.28/include/iprt/asmdefs.mac
    50                                 
    51                                 %line 45+1 /home/se170/VirtualBox-4.3.28/include/iprt/asmdefs.mac
    52                                 
    53                                 %line 47+1 /home/se170/VirtualBox-4.3.28/include/iprt/asmdefs.mac
    54                                 
    55                                 %line 49+1 /home/se170/VirtualBox-4.3.28/include/iprt/asmdefs.mac
    56                                 
    57                                 %line 51+1 /home/se170/VirtualBox-4.3.28/include/iprt/asmdefs.mac
    58                                 
    59                                 %line 53+1 /home/se170/VirtualBox-4.3.28/include/iprt/asmdefs.mac
    60                                 
    61                                 %line 55+1 /home/se170/VirtualBox-4.3.28/include/iprt/asmdefs.mac
    62                                 
    63                                 %line 57+1 /home/se170/VirtualBox-4.3.28/include/iprt/asmdefs.mac
    64                                 
    65                                 %line 59+1 /home/se170/VirtualBox-4.3.28/include/iprt/asmdefs.mac
    66                                 
    67                                 %line 61+1 /home/se170/VirtualBox-4.3.28/include/iprt/asmdefs.mac
    68                                 
    69                                 %line 63+1 /home/se170/VirtualBox-4.3.28/include/iprt/asmdefs.mac
    70                                 
    71                                 %line 65+1 /home/se170/VirtualBox-4.3.28/include/iprt/asmdefs.mac
    72                                 
    73                                 %line 67+1 /home/se170/VirtualBox-4.3.28/include/iprt/asmdefs.mac
    74                                 
    75                                 
    76                                 
    77                                 
    78                                 
    79                                 %line 73+1 /home/se170/VirtualBox-4.3.28/include/iprt/asmdefs.mac
    80                                 
    81                                 
    82                                 
    83                                 %line 77+1 /home/se170/VirtualBox-4.3.28/include/iprt/asmdefs.mac
    84                                 
    85                                 
    86                                 %line 84+1 /home/se170/VirtualBox-4.3.28/include/iprt/asmdefs.mac
    87                                 
    88                                 
    89                                 
    90                                 %line 92+1 /home/se170/VirtualBox-4.3.28/include/iprt/asmdefs.mac
    91                                 
    92                                 
    93                                 
    94                                 %line 100+1 /home/se170/VirtualBox-4.3.28/include/iprt/asmdefs.mac
    95                                 
    96                                 
    97                                 
    98                                 %line 108+1 /home/se170/VirtualBox-4.3.28/include/iprt/asmdefs.mac
    99                                 
   100                                 
   101                                 
   102                                 %line 116+1 /home/se170/VirtualBox-4.3.28/include/iprt/asmdefs.mac
   103                                 
   104                                 
   105                                 
   106                                 
   107                                 %line 121+1 /home/se170/VirtualBox-4.3.28/include/iprt/asmdefs.mac
   108                                 
   109                                 
   110                                 
   111                                 %line 125+1 /home/se170/VirtualBox-4.3.28/include/iprt/asmdefs.mac
   112                                 
   113                                 
   114                                 
   115                                 %line 129+1 /home/se170/VirtualBox-4.3.28/include/iprt/asmdefs.mac
   116                                 
   117                                 
   118                                 
   119                                 
   120                                 
   121                                 %line 137+1 /home/se170/VirtualBox-4.3.28/include/iprt/asmdefs.mac
   122                                 
   123                                 
   124                                 
   125                                 
   126                                 %line 157+1 /home/se170/VirtualBox-4.3.28/include/iprt/asmdefs.mac
   127                                 
   128                                 
   129                                 
   130                                 %line 165+1 /home/se170/VirtualBox-4.3.28/include/iprt/asmdefs.mac
   131                                 
   132                                 
   133                                 
   134                                 %line 177+1 /home/se170/VirtualBox-4.3.28/include/iprt/asmdefs.mac
   135                                 
   136                                 
   137                                 
   138                                 
   139                                 %line 188+1 /home/se170/VirtualBox-4.3.28/include/iprt/asmdefs.mac
   140                                 
   141                                 
   142                                 
   143                                 %line 211+1 /home/se170/VirtualBox-4.3.28/include/iprt/asmdefs.mac
   144                                 
   145                                 
   146                                 
   147                                 
   148                                 
   149                                 %line 222+1 /home/se170/VirtualBox-4.3.28/include/iprt/asmdefs.mac
   150                                 
   151                                 
   152                                 
   153                                 %line 236+1 /home/se170/VirtualBox-4.3.28/include/iprt/asmdefs.mac
   154                                 
   155                                 
   156                                 
   157                                 %line 249+1 /home/se170/VirtualBox-4.3.28/include/iprt/asmdefs.mac
   158                                 
   159                                 
   160                                 
   161                                 %line 263+1 /home/se170/VirtualBox-4.3.28/include/iprt/asmdefs.mac
   162                                 
   163                                 
   164                                 
   165                                 %line 274+1 /home/se170/VirtualBox-4.3.28/include/iprt/asmdefs.mac
   166                                 
   167                                 
   168                                 
   169                                 %line 288+1 /home/se170/VirtualBox-4.3.28/include/iprt/asmdefs.mac
   170                                 
   171                                 
   172                                 
   173                                 %line 302+1 /home/se170/VirtualBox-4.3.28/include/iprt/asmdefs.mac
   174                                 
   175                                 
   176                                 
   177                                 
   178                                 
   179                                 
   180                                 
   181                                 
   182                                 %line 356+1 /home/se170/VirtualBox-4.3.28/include/iprt/asmdefs.mac
   183                                 
   184                                 %line 363+1 /home/se170/VirtualBox-4.3.28/include/iprt/asmdefs.mac
   185                                 
   186                                 
   187                                 
   188                                 
   189                                 %line 376+1 /home/se170/VirtualBox-4.3.28/include/iprt/asmdefs.mac
   190                                 
   191                                 
   192                                 
   193                                 
   194                                 
   195                                 
   196                                 
   197                                 %line 396+1 /home/se170/VirtualBox-4.3.28/include/iprt/asmdefs.mac
   198                                 
   199                                 
   200                                 
   201                                 %line 408+1 /home/se170/VirtualBox-4.3.28/include/iprt/asmdefs.mac
   202                                 
   203                                 
   204                                 
   205                                 %line 420+1 /home/se170/VirtualBox-4.3.28/include/iprt/asmdefs.mac
   206                                 
   207                                 
   208                                 
   209                                 
   210                                 
   211                                 %line 432+1 /home/se170/VirtualBox-4.3.28/include/iprt/asmdefs.mac
   212                                 
   213                                 
   214                                 
   215                                 %line 442+1 /home/se170/VirtualBox-4.3.28/include/iprt/asmdefs.mac
   216                                 
   217                                 
   218                                 
   219                                 %line 452+1 /home/se170/VirtualBox-4.3.28/include/iprt/asmdefs.mac
   220                                 
   221                                 
   222                                 
   223                                 %line 462+1 /home/se170/VirtualBox-4.3.28/include/iprt/asmdefs.mac
   224                                 
   225                                 
   226                                 
   227                                 %line 472+1 /home/se170/VirtualBox-4.3.28/include/iprt/asmdefs.mac
   228                                 
   229                                 
   230                                 
   231                                 
   232                                 
   233                                 %line 482+1 /home/se170/VirtualBox-4.3.28/include/iprt/asmdefs.mac
   234                                 
   235                                 
   236                                 
   237                                 
   238                                 %line 491+1 /home/se170/VirtualBox-4.3.28/include/iprt/asmdefs.mac
   239                                 
   240                                 
   241                                 
   242                                 %line 499+1 /home/se170/VirtualBox-4.3.28/include/iprt/asmdefs.mac
   243                                 
   244                                 
   245                                 
   246                                 %line 507+1 /home/se170/VirtualBox-4.3.28/include/iprt/asmdefs.mac
   247                                 
   248                                 
   249                                 
   250                                 
   251                                 
   252                                 %line 517+1 /home/se170/VirtualBox-4.3.28/include/iprt/asmdefs.mac
   253                                 
   254                                 
   255                                 
   256                                 
   257                                 %line 526+1 /home/se170/VirtualBox-4.3.28/include/iprt/asmdefs.mac
   258                                 
   259                                 
   260                                 
   261                                 %line 534+1 /home/se170/VirtualBox-4.3.28/include/iprt/asmdefs.mac
   262                                 
   263                                 
   264                                 
   265                                 %line 542+1 /home/se170/VirtualBox-4.3.28/include/iprt/asmdefs.mac
   266                                 
   267                                 
   268                                 
   269                                 
   270                                 
   271                                 %line 552+1 /home/se170/VirtualBox-4.3.28/include/iprt/asmdefs.mac
   272                                 
   273                                 
   274                                 
   275                                 
   276                                 %line 561+1 /home/se170/VirtualBox-4.3.28/include/iprt/asmdefs.mac
   277                                 
   278                                 
   279                                 
   280                                 %line 569+1 /home/se170/VirtualBox-4.3.28/include/iprt/asmdefs.mac
   281                                 
   282                                 
   283                                 
   284                                 %line 577+1 /home/se170/VirtualBox-4.3.28/include/iprt/asmdefs.mac
   285                                 
   286                                 
   287                                 
   288                                 
   289                                 
   290                                 %line 587+1 /home/se170/VirtualBox-4.3.28/include/iprt/asmdefs.mac
   291                                 
   292                                 
   293                                 
   294                                 
   295                                 %line 596+1 /home/se170/VirtualBox-4.3.28/include/iprt/asmdefs.mac
   296                                 
   297                                 %line 599+1 /home/se170/VirtualBox-4.3.28/include/iprt/asmdefs.mac
   298                                 
   299                                 
   300                                 
   301                                 %line 607+1 /home/se170/VirtualBox-4.3.28/include/iprt/asmdefs.mac
   302                                 
   303                                 
   304                                 
   305                                 %line 615+1 /home/se170/VirtualBox-4.3.28/include/iprt/asmdefs.mac
   306                                 
   307                                 
   308                                 
   309                                 
   310                                 %line 620+1 /home/se170/VirtualBox-4.3.28/include/iprt/asmdefs.mac
   311                                 
   312                                 
   313                                 
   314                                 
   315                                 %line 625+1 /home/se170/VirtualBox-4.3.28/include/iprt/asmdefs.mac
   316                                 
   317                                 
   318                                 
   319                                 %line 629+1 /home/se170/VirtualBox-4.3.28/include/iprt/asmdefs.mac
   320                                 
   321                                 
   322                                 
   323                                 %line 633+1 /home/se170/VirtualBox-4.3.28/include/iprt/asmdefs.mac
   324                                 
   325                                 
   326                                 
   327                                 
   328                                 
   329                                 
   330                                 
   331                                 
   332                                 
   333                                 
   334                                 
   335                                 
   336                                 
   337                                 
   338                                 
   339                                 %line 666+1 /home/se170/VirtualBox-4.3.28/include/iprt/asmdefs.mac
   340                                 
   341                                 
   342                                 
   343                                 
   344                                 
   345                                 %line 672+1 /home/se170/VirtualBox-4.3.28/include/iprt/asmdefs.mac
   346                                 
   347                                 
   348                                 
   349                                 
   350                                 %line 677+1 /home/se170/VirtualBox-4.3.28/include/iprt/asmdefs.mac
   351                                 
   352                                 
   353                                 
   354                                 %line 681+1 /home/se170/VirtualBox-4.3.28/include/iprt/asmdefs.mac
   355                                 
   356                                 
   357                                 
   358                                 %line 685+1 /home/se170/VirtualBox-4.3.28/include/iprt/asmdefs.mac
   359                                 
   360                                 
   361                                 
   362                                 
   363                                 
   364                                 %line 691+1 /home/se170/VirtualBox-4.3.28/include/iprt/asmdefs.mac
   365                                 
   366                                 
   367                                 
   368                                 
   369                                 %line 696+1 /home/se170/VirtualBox-4.3.28/include/iprt/asmdefs.mac
   370                                 
   371                                 
   372                                 
   373                                 %line 700+1 /home/se170/VirtualBox-4.3.28/include/iprt/asmdefs.mac
   374                                 
   375                                 
   376                                 
   377                                 %line 704+1 /home/se170/VirtualBox-4.3.28/include/iprt/asmdefs.mac
   378                                 
   379                                 
   380                                 
   381                                 
   382                                 
   383                                 
   384                                 
   385                                 
   386                                 %line 721+1 /home/se170/VirtualBox-4.3.28/include/iprt/asmdefs.mac
   387                                 
   388                                 
   389                                 
   390                                 
   391                                 
   392                                 
   393                                 
   394                                 
   395                                 
   396                                 
   397                                 
   398                                 
   399                                 
   400                                 
   401                                 %line 738+1 /home/se170/VirtualBox-4.3.28/include/iprt/asmdefs.mac
   402                                 
   403                                 %line 752+1 /home/se170/VirtualBox-4.3.28/include/iprt/asmdefs.mac
   404                                 
   405                                 
   406                                 
   407                                 
   408                                 
   409                                 
   410                                 
   411                                 
   412                                 
   413                                 
   414                                 
   415                                 
   416                                 
   417                                 %line 770+1 /home/se170/VirtualBox-4.3.28/include/iprt/asmdefs.mac
   418                                 
   419                                 
   420                                 
   421                                 
   422                                 
   423                                 
   424                                 
   425                                 %line 791+1 /home/se170/VirtualBox-4.3.28/include/iprt/asmdefs.mac
   426                                 
   427                                 %line 797+1 /home/se170/VirtualBox-4.3.28/include/iprt/asmdefs.mac
   428                                 
   429                                 
   430                                 
   431                                 
   432                                 
   433                                 
   434                                 
   435                                 
   436                                 
   437                                 
   438                                 
   439                                 
   440                                 
   441                                 
   442                                 
   443                                 
   444                                 
   445                                 
   446                                 
   447                                 
   448                                 
   449                                 
   450                                 
   451                                 
   452                                 
   453                                 
   454                                 
   455                                 
   456                                 
   457                                 
   458                                 
   459                                 
   460                                 
   461                                 %line 853+1 /home/se170/VirtualBox-4.3.28/include/iprt/asmdefs.mac
   462                                 
   463                                 
   464                                 
   465                                 
   466                                 
   467                                 
   468                                 
   469                                 
   470                                 
   471                                 
   472                                 %line 873+1 /home/se170/VirtualBox-4.3.28/include/iprt/asmdefs.mac
   473                                 
   474                                 
   475                                 
   476                                 %line 886+1 /home/se170/VirtualBox-4.3.28/include/iprt/asmdefs.mac
   477                                 
   478                                 %line 8+1 /home/se170/VirtualBox-4.3.28/out/linux.amd64/debug/obj/VMMR3LazyImp/VMMR3LazyLoad.asm
   479                                 
   480                                 
   481                                 
   482                                 
   483                                 
   484                                 [section .text]
   485                                 [global CFGMR3GetRoot:function hidden]
   486                                 %line 14+0 /home/se170/VirtualBox-4.3.28/out/linux.amd64/debug/obj/VMMR3LazyImp/VMMR3LazyLoad.asm
   487                                 CFGMR3GetRoot:
   488                                 %line 15+1 /home/se170/VirtualBox-4.3.28/out/linux.amd64/debug/obj/VMMR3LazyImp/VMMR3LazyLoad.asm
   489 00000000 FF25(F4FFFFFF)          jmp qword [g_pfnCFGMR3GetRoot wrt rip]
   490                                 [global CFGMR3GetRoot_EndProc:function hidden]
   491                                 %line 16+0 /home/se170/VirtualBox-4.3.28/out/linux.amd64/debug/obj/VMMR3LazyImp/VMMR3LazyLoad.asm
   492                                 CFGMR3GetRoot_EndProc:
   493                                 [size CFGMR3GetRoot CFGMR3GetRoot_EndProc - CFGMR3GetRoot]
   494                                 [size CFGMR3GetRoot_EndProc 0]
   495 00000006 CCCCCCCC                db 0xCC, 0xCC, 0xCC, 0xCC
   496                                 %line 17+1 /home/se170/VirtualBox-4.3.28/out/linux.amd64/debug/obj/VMMR3LazyImp/VMMR3LazyLoad.asm
   497                                 [global CFGMR3GetFirstChild:function hidden]
   498                                 %line 17+0 /home/se170/VirtualBox-4.3.28/out/linux.amd64/debug/obj/VMMR3LazyImp/VMMR3LazyLoad.asm
   499                                 CFGMR3GetFirstChild:
   500                                 %line 18+1 /home/se170/VirtualBox-4.3.28/out/linux.amd64/debug/obj/VMMR3LazyImp/VMMR3LazyLoad.asm
   501 0000000A FF25(F4FFFFFF)          jmp qword [g_pfnCFGMR3GetFirstChild wrt rip]
   502                                 [global CFGMR3GetFirstChild_EndProc:function hidden]
   503                                 %line 19+0 /home/se170/VirtualBox-4.3.28/out/linux.amd64/debug/obj/VMMR3LazyImp/VMMR3LazyLoad.asm
   504                                 CFGMR3GetFirstChild_EndProc:
   505                                 [size CFGMR3GetFirstChild CFGMR3GetFirstChild_EndProc - CFGMR3GetFirstChild]
   506                                 [size CFGMR3GetFirstChild_EndProc 0]
   507 00000010 CCCCCCCC                db 0xCC, 0xCC, 0xCC, 0xCC
   508                                 %line 20+1 /home/se170/VirtualBox-4.3.28/out/linux.amd64/debug/obj/VMMR3LazyImp/VMMR3LazyLoad.asm
   509                                 [global CFGMR3GetNextChild:function hidden]
   510                                 %line 20+0 /home/se170/VirtualBox-4.3.28/out/linux.amd64/debug/obj/VMMR3LazyImp/VMMR3LazyLoad.asm
   511                                 CFGMR3GetNextChild:
   512                                 %line 21+1 /home/se170/VirtualBox-4.3.28/out/linux.amd64/debug/obj/VMMR3LazyImp/VMMR3LazyLoad.asm
   513 00000014 FF25(F4FFFFFF)          jmp qword [g_pfnCFGMR3GetNextChild wrt rip]
   514                                 [global CFGMR3GetNextChild_EndProc:function hidden]
   515                                 %line 22+0 /home/se170/VirtualBox-4.3.28/out/linux.amd64/debug/obj/VMMR3LazyImp/VMMR3LazyLoad.asm
   516                                 CFGMR3GetNextChild_EndProc:
   517                                 [size CFGMR3GetNextChild CFGMR3GetNextChild_EndProc - CFGMR3GetNextChild]
   518                                 [size CFGMR3GetNextChild_EndProc 0]
   519 0000001A CCCCCCCC                db 0xCC, 0xCC, 0xCC, 0xCC
   520                                 %line 23+1 /home/se170/VirtualBox-4.3.28/out/linux.amd64/debug/obj/VMMR3LazyImp/VMMR3LazyLoad.asm
   521                                 [global CFGMR3GetNameLen:function hidden]
   522                                 %line 23+0 /home/se170/VirtualBox-4.3.28/out/linux.amd64/debug/obj/VMMR3LazyImp/VMMR3LazyLoad.asm
   523                                 CFGMR3GetNameLen:
   524                                 %line 24+1 /home/se170/VirtualBox-4.3.28/out/linux.amd64/debug/obj/VMMR3LazyImp/VMMR3LazyLoad.asm
   525 0000001E FF25(F4FFFFFF)          jmp qword [g_pfnCFGMR3GetNameLen wrt rip]
   526                                 [global CFGMR3GetNameLen_EndProc:function hidden]
   527                                 %line 25+0 /home/se170/VirtualBox-4.3.28/out/linux.amd64/debug/obj/VMMR3LazyImp/VMMR3LazyLoad.asm
   528                                 CFGMR3GetNameLen_EndProc:
   529                                 [size CFGMR3GetNameLen CFGMR3GetNameLen_EndProc - CFGMR3GetNameLen]
   530                                 [size CFGMR3GetNameLen_EndProc 0]
   531 00000024 CCCCCCCC                db 0xCC, 0xCC, 0xCC, 0xCC
   532                                 %line 26+1 /home/se170/VirtualBox-4.3.28/out/linux.amd64/debug/obj/VMMR3LazyImp/VMMR3LazyLoad.asm
   533                                 [global CFGMR3GetFirstValue:function hidden]
   534                                 %line 26+0 /home/se170/VirtualBox-4.3.28/out/linux.amd64/debug/obj/VMMR3LazyImp/VMMR3LazyLoad.asm
   535                                 CFGMR3GetFirstValue:
   536                                 %line 27+1 /home/se170/VirtualBox-4.3.28/out/linux.amd64/debug/obj/VMMR3LazyImp/VMMR3LazyLoad.asm
   537 00000028 FF25(F4FFFFFF)          jmp qword [g_pfnCFGMR3GetFirstValue wrt rip]
   538                                 [global CFGMR3GetFirstValue_EndProc:function hidden]
   539                                 %line 28+0 /home/se170/VirtualBox-4.3.28/out/linux.amd64/debug/obj/VMMR3LazyImp/VMMR3LazyLoad.asm
   540                                 CFGMR3GetFirstValue_EndProc:
   541                                 [size CFGMR3GetFirstValue CFGMR3GetFirstValue_EndProc - CFGMR3GetFirstValue]
   542                                 [size CFGMR3GetFirstValue_EndProc 0]
   543 0000002E CCCCCCCC                db 0xCC, 0xCC, 0xCC, 0xCC
   544                                 %line 29+1 /home/se170/VirtualBox-4.3.28/out/linux.amd64/debug/obj/VMMR3LazyImp/VMMR3LazyLoad.asm
   545                                 [global CFGMR3GetNextValue:function hidden]
   546                                 %line 29+0 /home/se170/VirtualBox-4.3.28/out/linux.amd64/debug/obj/VMMR3LazyImp/VMMR3LazyLoad.asm
   547                                 CFGMR3GetNextValue:
   548                                 %line 30+1 /home/se170/VirtualBox-4.3.28/out/linux.amd64/debug/obj/VMMR3LazyImp/VMMR3LazyLoad.asm
   549 00000032 FF25(F4FFFFFF)          jmp qword [g_pfnCFGMR3GetNextValue wrt rip]
   550                                 [global CFGMR3GetNextValue_EndProc:function hidden]
   551                                 %line 31+0 /home/se170/VirtualBox-4.3.28/out/linux.amd64/debug/obj/VMMR3LazyImp/VMMR3LazyLoad.asm
   552                                 CFGMR3GetNextValue_EndProc:
   553                                 [size CFGMR3GetNextValue CFGMR3GetNextValue_EndProc - CFGMR3GetNextValue]
   554                                 [size CFGMR3GetNextValue_EndProc 0]
   555 00000038 CCCCCCCC                db 0xCC, 0xCC, 0xCC, 0xCC
   556                                 %line 32+1 /home/se170/VirtualBox-4.3.28/out/linux.amd64/debug/obj/VMMR3LazyImp/VMMR3LazyLoad.asm
   557                                 [global CFGMR3GetValueNameLen:function hidden]
   558                                 %line 32+0 /home/se170/VirtualBox-4.3.28/out/linux.amd64/debug/obj/VMMR3LazyImp/VMMR3LazyLoad.asm
   559                                 CFGMR3GetValueNameLen:
   560                                 %line 33+1 /home/se170/VirtualBox-4.3.28/out/linux.amd64/debug/obj/VMMR3LazyImp/VMMR3LazyLoad.asm
   561 0000003C FF25(F4FFFFFF)          jmp qword [g_pfnCFGMR3GetValueNameLen wrt rip]
   562                                 [global CFGMR3GetValueNameLen_EndProc:function hidden]
   563                                 %line 34+0 /home/se170/VirtualBox-4.3.28/out/linux.amd64/debug/obj/VMMR3LazyImp/VMMR3LazyLoad.asm
   564                                 CFGMR3GetValueNameLen_EndProc:
   565                                 [size CFGMR3GetValueNameLen CFGMR3GetValueNameLen_EndProc - CFGMR3GetValueNameLen]
   566                                 [size CFGMR3GetValueNameLen_EndProc 0]
   567 00000042 CCCCCCCC                db 0xCC, 0xCC, 0xCC, 0xCC
   568                                 %line 35+1 /home/se170/VirtualBox-4.3.28/out/linux.amd64/debug/obj/VMMR3LazyImp/VMMR3LazyLoad.asm
   569                                 [global CFGMR3GetValueType:function hidden]
   570                                 %line 35+0 /home/se170/VirtualBox-4.3.28/out/linux.amd64/debug/obj/VMMR3LazyImp/VMMR3LazyLoad.asm
   571                                 CFGMR3GetValueType:
   572                                 %line 36+1 /home/se170/VirtualBox-4.3.28/out/linux.amd64/debug/obj/VMMR3LazyImp/VMMR3LazyLoad.asm
   573 00000046 FF25(F4FFFFFF)          jmp qword [g_pfnCFGMR3GetValueType wrt rip]
   574                                 [global CFGMR3GetValueType_EndProc:function hidden]
   575                                 %line 37+0 /home/se170/VirtualBox-4.3.28/out/linux.amd64/debug/obj/VMMR3LazyImp/VMMR3LazyLoad.asm
   576                                 CFGMR3GetValueType_EndProc:
   577                                 [size CFGMR3GetValueType CFGMR3GetValueType_EndProc - CFGMR3GetValueType]
   578                                 [size CFGMR3GetValueType_EndProc 0]
   579 0000004C CCCCCCCC                db 0xCC, 0xCC, 0xCC, 0xCC
   580                                 %line 38+1 /home/se170/VirtualBox-4.3.28/out/linux.amd64/debug/obj/VMMR3LazyImp/VMMR3LazyLoad.asm
   581                                 [global CFGMR3Dump:function hidden]
   582                                 %line 38+0 /home/se170/VirtualBox-4.3.28/out/linux.amd64/debug/obj/VMMR3LazyImp/VMMR3LazyLoad.asm
   583                                 CFGMR3Dump:
   584                                 %line 39+1 /home/se170/VirtualBox-4.3.28/out/linux.amd64/debug/obj/VMMR3LazyImp/VMMR3LazyLoad.asm
   585 00000050 FF25(F4FFFFFF)          jmp qword [g_pfnCFGMR3Dump wrt rip]
   586                                 [global CFGMR3Dump_EndProc:function hidden]
   587                                 %line 40+0 /home/se170/VirtualBox-4.3.28/out/linux.amd64/debug/obj/VMMR3LazyImp/VMMR3LazyLoad.asm
   588                                 CFGMR3Dump_EndProc:
   589                                 [size CFGMR3Dump CFGMR3Dump_EndProc - CFGMR3Dump]
   590                                 [size CFGMR3Dump_EndProc 0]
   591 00000056 CCCCCCCC                db 0xCC, 0xCC, 0xCC, 0xCC
   592                                 %line 41+1 /home/se170/VirtualBox-4.3.28/out/linux.amd64/debug/obj/VMMR3LazyImp/VMMR3LazyLoad.asm
   593                                 [global CFGMR3CreateTree:function hidden]
   594                                 %line 41+0 /home/se170/VirtualBox-4.3.28/out/linux.amd64/debug/obj/VMMR3LazyImp/VMMR3LazyLoad.asm
   595                                 CFGMR3CreateTree:
   596                                 %line 42+1 /home/se170/VirtualBox-4.3.28/out/linux.amd64/debug/obj/VMMR3LazyImp/VMMR3LazyLoad.asm
   597 0000005A FF25(F4FFFFFF)          jmp qword [g_pfnCFGMR3CreateTree wrt rip]
   598                                 [global CFGMR3CreateTree_EndProc:function hidden]
   599                                 %line 43+0 /home/se170/VirtualBox-4.3.28/out/linux.amd64/debug/obj/VMMR3LazyImp/VMMR3LazyLoad.asm
   600                                 CFGMR3CreateTree_EndProc:
   601                                 [size CFGMR3CreateTree CFGMR3CreateTree_EndProc - CFGMR3CreateTree]
   602                                 [size CFGMR3CreateTree_EndProc 0]
   603 00000060 CCCCCCCC                db 0xCC, 0xCC, 0xCC, 0xCC
   604                                 %line 44+1 /home/se170/VirtualBox-4.3.28/out/linux.amd64/debug/obj/VMMR3LazyImp/VMMR3LazyLoad.asm
   605                                 [global CFGMR3DestroyTree:function hidden]
   606                                 %line 44+0 /home/se170/VirtualBox-4.3.28/out/linux.amd64/debug/obj/VMMR3LazyImp/VMMR3LazyLoad.asm
   607                                 CFGMR3DestroyTree:
   608                                 %line 45+1 /home/se170/VirtualBox-4.3.28/out/linux.amd64/debug/obj/VMMR3LazyImp/VMMR3LazyLoad.asm
   609 00000064 FF25(F4FFFFFF)          jmp qword [g_pfnCFGMR3DestroyTree wrt rip]
   610                                 [global CFGMR3DestroyTree_EndProc:function hidden]
   611                                 %line 46+0 /home/se170/VirtualBox-4.3.28/out/linux.amd64/debug/obj/VMMR3LazyImp/VMMR3LazyLoad.asm
   612                                 CFGMR3DestroyTree_EndProc:
   613                                 [size CFGMR3DestroyTree CFGMR3DestroyTree_EndProc - CFGMR3DestroyTree]
   614                                 [size CFGMR3DestroyTree_EndProc 0]
   615 0000006A CCCCCCCC                db 0xCC, 0xCC, 0xCC, 0xCC
   616                                 %line 47+1 /home/se170/VirtualBox-4.3.28/out/linux.amd64/debug/obj/VMMR3LazyImp/VMMR3LazyLoad.asm
   617                                 [global CFGMR3GetValueName:function hidden]
   618                                 %line 47+0 /home/se170/VirtualBox-4.3.28/out/linux.amd64/debug/obj/VMMR3LazyImp/VMMR3LazyLoad.asm
   619                                 CFGMR3GetValueName:
   620                                 %line 48+1 /home/se170/VirtualBox-4.3.28/out/linux.amd64/debug/obj/VMMR3LazyImp/VMMR3LazyLoad.asm
   621 0000006E FF25(F4FFFFFF)          jmp qword [g_pfnCFGMR3GetValueName wrt rip]
   622                                 [global CFGMR3GetValueName_EndProc:function hidden]
   623                                 %line 49+0 /home/se170/VirtualBox-4.3.28/out/linux.amd64/debug/obj/VMMR3LazyImp/VMMR3LazyLoad.asm
   624                                 CFGMR3GetValueName_EndProc:
   625                                 [size CFGMR3GetValueName CFGMR3GetValueName_EndProc - CFGMR3GetValueName]
   626                                 [size CFGMR3GetValueName_EndProc 0]
   627 00000074 CCCCCCCC                db 0xCC, 0xCC, 0xCC, 0xCC
   628                                 %line 50+1 /home/se170/VirtualBox-4.3.28/out/linux.amd64/debug/obj/VMMR3LazyImp/VMMR3LazyLoad.asm
   629                                 [global CFGMR3GetName:function hidden]
   630                                 %line 50+0 /home/se170/VirtualBox-4.3.28/out/linux.amd64/debug/obj/VMMR3LazyImp/VMMR3LazyLoad.asm
   631                                 CFGMR3GetName:
   632                                 %line 51+1 /home/se170/VirtualBox-4.3.28/out/linux.amd64/debug/obj/VMMR3LazyImp/VMMR3LazyLoad.asm
   633 00000078 FF25(F4FFFFFF)          jmp qword [g_pfnCFGMR3GetName wrt rip]
   634                                 [global CFGMR3GetName_EndProc:function hidden]
   635                                 %line 52+0 /home/se170/VirtualBox-4.3.28/out/linux.amd64/debug/obj/VMMR3LazyImp/VMMR3LazyLoad.asm
   636                                 CFGMR3GetName_EndProc:
   637                                 [size CFGMR3GetName CFGMR3GetName_EndProc - CFGMR3GetName]
   638                                 [size CFGMR3GetName_EndProc 0]
   639 0000007E CCCCCCCC                db 0xCC, 0xCC, 0xCC, 0xCC
   640                                 %line 53+1 /home/se170/VirtualBox-4.3.28/out/linux.amd64/debug/obj/VMMR3LazyImp/VMMR3LazyLoad.asm
   641                                 [global CFGMR3RemoveNode:function hidden]
   642                                 %line 53+0 /home/se170/VirtualBox-4.3.28/out/linux.amd64/debug/obj/VMMR3LazyImp/VMMR3LazyLoad.asm
   643                                 CFGMR3RemoveNode:
   644                                 %line 54+1 /home/se170/VirtualBox-4.3.28/out/linux.amd64/debug/obj/VMMR3LazyImp/VMMR3LazyLoad.asm
   645 00000082 FF25(F4FFFFFF)          jmp qword [g_pfnCFGMR3RemoveNode wrt rip]
   646                                 [global CFGMR3RemoveNode_EndProc:function hidden]
   647                                 %line 55+0 /home/se170/VirtualBox-4.3.28/out/linux.amd64/debug/obj/VMMR3LazyImp/VMMR3LazyLoad.asm
   648                                 CFGMR3RemoveNode_EndProc:
   649                                 [size CFGMR3RemoveNode CFGMR3RemoveNode_EndProc - CFGMR3RemoveNode]
   650                                 [size CFGMR3RemoveNode_EndProc 0]
   651 00000088 CCCCCCCC                db 0xCC, 0xCC, 0xCC, 0xCC
   652                                 %line 56+1 /home/se170/VirtualBox-4.3.28/out/linux.amd64/debug/obj/VMMR3LazyImp/VMMR3LazyLoad.asm
   653                                 [global CFGMR3InsertBytes:function hidden]
   654                                 %line 56+0 /home/se170/VirtualBox-4.3.28/out/linux.amd64/debug/obj/VMMR3LazyImp/VMMR3LazyLoad.asm
   655                                 CFGMR3InsertBytes:
   656                                 %line 57+1 /home/se170/VirtualBox-4.3.28/out/linux.amd64/debug/obj/VMMR3LazyImp/VMMR3LazyLoad.asm
   657 0000008C FF25(F4FFFFFF)          jmp qword [g_pfnCFGMR3InsertBytes wrt rip]
   658                                 [global CFGMR3InsertBytes_EndProc:function hidden]
   659                                 %line 58+0 /home/se170/VirtualBox-4.3.28/out/linux.amd64/debug/obj/VMMR3LazyImp/VMMR3LazyLoad.asm
   660                                 CFGMR3InsertBytes_EndProc:
   661                                 [size CFGMR3InsertBytes CFGMR3InsertBytes_EndProc - CFGMR3InsertBytes]
   662                                 [size CFGMR3InsertBytes_EndProc 0]
   663 00000092 CCCCCCCC                db 0xCC, 0xCC, 0xCC, 0xCC
   664                                 %line 59+1 /home/se170/VirtualBox-4.3.28/out/linux.amd64/debug/obj/VMMR3LazyImp/VMMR3LazyLoad.asm
   665                                 [global CFGMR3InsertStringFV:function hidden]
   666                                 %line 59+0 /home/se170/VirtualBox-4.3.28/out/linux.amd64/debug/obj/VMMR3LazyImp/VMMR3LazyLoad.asm
   667                                 CFGMR3InsertStringFV:
   668                                 %line 60+1 /home/se170/VirtualBox-4.3.28/out/linux.amd64/debug/obj/VMMR3LazyImp/VMMR3LazyLoad.asm
   669 00000096 FF25(F4FFFFFF)          jmp qword [g_pfnCFGMR3InsertStringFV wrt rip]
   670                                 [global CFGMR3InsertStringFV_EndProc:function hidden]
   671                                 %line 61+0 /home/se170/VirtualBox-4.3.28/out/linux.amd64/debug/obj/VMMR3LazyImp/VMMR3LazyLoad.asm
   672                                 CFGMR3InsertStringFV_EndProc:
   673                                 [size CFGMR3InsertStringFV CFGMR3InsertStringFV_EndProc - CFGMR3InsertStringFV]
   674                                 [size CFGMR3InsertStringFV_EndProc 0]
   675 0000009C CCCCCCCC                db 0xCC, 0xCC, 0xCC, 0xCC
   676                                 %line 62+1 /home/se170/VirtualBox-4.3.28/out/linux.amd64/debug/obj/VMMR3LazyImp/VMMR3LazyLoad.asm
   677                                 [global CFGMR3InsertStringF:function hidden]
   678                                 %line 62+0 /home/se170/VirtualBox-4.3.28/out/linux.amd64/debug/obj/VMMR3LazyImp/VMMR3LazyLoad.asm
   679                                 CFGMR3InsertStringF:
   680                                 %line 63+1 /home/se170/VirtualBox-4.3.28/out/linux.amd64/debug/obj/VMMR3LazyImp/VMMR3LazyLoad.asm
   681 000000A0 FF25(F4FFFFFF)          jmp qword [g_pfnCFGMR3InsertStringF wrt rip]
   682                                 [global CFGMR3InsertStringF_EndProc:function hidden]
   683                                 %line 64+0 /home/se170/VirtualBox-4.3.28/out/linux.amd64/debug/obj/VMMR3LazyImp/VMMR3LazyLoad.asm
   684                                 CFGMR3InsertStringF_EndProc:
   685                                 [size CFGMR3InsertStringF CFGMR3InsertStringF_EndProc - CFGMR3InsertStringF]
   686                                 [size CFGMR3InsertStringF_EndProc 0]
   687 000000A6 CCCCCCCC                db 0xCC, 0xCC, 0xCC, 0xCC
   688                                 %line 65+1 /home/se170/VirtualBox-4.3.28/out/linux.amd64/debug/obj/VMMR3LazyImp/VMMR3LazyLoad.asm
   689                                 [global CFGMR3InsertStringN:function hidden]
   690                                 %line 65+0 /home/se170/VirtualBox-4.3.28/out/linux.amd64/debug/obj/VMMR3LazyImp/VMMR3LazyLoad.asm
   691                                 CFGMR3InsertStringN:
   692                                 %line 66+1 /home/se170/VirtualBox-4.3.28/out/linux.amd64/debug/obj/VMMR3LazyImp/VMMR3LazyLoad.asm
   693 000000AA FF25(F4FFFFFF)          jmp qword [g_pfnCFGMR3InsertStringN wrt rip]
   694                                 [global CFGMR3InsertStringN_EndProc:function hidden]
   695                                 %line 67+0 /home/se170/VirtualBox-4.3.28/out/linux.amd64/debug/obj/VMMR3LazyImp/VMMR3LazyLoad.asm
   696                                 CFGMR3InsertStringN_EndProc:
   697                                 [size CFGMR3InsertStringN CFGMR3InsertStringN_EndProc - CFGMR3InsertStringN]
   698                                 [size CFGMR3InsertStringN_EndProc 0]
   699 000000B0 CCCCCCCC                db 0xCC, 0xCC, 0xCC, 0xCC
   700                                 %line 68+1 /home/se170/VirtualBox-4.3.28/out/linux.amd64/debug/obj/VMMR3LazyImp/VMMR3LazyLoad.asm
   701                                 [global CFGMR3InsertString:function hidden]
   702                                 %line 68+0 /home/se170/VirtualBox-4.3.28/out/linux.amd64/debug/obj/VMMR3LazyImp/VMMR3LazyLoad.asm
   703                                 CFGMR3InsertString:
   704                                 %line 69+1 /home/se170/VirtualBox-4.3.28/out/linux.amd64/debug/obj/VMMR3LazyImp/VMMR3LazyLoad.asm
   705 000000B4 FF25(F4FFFFFF)          jmp qword [g_pfnCFGMR3InsertString wrt rip]
   706                                 [global CFGMR3InsertString_EndProc:function hidden]
   707                                 %line 70+0 /home/se170/VirtualBox-4.3.28/out/linux.amd64/debug/obj/VMMR3LazyImp/VMMR3LazyLoad.asm
   708                                 CFGMR3InsertString_EndProc:
   709                                 [size CFGMR3InsertString CFGMR3InsertString_EndProc - CFGMR3InsertString]
   710                                 [size CFGMR3InsertString_EndProc 0]
   711 000000BA CCCCCCCC                db 0xCC, 0xCC, 0xCC, 0xCC
   712                                 %line 71+1 /home/se170/VirtualBox-4.3.28/out/linux.amd64/debug/obj/VMMR3LazyImp/VMMR3LazyLoad.asm
   713                                 [global CFGMR3InsertStringW:function hidden]
   714                                 %line 71+0 /home/se170/VirtualBox-4.3.28/out/linux.amd64/debug/obj/VMMR3LazyImp/VMMR3LazyLoad.asm
   715                                 CFGMR3InsertStringW:
   716                                 %line 72+1 /home/se170/VirtualBox-4.3.28/out/linux.amd64/debug/obj/VMMR3LazyImp/VMMR3LazyLoad.asm
   717 000000BE FF25(F4FFFFFF)          jmp qword [g_pfnCFGMR3InsertStringW wrt rip]
   718                                 [global CFGMR3InsertStringW_EndProc:function hidden]
   719                                 %line 73+0 /home/se170/VirtualBox-4.3.28/out/linux.amd64/debug/obj/VMMR3LazyImp/VMMR3LazyLoad.asm
   720                                 CFGMR3InsertStringW_EndProc:
   721                                 [size CFGMR3InsertStringW CFGMR3InsertStringW_EndProc - CFGMR3InsertStringW]
   722                                 [size CFGMR3InsertStringW_EndProc 0]
   723 000000C4 CCCCCCCC                db 0xCC, 0xCC, 0xCC, 0xCC
   724                                 %line 74+1 /home/se170/VirtualBox-4.3.28/out/linux.amd64/debug/obj/VMMR3LazyImp/VMMR3LazyLoad.asm
   725                                 [global CFGMR3InsertInteger:function hidden]
   726                                 %line 74+0 /home/se170/VirtualBox-4.3.28/out/linux.amd64/debug/obj/VMMR3LazyImp/VMMR3LazyLoad.asm
   727                                 CFGMR3InsertInteger:
   728                                 %line 75+1 /home/se170/VirtualBox-4.3.28/out/linux.amd64/debug/obj/VMMR3LazyImp/VMMR3LazyLoad.asm
   729 000000C8 FF25(F4FFFFFF)          jmp qword [g_pfnCFGMR3InsertInteger wrt rip]
   730                                 [global CFGMR3InsertInteger_EndProc:function hidden]
   731                                 %line 76+0 /home/se170/VirtualBox-4.3.28/out/linux.amd64/debug/obj/VMMR3LazyImp/VMMR3LazyLoad.asm
   732                                 CFGMR3InsertInteger_EndProc:
   733                                 [size CFGMR3InsertInteger CFGMR3InsertInteger_EndProc - CFGMR3InsertInteger]
   734                                 [size CFGMR3InsertInteger_EndProc 0]
   735 000000CE CCCCCCCC                db 0xCC, 0xCC, 0xCC, 0xCC
   736                                 %line 77+1 /home/se170/VirtualBox-4.3.28/out/linux.amd64/debug/obj/VMMR3LazyImp/VMMR3LazyLoad.asm
   737                                 [global CFGMR3QueryStringAllocDef:function hidden]
   738                                 %line 77+0 /home/se170/VirtualBox-4.3.28/out/linux.amd64/debug/obj/VMMR3LazyImp/VMMR3LazyLoad.asm
   739                                 CFGMR3QueryStringAllocDef:
   740                                 %line 78+1 /home/se170/VirtualBox-4.3.28/out/linux.amd64/debug/obj/VMMR3LazyImp/VMMR3LazyLoad.asm
   741 000000D2 FF25(F4FFFFFF)          jmp qword [g_pfnCFGMR3QueryStringAllocDef wrt rip]
   742                                 [global CFGMR3QueryStringAllocDef_EndProc:function hidden]
   743                                 %line 79+0 /home/se170/VirtualBox-4.3.28/out/linux.amd64/debug/obj/VMMR3LazyImp/VMMR3LazyLoad.asm
   744                                 CFGMR3QueryStringAllocDef_EndProc:
   745                                 [size CFGMR3QueryStringAllocDef CFGMR3QueryStringAllocDef_EndProc - CFGMR3QueryStringAllocDef]
   746                                 [size CFGMR3QueryStringAllocDef_EndProc 0]
   747 000000D8 CCCCCCCC                db 0xCC, 0xCC, 0xCC, 0xCC
   748                                 %line 80+1 /home/se170/VirtualBox-4.3.28/out/linux.amd64/debug/obj/VMMR3LazyImp/VMMR3LazyLoad.asm
   749                                 [global CFGMR3RemoveValue:function hidden]
   750                                 %line 80+0 /home/se170/VirtualBox-4.3.28/out/linux.amd64/debug/obj/VMMR3LazyImp/VMMR3LazyLoad.asm
   751                                 CFGMR3RemoveValue:
   752                                 %line 81+1 /home/se170/VirtualBox-4.3.28/out/linux.amd64/debug/obj/VMMR3LazyImp/VMMR3LazyLoad.asm
   753 000000DC FF25(F4FFFFFF)          jmp qword [g_pfnCFGMR3RemoveValue wrt rip]
   754                                 [global CFGMR3RemoveValue_EndProc:function hidden]
   755                                 %line 82+0 /home/se170/VirtualBox-4.3.28/out/linux.amd64/debug/obj/VMMR3LazyImp/VMMR3LazyLoad.asm
   756                                 CFGMR3RemoveValue_EndProc:
   757                                 [size CFGMR3RemoveValue CFGMR3RemoveValue_EndProc - CFGMR3RemoveValue]
   758                                 [size CFGMR3RemoveValue_EndProc 0]
   759 000000E2 CCCCCCCC                db 0xCC, 0xCC, 0xCC, 0xCC
   760                                 %line 83+1 /home/se170/VirtualBox-4.3.28/out/linux.amd64/debug/obj/VMMR3LazyImp/VMMR3LazyLoad.asm
   761                                 [global CFGMR3QueryIntegerDef:function hidden]
   762                                 %line 83+0 /home/se170/VirtualBox-4.3.28/out/linux.amd64/debug/obj/VMMR3LazyImp/VMMR3LazyLoad.asm
   763                                 CFGMR3QueryIntegerDef:
   764                                 %line 84+1 /home/se170/VirtualBox-4.3.28/out/linux.amd64/debug/obj/VMMR3LazyImp/VMMR3LazyLoad.asm
   765 000000E6 FF25(F4FFFFFF)          jmp qword [g_pfnCFGMR3QueryIntegerDef wrt rip]
   766                                 [global CFGMR3QueryIntegerDef_EndProc:function hidden]
   767                                 %line 85+0 /home/se170/VirtualBox-4.3.28/out/linux.amd64/debug/obj/VMMR3LazyImp/VMMR3LazyLoad.asm
   768                                 CFGMR3QueryIntegerDef_EndProc:
   769                                 [size CFGMR3QueryIntegerDef CFGMR3QueryIntegerDef_EndProc - CFGMR3QueryIntegerDef]
   770                                 [size CFGMR3QueryIntegerDef_EndProc 0]
   771 000000EC CCCCCCCC                db 0xCC, 0xCC, 0xCC, 0xCC
   772                                 %line 86+1 /home/se170/VirtualBox-4.3.28/out/linux.amd64/debug/obj/VMMR3LazyImp/VMMR3LazyLoad.asm
   773                                 [global CFGMR3QueryGCPtrSDef:function hidden]
   774                                 %line 86+0 /home/se170/VirtualBox-4.3.28/out/linux.amd64/debug/obj/VMMR3LazyImp/VMMR3LazyLoad.asm
   775                                 CFGMR3QueryGCPtrSDef:
   776                                 %line 87+1 /home/se170/VirtualBox-4.3.28/out/linux.amd64/debug/obj/VMMR3LazyImp/VMMR3LazyLoad.asm
   777 000000F0 FF25(F4FFFFFF)          jmp qword [g_pfnCFGMR3QueryGCPtrSDef wrt rip]
   778                                 [global CFGMR3QueryGCPtrSDef_EndProc:function hidden]
   779                                 %line 88+0 /home/se170/VirtualBox-4.3.28/out/linux.amd64/debug/obj/VMMR3LazyImp/VMMR3LazyLoad.asm
   780                                 CFGMR3QueryGCPtrSDef_EndProc:
   781                                 [size CFGMR3QueryGCPtrSDef CFGMR3QueryGCPtrSDef_EndProc - CFGMR3QueryGCPtrSDef]
   782                                 [size CFGMR3QueryGCPtrSDef_EndProc 0]
   783 000000F6 CCCCCCCC                db 0xCC, 0xCC, 0xCC, 0xCC
   784                                 %line 89+1 /home/se170/VirtualBox-4.3.28/out/linux.amd64/debug/obj/VMMR3LazyImp/VMMR3LazyLoad.asm
   785                                 [global CFGMR3QueryGCPtrUDef:function hidden]
   786                                 %line 89+0 /home/se170/VirtualBox-4.3.28/out/linux.amd64/debug/obj/VMMR3LazyImp/VMMR3LazyLoad.asm
   787                                 CFGMR3QueryGCPtrUDef:
   788                                 %line 90+1 /home/se170/VirtualBox-4.3.28/out/linux.amd64/debug/obj/VMMR3LazyImp/VMMR3LazyLoad.asm
   789 000000FA FF25(F4FFFFFF)          jmp qword [g_pfnCFGMR3QueryGCPtrUDef wrt rip]
   790                                 [global CFGMR3QueryGCPtrUDef_EndProc:function hidden]
   791                                 %line 91+0 /home/se170/VirtualBox-4.3.28/out/linux.amd64/debug/obj/VMMR3LazyImp/VMMR3LazyLoad.asm
   792                                 CFGMR3QueryGCPtrUDef_EndProc:
   793                                 [size CFGMR3QueryGCPtrUDef CFGMR3QueryGCPtrUDef_EndProc - CFGMR3QueryGCPtrUDef]
   794                                 [size CFGMR3QueryGCPtrUDef_EndProc 0]
   795 00000100 CCCCCCCC                db 0xCC, 0xCC, 0xCC, 0xCC
   796                                 %line 92+1 /home/se170/VirtualBox-4.3.28/out/linux.amd64/debug/obj/VMMR3LazyImp/VMMR3LazyLoad.asm
   797                                 [global CFGMR3QueryGCPtrDef:function hidden]
   798                                 %line 92+0 /home/se170/VirtualBox-4.3.28/out/linux.amd64/debug/obj/VMMR3LazyImp/VMMR3LazyLoad.asm
   799                                 CFGMR3QueryGCPtrDef:
   800                                 %line 93+1 /home/se170/VirtualBox-4.3.28/out/linux.amd64/debug/obj/VMMR3LazyImp/VMMR3LazyLoad.asm
   801 00000104 FF25(F4FFFFFF)          jmp qword [g_pfnCFGMR3QueryGCPtrDef wrt rip]
   802                                 [global CFGMR3QueryGCPtrDef_EndProc:function hidden]
   803                                 %line 94+0 /home/se170/VirtualBox-4.3.28/out/linux.amd64/debug/obj/VMMR3LazyImp/VMMR3LazyLoad.asm
   804                                 CFGMR3QueryGCPtrDef_EndProc:
   805                                 [size CFGMR3QueryGCPtrDef CFGMR3QueryGCPtrDef_EndProc - CFGMR3QueryGCPtrDef]
   806                                 [size CFGMR3QueryGCPtrDef_EndProc 0]
   807 0000010A CCCCCCCC                db 0xCC, 0xCC, 0xCC, 0xCC
   808                                 %line 95+1 /home/se170/VirtualBox-4.3.28/out/linux.amd64/debug/obj/VMMR3LazyImp/VMMR3LazyLoad.asm
   809                                 [global CFGMR3QueryPtrDef:function hidden]
   810                                 %line 95+0 /home/se170/VirtualBox-4.3.28/out/linux.amd64/debug/obj/VMMR3LazyImp/VMMR3LazyLoad.asm
   811                                 CFGMR3QueryPtrDef:
   812                                 %line 96+1 /home/se170/VirtualBox-4.3.28/out/linux.amd64/debug/obj/VMMR3LazyImp/VMMR3LazyLoad.asm
   813 0000010E FF25(F4FFFFFF)          jmp qword [g_pfnCFGMR3QueryPtrDef wrt rip]
   814                                 [global CFGMR3QueryPtrDef_EndProc:function hidden]
   815                                 %line 97+0 /home/se170/VirtualBox-4.3.28/out/linux.amd64/debug/obj/VMMR3LazyImp/VMMR3LazyLoad.asm
   816                                 CFGMR3QueryPtrDef_EndProc:
   817                                 [size CFGMR3QueryPtrDef CFGMR3QueryPtrDef_EndProc - CFGMR3QueryPtrDef]
   818                                 [size CFGMR3QueryPtrDef_EndProc 0]
   819 00000114 CCCCCCCC                db 0xCC, 0xCC, 0xCC, 0xCC
   820                                 %line 98+1 /home/se170/VirtualBox-4.3.28/out/linux.amd64/debug/obj/VMMR3LazyImp/VMMR3LazyLoad.asm
   821                                 [global CFGMR3QueryBoolDef:function hidden]
   822                                 %line 98+0 /home/se170/VirtualBox-4.3.28/out/linux.amd64/debug/obj/VMMR3LazyImp/VMMR3LazyLoad.asm
   823                                 CFGMR3QueryBoolDef:
   824                                 %line 99+1 /home/se170/VirtualBox-4.3.28/out/linux.amd64/debug/obj/VMMR3LazyImp/VMMR3LazyLoad.asm
   825 00000118 FF25(F4FFFFFF)          jmp qword [g_pfnCFGMR3QueryBoolDef wrt rip]
   826                                 [global CFGMR3QueryBoolDef_EndProc:function hidden]
   827                                 %line 100+0 /home/se170/VirtualBox-4.3.28/out/linux.amd64/debug/obj/VMMR3LazyImp/VMMR3LazyLoad.asm
   828                                 CFGMR3QueryBoolDef_EndProc:
   829                                 [size CFGMR3QueryBoolDef CFGMR3QueryBoolDef_EndProc - CFGMR3QueryBoolDef]
   830                                 [size CFGMR3QueryBoolDef_EndProc 0]
   831 0000011E CCCCCCCC                db 0xCC, 0xCC, 0xCC, 0xCC
   832                                 %line 101+1 /home/se170/VirtualBox-4.3.28/out/linux.amd64/debug/obj/VMMR3LazyImp/VMMR3LazyLoad.asm
   833                                 [global CFGMR3QueryS8Def:function hidden]
   834                                 %line 101+0 /home/se170/VirtualBox-4.3.28/out/linux.amd64/debug/obj/VMMR3LazyImp/VMMR3LazyLoad.asm
   835                                 CFGMR3QueryS8Def:
   836                                 %line 102+1 /home/se170/VirtualBox-4.3.28/out/linux.amd64/debug/obj/VMMR3LazyImp/VMMR3LazyLoad.asm
   837 00000122 FF25(F4FFFFFF)          jmp qword [g_pfnCFGMR3QueryS8Def wrt rip]
   838                                 [global CFGMR3QueryS8Def_EndProc:function hidden]
   839                                 %line 103+0 /home/se170/VirtualBox-4.3.28/out/linux.amd64/debug/obj/VMMR3LazyImp/VMMR3LazyLoad.asm
   840                                 CFGMR3QueryS8Def_EndProc:
   841                                 [size CFGMR3QueryS8Def CFGMR3QueryS8Def_EndProc - CFGMR3QueryS8Def]
   842                                 [size CFGMR3QueryS8Def_EndProc 0]
   843 00000128 CCCCCCCC                db 0xCC, 0xCC, 0xCC, 0xCC
   844                                 %line 104+1 /home/se170/VirtualBox-4.3.28/out/linux.amd64/debug/obj/VMMR3LazyImp/VMMR3LazyLoad.asm
   845                                 [global CFGMR3QueryU8Def:function hidden]
   846                                 %line 104+0 /home/se170/VirtualBox-4.3.28/out/linux.amd64/debug/obj/VMMR3LazyImp/VMMR3LazyLoad.asm
   847                                 CFGMR3QueryU8Def:
   848                                 %line 105+1 /home/se170/VirtualBox-4.3.28/out/linux.amd64/debug/obj/VMMR3LazyImp/VMMR3LazyLoad.asm
   849 0000012C FF25(F4FFFFFF)          jmp qword [g_pfnCFGMR3QueryU8Def wrt rip]
   850                                 [global CFGMR3QueryU8Def_EndProc:function hidden]
   851                                 %line 106+0 /home/se170/VirtualBox-4.3.28/out/linux.amd64/debug/obj/VMMR3LazyImp/VMMR3LazyLoad.asm
   852                                 CFGMR3QueryU8Def_EndProc:
   853                                 [size CFGMR3QueryU8Def CFGMR3QueryU8Def_EndProc - CFGMR3QueryU8Def]
   854                                 [size CFGMR3QueryU8Def_EndProc 0]
   855 00000132 CCCCCCCC                db 0xCC, 0xCC, 0xCC, 0xCC
   856                                 %line 107+1 /home/se170/VirtualBox-4.3.28/out/linux.amd64/debug/obj/VMMR3LazyImp/VMMR3LazyLoad.asm
   857                                 [global CFGMR3QueryS16Def:function hidden]
   858                                 %line 107+0 /home/se170/VirtualBox-4.3.28/out/linux.amd64/debug/obj/VMMR3LazyImp/VMMR3LazyLoad.asm
   859                                 CFGMR3QueryS16Def:
   860                                 %line 108+1 /home/se170/VirtualBox-4.3.28/out/linux.amd64/debug/obj/VMMR3LazyImp/VMMR3LazyLoad.asm
   861 00000136 FF25(F4FFFFFF)          jmp qword [g_pfnCFGMR3QueryS16Def wrt rip]
   862                                 [global CFGMR3QueryS16Def_EndProc:function hidden]
   863                                 %line 109+0 /home/se170/VirtualBox-4.3.28/out/linux.amd64/debug/obj/VMMR3LazyImp/VMMR3LazyLoad.asm
   864                                 CFGMR3QueryS16Def_EndProc:
   865                                 [size CFGMR3QueryS16Def CFGMR3QueryS16Def_EndProc - CFGMR3QueryS16Def]
   866                                 [size CFGMR3QueryS16Def_EndProc 0]
   867 0000013C CCCCCCCC                db 0xCC, 0xCC, 0xCC, 0xCC
   868                                 %line 110+1 /home/se170/VirtualBox-4.3.28/out/linux.amd64/debug/obj/VMMR3LazyImp/VMMR3LazyLoad.asm
   869                                 [global CFGMR3QueryU16Def:function hidden]
   870                                 %line 110+0 /home/se170/VirtualBox-4.3.28/out/linux.amd64/debug/obj/VMMR3LazyImp/VMMR3LazyLoad.asm
   871                                 CFGMR3QueryU16Def:
   872                                 %line 111+1 /home/se170/VirtualBox-4.3.28/out/linux.amd64/debug/obj/VMMR3LazyImp/VMMR3LazyLoad.asm
   873 00000140 FF25(F4FFFFFF)          jmp qword [g_pfnCFGMR3QueryU16Def wrt rip]
   874                                 [global CFGMR3QueryU16Def_EndProc:function hidden]
   875                                 %line 112+0 /home/se170/VirtualBox-4.3.28/out/linux.amd64/debug/obj/VMMR3LazyImp/VMMR3LazyLoad.asm
   876                                 CFGMR3QueryU16Def_EndProc:
   877                                 [size CFGMR3QueryU16Def CFGMR3QueryU16Def_EndProc - CFGMR3QueryU16Def]
   878                                 [size CFGMR3QueryU16Def_EndProc 0]
   879 00000146 CCCCCCCC                db 0xCC, 0xCC, 0xCC, 0xCC
   880                                 %line 113+1 /home/se170/VirtualBox-4.3.28/out/linux.amd64/debug/obj/VMMR3LazyImp/VMMR3LazyLoad.asm
   881                                 [global CFGMR3QueryPortDef:function hidden]
   882                                 %line 113+0 /home/se170/VirtualBox-4.3.28/out/linux.amd64/debug/obj/VMMR3LazyImp/VMMR3LazyLoad.asm
   883                                 CFGMR3QueryPortDef:
   884                                 %line 114+1 /home/se170/VirtualBox-4.3.28/out/linux.amd64/debug/obj/VMMR3LazyImp/VMMR3LazyLoad.asm
   885 0000014A FF25(F4FFFFFF)          jmp qword [g_pfnCFGMR3QueryPortDef wrt rip]
   886                                 [global CFGMR3QueryPortDef_EndProc:function hidden]
   887                                 %line 115+0 /home/se170/VirtualBox-4.3.28/out/linux.amd64/debug/obj/VMMR3LazyImp/VMMR3LazyLoad.asm
   888                                 CFGMR3QueryPortDef_EndProc:
   889                                 [size CFGMR3QueryPortDef CFGMR3QueryPortDef_EndProc - CFGMR3QueryPortDef]
   890                                 [size CFGMR3QueryPortDef_EndProc 0]
   891 00000150 CCCCCCCC                db 0xCC, 0xCC, 0xCC, 0xCC
   892                                 %line 116+1 /home/se170/VirtualBox-4.3.28/out/linux.amd64/debug/obj/VMMR3LazyImp/VMMR3LazyLoad.asm
   893                                 [global CFGMR3QueryS32Def:function hidden]
   894                                 %line 116+0 /home/se170/VirtualBox-4.3.28/out/linux.amd64/debug/obj/VMMR3LazyImp/VMMR3LazyLoad.asm
   895                                 CFGMR3QueryS32Def:
   896                                 %line 117+1 /home/se170/VirtualBox-4.3.28/out/linux.amd64/debug/obj/VMMR3LazyImp/VMMR3LazyLoad.asm
   897 00000154 FF25(F4FFFFFF)          jmp qword [g_pfnCFGMR3QueryS32Def wrt rip]
   898                                 [global CFGMR3QueryS32Def_EndProc:function hidden]
   899                                 %line 118+0 /home/se170/VirtualBox-4.3.28/out/linux.amd64/debug/obj/VMMR3LazyImp/VMMR3LazyLoad.asm
   900                                 CFGMR3QueryS32Def_EndProc:
   901                                 [size CFGMR3QueryS32Def CFGMR3QueryS32Def_EndProc - CFGMR3QueryS32Def]
   902                                 [size CFGMR3QueryS32Def_EndProc 0]
   903 0000015A CCCCCCCC                db 0xCC, 0xCC, 0xCC, 0xCC
   904                                 %line 119+1 /home/se170/VirtualBox-4.3.28/out/linux.amd64/debug/obj/VMMR3LazyImp/VMMR3LazyLoad.asm
   905                                 [global CFGMR3QuerySIntDef:function hidden]
   906                                 %line 119+0 /home/se170/VirtualBox-4.3.28/out/linux.amd64/debug/obj/VMMR3LazyImp/VMMR3LazyLoad.asm
   907                                 CFGMR3QuerySIntDef:
   908                                 %line 120+1 /home/se170/VirtualBox-4.3.28/out/linux.amd64/debug/obj/VMMR3LazyImp/VMMR3LazyLoad.asm
   909 0000015E FF25(F4FFFFFF)          jmp qword [g_pfnCFGMR3QuerySIntDef wrt rip]
   910                                 [global CFGMR3QuerySIntDef_EndProc:function hidden]
   911                                 %line 121+0 /home/se170/VirtualBox-4.3.28/out/linux.amd64/debug/obj/VMMR3LazyImp/VMMR3LazyLoad.asm
   912                                 CFGMR3QuerySIntDef_EndProc:
   913                                 [size CFGMR3QuerySIntDef CFGMR3QuerySIntDef_EndProc - CFGMR3QuerySIntDef]
   914                                 [size CFGMR3QuerySIntDef_EndProc 0]
   915 00000164 CCCCCCCC                db 0xCC, 0xCC, 0xCC, 0xCC
   916                                 %line 122+1 /home/se170/VirtualBox-4.3.28/out/linux.amd64/debug/obj/VMMR3LazyImp/VMMR3LazyLoad.asm
   917                                 [global CFGMR3QueryU32Def:function hidden]
   918                                 %line 122+0 /home/se170/VirtualBox-4.3.28/out/linux.amd64/debug/obj/VMMR3LazyImp/VMMR3LazyLoad.asm
   919                                 CFGMR3QueryU32Def:
   920                                 %line 123+1 /home/se170/VirtualBox-4.3.28/out/linux.amd64/debug/obj/VMMR3LazyImp/VMMR3LazyLoad.asm
   921 00000168 FF25(F4FFFFFF)          jmp qword [g_pfnCFGMR3QueryU32Def wrt rip]
   922                                 [global CFGMR3QueryU32Def_EndProc:function hidden]
   923                                 %line 124+0 /home/se170/VirtualBox-4.3.28/out/linux.amd64/debug/obj/VMMR3LazyImp/VMMR3LazyLoad.asm
   924                                 CFGMR3QueryU32Def_EndProc:
   925                                 [size CFGMR3QueryU32Def CFGMR3QueryU32Def_EndProc - CFGMR3QueryU32Def]
   926                                 [size CFGMR3QueryU32Def_EndProc 0]
   927 0000016E CCCCCCCC                db 0xCC, 0xCC, 0xCC, 0xCC
   928                                 %line 125+1 /home/se170/VirtualBox-4.3.28/out/linux.amd64/debug/obj/VMMR3LazyImp/VMMR3LazyLoad.asm
   929                                 [global CFGMR3QueryUIntDef:function hidden]
   930                                 %line 125+0 /home/se170/VirtualBox-4.3.28/out/linux.amd64/debug/obj/VMMR3LazyImp/VMMR3LazyLoad.asm
   931                                 CFGMR3QueryUIntDef:
   932                                 %line 126+1 /home/se170/VirtualBox-4.3.28/out/linux.amd64/debug/obj/VMMR3LazyImp/VMMR3LazyLoad.asm
   933 00000172 FF25(F4FFFFFF)          jmp qword [g_pfnCFGMR3QueryUIntDef wrt rip]
   934                                 [global CFGMR3QueryUIntDef_EndProc:function hidden]
   935                                 %line 127+0 /home/se170/VirtualBox-4.3.28/out/linux.amd64/debug/obj/VMMR3LazyImp/VMMR3LazyLoad.asm
   936                                 CFGMR3QueryUIntDef_EndProc:
   937                                 [size CFGMR3QueryUIntDef CFGMR3QueryUIntDef_EndProc - CFGMR3QueryUIntDef]
   938                                 [size CFGMR3QueryUIntDef_EndProc 0]
   939 00000178 CCCCCCCC                db 0xCC, 0xCC, 0xCC, 0xCC
   940                                 %line 128+1 /home/se170/VirtualBox-4.3.28/out/linux.amd64/debug/obj/VMMR3LazyImp/VMMR3LazyLoad.asm
   941                                 [global CFGMR3QueryS64Def:function hidden]
   942                                 %line 128+0 /home/se170/VirtualBox-4.3.28/out/linux.amd64/debug/obj/VMMR3LazyImp/VMMR3LazyLoad.asm
   943                                 CFGMR3QueryS64Def:
   944                                 %line 129+1 /home/se170/VirtualBox-4.3.28/out/linux.amd64/debug/obj/VMMR3LazyImp/VMMR3LazyLoad.asm
   945 0000017C FF25(F4FFFFFF)          jmp qword [g_pfnCFGMR3QueryS64Def wrt rip]
   946                                 [global CFGMR3QueryS64Def_EndProc:function hidden]
   947                                 %line 130+0 /home/se170/VirtualBox-4.3.28/out/linux.amd64/debug/obj/VMMR3LazyImp/VMMR3LazyLoad.asm
   948                                 CFGMR3QueryS64Def_EndProc:
   949                                 [size CFGMR3QueryS64Def CFGMR3QueryS64Def_EndProc - CFGMR3QueryS64Def]
   950                                 [size CFGMR3QueryS64Def_EndProc 0]
   951 00000182 CCCCCCCC                db 0xCC, 0xCC, 0xCC, 0xCC
   952                                 %line 131+1 /home/se170/VirtualBox-4.3.28/out/linux.amd64/debug/obj/VMMR3LazyImp/VMMR3LazyLoad.asm
   953                                 [global CFGMR3QueryU64Def:function hidden]
   954                                 %line 131+0 /home/se170/VirtualBox-4.3.28/out/linux.amd64/debug/obj/VMMR3LazyImp/VMMR3LazyLoad.asm
   955                                 CFGMR3QueryU64Def:
   956                                 %line 132+1 /home/se170/VirtualBox-4.3.28/out/linux.amd64/debug/obj/VMMR3LazyImp/VMMR3LazyLoad.asm
   957 00000186 FF25(F4FFFFFF)          jmp qword [g_pfnCFGMR3QueryU64Def wrt rip]
   958                                 [global CFGMR3QueryU64Def_EndProc:function hidden]
   959                                 %line 133+0 /home/se170/VirtualBox-4.3.28/out/linux.amd64/debug/obj/VMMR3LazyImp/VMMR3LazyLoad.asm
   960                                 CFGMR3QueryU64Def_EndProc:
   961                                 [size CFGMR3QueryU64Def CFGMR3QueryU64Def_EndProc - CFGMR3QueryU64Def]
   962                                 [size CFGMR3QueryU64Def_EndProc 0]
   963 0000018C CCCCCCCC                db 0xCC, 0xCC, 0xCC, 0xCC
   964                                 %line 134+1 /home/se170/VirtualBox-4.3.28/out/linux.amd64/debug/obj/VMMR3LazyImp/VMMR3LazyLoad.asm
   965                                 [global CFGMR3QueryInteger:function hidden]
   966                                 %line 134+0 /home/se170/VirtualBox-4.3.28/out/linux.amd64/debug/obj/VMMR3LazyImp/VMMR3LazyLoad.asm
   967                                 CFGMR3QueryInteger:
   968                                 %line 135+1 /home/se170/VirtualBox-4.3.28/out/linux.amd64/debug/obj/VMMR3LazyImp/VMMR3LazyLoad.asm
   969 00000190 FF25(F4FFFFFF)          jmp qword [g_pfnCFGMR3QueryInteger wrt rip]
   970                                 [global CFGMR3QueryInteger_EndProc:function hidden]
   971                                 %line 136+0 /home/se170/VirtualBox-4.3.28/out/linux.amd64/debug/obj/VMMR3LazyImp/VMMR3LazyLoad.asm
   972                                 CFGMR3QueryInteger_EndProc:
   973                                 [size CFGMR3QueryInteger CFGMR3QueryInteger_EndProc - CFGMR3QueryInteger]
   974                                 [size CFGMR3QueryInteger_EndProc 0]
   975 00000196 CCCCCCCC                db 0xCC, 0xCC, 0xCC, 0xCC
   976                                 %line 137+1 /home/se170/VirtualBox-4.3.28/out/linux.amd64/debug/obj/VMMR3LazyImp/VMMR3LazyLoad.asm
   977                                 [global CFGMR3QueryGCPtrS:function hidden]
   978                                 %line 137+0 /home/se170/VirtualBox-4.3.28/out/linux.amd64/debug/obj/VMMR3LazyImp/VMMR3LazyLoad.asm
   979                                 CFGMR3QueryGCPtrS:
   980                                 %line 138+1 /home/se170/VirtualBox-4.3.28/out/linux.amd64/debug/obj/VMMR3LazyImp/VMMR3LazyLoad.asm
   981 0000019A FF25(F4FFFFFF)          jmp qword [g_pfnCFGMR3QueryGCPtrS wrt rip]
   982                                 [global CFGMR3QueryGCPtrS_EndProc:function hidden]
   983                                 %line 139+0 /home/se170/VirtualBox-4.3.28/out/linux.amd64/debug/obj/VMMR3LazyImp/VMMR3LazyLoad.asm
   984                                 CFGMR3QueryGCPtrS_EndProc:
   985                                 [size CFGMR3QueryGCPtrS CFGMR3QueryGCPtrS_EndProc - CFGMR3QueryGCPtrS]
   986                                 [size CFGMR3QueryGCPtrS_EndProc 0]
   987 000001A0 CCCCCCCC                db 0xCC, 0xCC, 0xCC, 0xCC
   988                                 %line 140+1 /home/se170/VirtualBox-4.3.28/out/linux.amd64/debug/obj/VMMR3LazyImp/VMMR3LazyLoad.asm
   989                                 [global CFGMR3QueryGCPtrU:function hidden]
   990                                 %line 140+0 /home/se170/VirtualBox-4.3.28/out/linux.amd64/debug/obj/VMMR3LazyImp/VMMR3LazyLoad.asm
   991                                 CFGMR3QueryGCPtrU:
   992                                 %line 141+1 /home/se170/VirtualBox-4.3.28/out/linux.amd64/debug/obj/VMMR3LazyImp/VMMR3LazyLoad.asm
   993 000001A4 FF25(F4FFFFFF)          jmp qword [g_pfnCFGMR3QueryGCPtrU wrt rip]
   994                                 [global CFGMR3QueryGCPtrU_EndProc:function hidden]
   995                                 %line 142+0 /home/se170/VirtualBox-4.3.28/out/linux.amd64/debug/obj/VMMR3LazyImp/VMMR3LazyLoad.asm
   996                                 CFGMR3QueryGCPtrU_EndProc:
   997                                 [size CFGMR3QueryGCPtrU CFGMR3QueryGCPtrU_EndProc - CFGMR3QueryGCPtrU]
   998                                 [size CFGMR3QueryGCPtrU_EndProc 0]
   999 000001AA CCCCCCCC                db 0xCC, 0xCC, 0xCC, 0xCC
  1000                                 %line 143+1 /home/se170/VirtualBox-4.3.28/out/linux.amd64/debug/obj/VMMR3LazyImp/VMMR3LazyLoad.asm
  1001                                 [global CFGMR3QueryGCPtr:function hidden]
  1002                                 %line 143+0 /home/se170/VirtualBox-4.3.28/out/linux.amd64/debug/obj/VMMR3LazyImp/VMMR3LazyLoad.asm
  1003                                 CFGMR3QueryGCPtr:
  1004                                 %line 144+1 /home/se170/VirtualBox-4.3.28/out/linux.amd64/debug/obj/VMMR3LazyImp/VMMR3LazyLoad.asm
  1005 000001AE FF25(F4FFFFFF)          jmp qword [g_pfnCFGMR3QueryGCPtr wrt rip]
  1006                                 [global CFGMR3QueryGCPtr_EndProc:function hidden]
  1007                                 %line 145+0 /home/se170/VirtualBox-4.3.28/out/linux.amd64/debug/obj/VMMR3LazyImp/VMMR3LazyLoad.asm
  1008                                 CFGMR3QueryGCPtr_EndProc:
  1009                                 [size CFGMR3QueryGCPtr CFGMR3QueryGCPtr_EndProc - CFGMR3QueryGCPtr]
  1010                                 [size CFGMR3QueryGCPtr_EndProc 0]
  1011 000001B4 CCCCCCCC                db 0xCC, 0xCC, 0xCC, 0xCC
  1012                                 %line 146+1 /home/se170/VirtualBox-4.3.28/out/linux.amd64/debug/obj/VMMR3LazyImp/VMMR3LazyLoad.asm
  1013                                 [global CFGMR3QueryPtr:function hidden]
  1014                                 %line 146+0 /home/se170/VirtualBox-4.3.28/out/linux.amd64/debug/obj/VMMR3LazyImp/VMMR3LazyLoad.asm
  1015                                 CFGMR3QueryPtr:
  1016                                 %line 147+1 /home/se170/VirtualBox-4.3.28/out/linux.amd64/debug/obj/VMMR3LazyImp/VMMR3LazyLoad.asm
  1017 000001B8 FF25(F4FFFFFF)          jmp qword [g_pfnCFGMR3QueryPtr wrt rip]
  1018                                 [global CFGMR3QueryPtr_EndProc:function hidden]
  1019                                 %line 148+0 /home/se170/VirtualBox-4.3.28/out/linux.amd64/debug/obj/VMMR3LazyImp/VMMR3LazyLoad.asm
  1020                                 CFGMR3QueryPtr_EndProc:
  1021                                 [size CFGMR3QueryPtr CFGMR3QueryPtr_EndProc - CFGMR3QueryPtr]
  1022                                 [size CFGMR3QueryPtr_EndProc 0]
  1023 000001BE CCCCCCCC                db 0xCC, 0xCC, 0xCC, 0xCC
  1024                                 %line 149+1 /home/se170/VirtualBox-4.3.28/out/linux.amd64/debug/obj/VMMR3LazyImp/VMMR3LazyLoad.asm
  1025                                 [global CFGMR3QueryBool:function hidden]
  1026                                 %line 149+0 /home/se170/VirtualBox-4.3.28/out/linux.amd64/debug/obj/VMMR3LazyImp/VMMR3LazyLoad.asm
  1027                                 CFGMR3QueryBool:
  1028                                 %line 150+1 /home/se170/VirtualBox-4.3.28/out/linux.amd64/debug/obj/VMMR3LazyImp/VMMR3LazyLoad.asm
  1029 000001C2 FF25(F4FFFFFF)          jmp qword [g_pfnCFGMR3QueryBool wrt rip]
  1030                                 [global CFGMR3QueryBool_EndProc:function hidden]
  1031                                 %line 151+0 /home/se170/VirtualBox-4.3.28/out/linux.amd64/debug/obj/VMMR3LazyImp/VMMR3LazyLoad.asm
  1032                                 CFGMR3QueryBool_EndProc:
  1033                                 [size CFGMR3QueryBool CFGMR3QueryBool_EndProc - CFGMR3QueryBool]
  1034                                 [size CFGMR3QueryBool_EndProc 0]
  1035 000001C8 CCCCCCCC                db 0xCC, 0xCC, 0xCC, 0xCC
  1036                                 %line 152+1 /home/se170/VirtualBox-4.3.28/out/linux.amd64/debug/obj/VMMR3LazyImp/VMMR3LazyLoad.asm
  1037                                 [global CFGMR3QueryS8:function hidden]
  1038                                 %line 152+0 /home/se170/VirtualBox-4.3.28/out/linux.amd64/debug/obj/VMMR3LazyImp/VMMR3LazyLoad.asm
  1039                                 CFGMR3QueryS8:
  1040                                 %line 153+1 /home/se170/VirtualBox-4.3.28/out/linux.amd64/debug/obj/VMMR3LazyImp/VMMR3LazyLoad.asm
  1041 000001CC FF25(F4FFFFFF)          jmp qword [g_pfnCFGMR3QueryS8 wrt rip]
  1042                                 [global CFGMR3QueryS8_EndProc:function hidden]
  1043                                 %line 154+0 /home/se170/VirtualBox-4.3.28/out/linux.amd64/debug/obj/VMMR3LazyImp/VMMR3LazyLoad.asm
  1044                                 CFGMR3QueryS8_EndProc:
  1045                                 [size CFGMR3QueryS8 CFGMR3QueryS8_EndProc - CFGMR3QueryS8]
  1046                                 [size CFGMR3QueryS8_EndProc 0]
  1047 000001D2 CCCCCCCC                db 0xCC, 0xCC, 0xCC, 0xCC
  1048                                 %line 155+1 /home/se170/VirtualBox-4.3.28/out/linux.amd64/debug/obj/VMMR3LazyImp/VMMR3LazyLoad.asm
  1049                                 [global CFGMR3QueryU8:function hidden]
  1050                                 %line 155+0 /home/se170/VirtualBox-4.3.28/out/linux.amd64/debug/obj/VMMR3LazyImp/VMMR3LazyLoad.asm
  1051                                 CFGMR3QueryU8:
  1052                                 %line 156+1 /home/se170/VirtualBox-4.3.28/out/linux.amd64/debug/obj/VMMR3LazyImp/VMMR3LazyLoad.asm
  1053 000001D6 FF25(F4FFFFFF)          jmp qword [g_pfnCFGMR3QueryU8 wrt rip]
  1054                                 [global CFGMR3QueryU8_EndProc:function hidden]
  1055                                 %line 157+0 /home/se170/VirtualBox-4.3.28/out/linux.amd64/debug/obj/VMMR3LazyImp/VMMR3LazyLoad.asm
  1056                                 CFGMR3QueryU8_EndProc:
  1057                                 [size CFGMR3QueryU8 CFGMR3QueryU8_EndProc - CFGMR3QueryU8]
  1058                                 [size CFGMR3QueryU8_EndProc 0]
  1059 000001DC CCCCCCCC                db 0xCC, 0xCC, 0xCC, 0xCC
  1060                                 %line 158+1 /home/se170/VirtualBox-4.3.28/out/linux.amd64/debug/obj/VMMR3LazyImp/VMMR3LazyLoad.asm
  1061                                 [global CFGMR3QueryS16:function hidden]
  1062                                 %line 158+0 /home/se170/VirtualBox-4.3.28/out/linux.amd64/debug/obj/VMMR3LazyImp/VMMR3LazyLoad.asm
  1063                                 CFGMR3QueryS16:
  1064                                 %line 159+1 /home/se170/VirtualBox-4.3.28/out/linux.amd64/debug/obj/VMMR3LazyImp/VMMR3LazyLoad.asm
  1065 000001E0 FF25(F4FFFFFF)          jmp qword [g_pfnCFGMR3QueryS16 wrt rip]
  1066                                 [global CFGMR3QueryS16_EndProc:function hidden]
  1067                                 %line 160+0 /home/se170/VirtualBox-4.3.28/out/linux.amd64/debug/obj/VMMR3LazyImp/VMMR3LazyLoad.asm
  1068                                 CFGMR3QueryS16_EndProc:
  1069                                 [size CFGMR3QueryS16 CFGMR3QueryS16_EndProc - CFGMR3QueryS16]
  1070                                 [size CFGMR3QueryS16_EndProc 0]
  1071 000001E6 CCCCCCCC                db 0xCC, 0xCC, 0xCC, 0xCC
  1072                                 %line 161+1 /home/se170/VirtualBox-4.3.28/out/linux.amd64/debug/obj/VMMR3LazyImp/VMMR3LazyLoad.asm
  1073                                 [global CFGMR3QueryU16:function hidden]
  1074                                 %line 161+0 /home/se170/VirtualBox-4.3.28/out/linux.amd64/debug/obj/VMMR3LazyImp/VMMR3LazyLoad.asm
  1075                                 CFGMR3QueryU16:
  1076                                 %line 162+1 /home/se170/VirtualBox-4.3.28/out/linux.amd64/debug/obj/VMMR3LazyImp/VMMR3LazyLoad.asm
  1077 000001EA FF25(F4FFFFFF)          jmp qword [g_pfnCFGMR3QueryU16 wrt rip]
  1078                                 [global CFGMR3QueryU16_EndProc:function hidden]
  1079                                 %line 163+0 /home/se170/VirtualBox-4.3.28/out/linux.amd64/debug/obj/VMMR3LazyImp/VMMR3LazyLoad.asm
  1080                                 CFGMR3QueryU16_EndProc:
  1081                                 [size CFGMR3QueryU16 CFGMR3QueryU16_EndProc - CFGMR3QueryU16]
  1082                                 [size CFGMR3QueryU16_EndProc 0]
  1083 000001F0 CCCCCCCC                db 0xCC, 0xCC, 0xCC, 0xCC
  1084                                 %line 164+1 /home/se170/VirtualBox-4.3.28/out/linux.amd64/debug/obj/VMMR3LazyImp/VMMR3LazyLoad.asm
  1085                                 [global CFGMR3QueryPort:function hidden]
  1086                                 %line 164+0 /home/se170/VirtualBox-4.3.28/out/linux.amd64/debug/obj/VMMR3LazyImp/VMMR3LazyLoad.asm
  1087                                 CFGMR3QueryPort:
  1088                                 %line 165+1 /home/se170/VirtualBox-4.3.28/out/linux.amd64/debug/obj/VMMR3LazyImp/VMMR3LazyLoad.asm
  1089 000001F4 FF25(F4FFFFFF)          jmp qword [g_pfnCFGMR3QueryPort wrt rip]
  1090                                 [global CFGMR3QueryPort_EndProc:function hidden]
  1091                                 %line 166+0 /home/se170/VirtualBox-4.3.28/out/linux.amd64/debug/obj/VMMR3LazyImp/VMMR3LazyLoad.asm
  1092                                 CFGMR3QueryPort_EndProc:
  1093                                 [size CFGMR3QueryPort CFGMR3QueryPort_EndProc - CFGMR3QueryPort]
  1094                                 [size CFGMR3QueryPort_EndProc 0]
  1095 000001FA CCCCCCCC                db 0xCC, 0xCC, 0xCC, 0xCC
  1096                                 %line 167+1 /home/se170/VirtualBox-4.3.28/out/linux.amd64/debug/obj/VMMR3LazyImp/VMMR3LazyLoad.asm
  1097                                 [global CFGMR3QueryS32:function hidden]
  1098                                 %line 167+0 /home/se170/VirtualBox-4.3.28/out/linux.amd64/debug/obj/VMMR3LazyImp/VMMR3LazyLoad.asm
  1099                                 CFGMR3QueryS32:
  1100                                 %line 168+1 /home/se170/VirtualBox-4.3.28/out/linux.amd64/debug/obj/VMMR3LazyImp/VMMR3LazyLoad.asm
  1101 000001FE FF25(F4FFFFFF)          jmp qword [g_pfnCFGMR3QueryS32 wrt rip]
  1102                                 [global CFGMR3QueryS32_EndProc:function hidden]
  1103                                 %line 169+0 /home/se170/VirtualBox-4.3.28/out/linux.amd64/debug/obj/VMMR3LazyImp/VMMR3LazyLoad.asm
  1104                                 CFGMR3QueryS32_EndProc:
  1105                                 [size CFGMR3QueryS32 CFGMR3QueryS32_EndProc - CFGMR3QueryS32]
  1106                                 [size CFGMR3QueryS32_EndProc 0]
  1107 00000204 CCCCCCCC                db 0xCC, 0xCC, 0xCC, 0xCC
  1108                                 %line 170+1 /home/se170/VirtualBox-4.3.28/out/linux.amd64/debug/obj/VMMR3LazyImp/VMMR3LazyLoad.asm
  1109                                 [global CFGMR3QuerySInt:function hidden]
  1110                                 %line 170+0 /home/se170/VirtualBox-4.3.28/out/linux.amd64/debug/obj/VMMR3LazyImp/VMMR3LazyLoad.asm
  1111                                 CFGMR3QuerySInt:
  1112                                 %line 171+1 /home/se170/VirtualBox-4.3.28/out/linux.amd64/debug/obj/VMMR3LazyImp/VMMR3LazyLoad.asm
  1113 00000208 FF25(F4FFFFFF)          jmp qword [g_pfnCFGMR3QuerySInt wrt rip]
  1114                                 [global CFGMR3QuerySInt_EndProc:function hidden]
  1115                                 %line 172+0 /home/se170/VirtualBox-4.3.28/out/linux.amd64/debug/obj/VMMR3LazyImp/VMMR3LazyLoad.asm
  1116                                 CFGMR3QuerySInt_EndProc:
  1117                                 [size CFGMR3QuerySInt CFGMR3QuerySInt_EndProc - CFGMR3QuerySInt]
  1118                                 [size CFGMR3QuerySInt_EndProc 0]
  1119 0000020E CCCCCCCC                db 0xCC, 0xCC, 0xCC, 0xCC
  1120                                 %line 173+1 /home/se170/VirtualBox-4.3.28/out/linux.amd64/debug/obj/VMMR3LazyImp/VMMR3LazyLoad.asm
  1121                                 [global CFGMR3QueryU32:function hidden]
  1122                                 %line 173+0 /home/se170/VirtualBox-4.3.28/out/linux.amd64/debug/obj/VMMR3LazyImp/VMMR3LazyLoad.asm
  1123                                 CFGMR3QueryU32:
  1124                                 %line 174+1 /home/se170/VirtualBox-4.3.28/out/linux.amd64/debug/obj/VMMR3LazyImp/VMMR3LazyLoad.asm
  1125 00000212 FF25(F4FFFFFF)          jmp qword [g_pfnCFGMR3QueryU32 wrt rip]
  1126                                 [global CFGMR3QueryU32_EndProc:function hidden]
  1127                                 %line 175+0 /home/se170/VirtualBox-4.3.28/out/linux.amd64/debug/obj/VMMR3LazyImp/VMMR3LazyLoad.asm
  1128                                 CFGMR3QueryU32_EndProc:
  1129                                 [size CFGMR3QueryU32 CFGMR3QueryU32_EndProc - CFGMR3QueryU32]
  1130                                 [size CFGMR3QueryU32_EndProc 0]
  1131 00000218 CCCCCCCC                db 0xCC, 0xCC, 0xCC, 0xCC
  1132                                 %line 176+1 /home/se170/VirtualBox-4.3.28/out/linux.amd64/debug/obj/VMMR3LazyImp/VMMR3LazyLoad.asm
  1133                                 [global CFGMR3QueryUInt:function hidden]
  1134                                 %line 176+0 /home/se170/VirtualBox-4.3.28/out/linux.amd64/debug/obj/VMMR3LazyImp/VMMR3LazyLoad.asm
  1135                                 CFGMR3QueryUInt:
  1136                                 %line 177+1 /home/se170/VirtualBox-4.3.28/out/linux.amd64/debug/obj/VMMR3LazyImp/VMMR3LazyLoad.asm
  1137 0000021C FF25(F4FFFFFF)          jmp qword [g_pfnCFGMR3QueryUInt wrt rip]
  1138                                 [global CFGMR3QueryUInt_EndProc:function hidden]
  1139                                 %line 178+0 /home/se170/VirtualBox-4.3.28/out/linux.amd64/debug/obj/VMMR3LazyImp/VMMR3LazyLoad.asm
  1140                                 CFGMR3QueryUInt_EndProc:
  1141                                 [size CFGMR3QueryUInt CFGMR3QueryUInt_EndProc - CFGMR3QueryUInt]
  1142                                 [size CFGMR3QueryUInt_EndProc 0]
  1143 00000222 CCCCCCCC                db 0xCC, 0xCC, 0xCC, 0xCC
  1144                                 %line 179+1 /home/se170/VirtualBox-4.3.28/out/linux.amd64/debug/obj/VMMR3LazyImp/VMMR3LazyLoad.asm
  1145                                 [global CFGMR3QueryS64:function hidden]
  1146                                 %line 179+0 /home/se170/VirtualBox-4.3.28/out/linux.amd64/debug/obj/VMMR3LazyImp/VMMR3LazyLoad.asm
  1147                                 CFGMR3QueryS64:
  1148                                 %line 180+1 /home/se170/VirtualBox-4.3.28/out/linux.amd64/debug/obj/VMMR3LazyImp/VMMR3LazyLoad.asm
  1149 00000226 FF25(F4FFFFFF)          jmp qword [g_pfnCFGMR3QueryS64 wrt rip]
  1150                                 [global CFGMR3QueryS64_EndProc:function hidden]
  1151                                 %line 181+0 /home/se170/VirtualBox-4.3.28/out/linux.amd64/debug/obj/VMMR3LazyImp/VMMR3LazyLoad.asm
  1152                                 CFGMR3QueryS64_EndProc:
  1153                                 [size CFGMR3QueryS64 CFGMR3QueryS64_EndProc - CFGMR3QueryS64]
  1154                                 [size CFGMR3QueryS64_EndProc 0]
  1155 0000022C CCCCCCCC                db 0xCC, 0xCC, 0xCC, 0xCC
  1156                                 %line 182+1 /home/se170/VirtualBox-4.3.28/out/linux.amd64/debug/obj/VMMR3LazyImp/VMMR3LazyLoad.asm
  1157                                 [global CFGMR3QueryU64:function hidden]
  1158                                 %line 182+0 /home/se170/VirtualBox-4.3.28/out/linux.amd64/debug/obj/VMMR3LazyImp/VMMR3LazyLoad.asm
  1159                                 CFGMR3QueryU64:
  1160                                 %line 183+1 /home/se170/VirtualBox-4.3.28/out/linux.amd64/debug/obj/VMMR3LazyImp/VMMR3LazyLoad.asm
  1161 00000230 FF25(F4FFFFFF)          jmp qword [g_pfnCFGMR3QueryU64 wrt rip]
  1162                                 [global CFGMR3QueryU64_EndProc:function hidden]
  1163                                 %line 184+0 /home/se170/VirtualBox-4.3.28/out/linux.amd64/debug/obj/VMMR3LazyImp/VMMR3LazyLoad.asm
  1164                                 CFGMR3QueryU64_EndProc:
  1165                                 [size CFGMR3QueryU64 CFGMR3QueryU64_EndProc - CFGMR3QueryU64]
  1166                                 [size CFGMR3QueryU64_EndProc 0]
  1167 00000236 CCCCCCCC                db 0xCC, 0xCC, 0xCC, 0xCC
  1168                                 %line 185+1 /home/se170/VirtualBox-4.3.28/out/linux.amd64/debug/obj/VMMR3LazyImp/VMMR3LazyLoad.asm
  1169                                 [global CFGMR3QuerySize:function hidden]
  1170                                 %line 185+0 /home/se170/VirtualBox-4.3.28/out/linux.amd64/debug/obj/VMMR3LazyImp/VMMR3LazyLoad.asm
  1171                                 CFGMR3QuerySize:
  1172                                 %line 186+1 /home/se170/VirtualBox-4.3.28/out/linux.amd64/debug/obj/VMMR3LazyImp/VMMR3LazyLoad.asm
  1173 0000023A FF25(F4FFFFFF)          jmp qword [g_pfnCFGMR3QuerySize wrt rip]
  1174                                 [global CFGMR3QuerySize_EndProc:function hidden]
  1175                                 %line 187+0 /home/se170/VirtualBox-4.3.28/out/linux.amd64/debug/obj/VMMR3LazyImp/VMMR3LazyLoad.asm
  1176                                 CFGMR3QuerySize_EndProc:
  1177                                 [size CFGMR3QuerySize CFGMR3QuerySize_EndProc - CFGMR3QuerySize]
  1178                                 [size CFGMR3QuerySize_EndProc 0]
  1179 00000240 CCCCCCCC                db 0xCC, 0xCC, 0xCC, 0xCC
  1180                                 %line 188+1 /home/se170/VirtualBox-4.3.28/out/linux.amd64/debug/obj/VMMR3LazyImp/VMMR3LazyLoad.asm
  1181                                 [global CFGMR3QueryType:function hidden]
  1182                                 %line 188+0 /home/se170/VirtualBox-4.3.28/out/linux.amd64/debug/obj/VMMR3LazyImp/VMMR3LazyLoad.asm
  1183                                 CFGMR3QueryType:
  1184                                 %line 189+1 /home/se170/VirtualBox-4.3.28/out/linux.amd64/debug/obj/VMMR3LazyImp/VMMR3LazyLoad.asm
  1185 00000244 FF25(F4FFFFFF)          jmp qword [g_pfnCFGMR3QueryType wrt rip]
  1186                                 [global CFGMR3QueryType_EndProc:function hidden]
  1187                                 %line 190+0 /home/se170/VirtualBox-4.3.28/out/linux.amd64/debug/obj/VMMR3LazyImp/VMMR3LazyLoad.asm
  1188                                 CFGMR3QueryType_EndProc:
  1189                                 [size CFGMR3QueryType CFGMR3QueryType_EndProc - CFGMR3QueryType]
  1190                                 [size CFGMR3QueryType_EndProc 0]
  1191 0000024A CCCCCCCC                db 0xCC, 0xCC, 0xCC, 0xCC
  1192                                 %line 191+1 /home/se170/VirtualBox-4.3.28/out/linux.amd64/debug/obj/VMMR3LazyImp/VMMR3LazyLoad.asm
  1193                                 [global CFGMR3AreValuesValid:function hidden]
  1194                                 %line 191+0 /home/se170/VirtualBox-4.3.28/out/linux.amd64/debug/obj/VMMR3LazyImp/VMMR3LazyLoad.asm
  1195                                 CFGMR3AreValuesValid:
  1196                                 %line 192+1 /home/se170/VirtualBox-4.3.28/out/linux.amd64/debug/obj/VMMR3LazyImp/VMMR3LazyLoad.asm
  1197 0000024E FF25(F4FFFFFF)          jmp qword [g_pfnCFGMR3AreValuesValid wrt rip]
  1198                                 [global CFGMR3AreValuesValid_EndProc:function hidden]
  1199                                 %line 193+0 /home/se170/VirtualBox-4.3.28/out/linux.amd64/debug/obj/VMMR3LazyImp/VMMR3LazyLoad.asm
  1200                                 CFGMR3AreValuesValid_EndProc:
  1201                                 [size CFGMR3AreValuesValid CFGMR3AreValuesValid_EndProc - CFGMR3AreValuesValid]
  1202                                 [size CFGMR3AreValuesValid_EndProc 0]
  1203 00000254 CCCCCCCC                db 0xCC, 0xCC, 0xCC, 0xCC
  1204                                 %line 194+1 /home/se170/VirtualBox-4.3.28/out/linux.amd64/debug/obj/VMMR3LazyImp/VMMR3LazyLoad.asm
  1205                                 [global CFGMR3AreChildrenValid:function hidden]
  1206                                 %line 194+0 /home/se170/VirtualBox-4.3.28/out/linux.amd64/debug/obj/VMMR3LazyImp/VMMR3LazyLoad.asm
  1207                                 CFGMR3AreChildrenValid:
  1208                                 %line 195+1 /home/se170/VirtualBox-4.3.28/out/linux.amd64/debug/obj/VMMR3LazyImp/VMMR3LazyLoad.asm
  1209 00000258 FF25(F4FFFFFF)          jmp qword [g_pfnCFGMR3AreChildrenValid wrt rip]
  1210                                 [global CFGMR3AreChildrenValid_EndProc:function hidden]
  1211                                 %line 196+0 /home/se170/VirtualBox-4.3.28/out/linux.amd64/debug/obj/VMMR3LazyImp/VMMR3LazyLoad.asm
  1212                                 CFGMR3AreChildrenValid_EndProc:
  1213                                 [size CFGMR3AreChildrenValid CFGMR3AreChildrenValid_EndProc - CFGMR3AreChildrenValid]
  1214                                 [size CFGMR3AreChildrenValid_EndProc 0]
  1215 0000025E CCCCCCCC                db 0xCC, 0xCC, 0xCC, 0xCC
  1216                                 %line 197+1 /home/se170/VirtualBox-4.3.28/out/linux.amd64/debug/obj/VMMR3LazyImp/VMMR3LazyLoad.asm
  1217                                 [global CFGMR3GetChildFV:function hidden]
  1218                                 %line 197+0 /home/se170/VirtualBox-4.3.28/out/linux.amd64/debug/obj/VMMR3LazyImp/VMMR3LazyLoad.asm
  1219                                 CFGMR3GetChildFV:
  1220                                 %line 198+1 /home/se170/VirtualBox-4.3.28/out/linux.amd64/debug/obj/VMMR3LazyImp/VMMR3LazyLoad.asm
  1221 00000262 FF25(F4FFFFFF)          jmp qword [g_pfnCFGMR3GetChildFV wrt rip]
  1222                                 [global CFGMR3GetChildFV_EndProc:function hidden]
  1223                                 %line 199+0 /home/se170/VirtualBox-4.3.28/out/linux.amd64/debug/obj/VMMR3LazyImp/VMMR3LazyLoad.asm
  1224                                 CFGMR3GetChildFV_EndProc:
  1225                                 [size CFGMR3GetChildFV CFGMR3GetChildFV_EndProc - CFGMR3GetChildFV]
  1226                                 [size CFGMR3GetChildFV_EndProc 0]
  1227 00000268 CCCCCCCC                db 0xCC, 0xCC, 0xCC, 0xCC
  1228                                 %line 200+1 /home/se170/VirtualBox-4.3.28/out/linux.amd64/debug/obj/VMMR3LazyImp/VMMR3LazyLoad.asm
  1229                                 [global CFGMR3GetChildF:function hidden]
  1230                                 %line 200+0 /home/se170/VirtualBox-4.3.28/out/linux.amd64/debug/obj/VMMR3LazyImp/VMMR3LazyLoad.asm
  1231                                 CFGMR3GetChildF:
  1232                                 %line 201+1 /home/se170/VirtualBox-4.3.28/out/linux.amd64/debug/obj/VMMR3LazyImp/VMMR3LazyLoad.asm
  1233 0000026C FF25(F4FFFFFF)          jmp qword [g_pfnCFGMR3GetChildF wrt rip]
  1234                                 [global CFGMR3GetChildF_EndProc:function hidden]
  1235                                 %line 202+0 /home/se170/VirtualBox-4.3.28/out/linux.amd64/debug/obj/VMMR3LazyImp/VMMR3LazyLoad.asm
  1236                                 CFGMR3GetChildF_EndProc:
  1237                                 [size CFGMR3GetChildF CFGMR3GetChildF_EndProc - CFGMR3GetChildF]
  1238                                 [size CFGMR3GetChildF_EndProc 0]
  1239 00000272 CCCCCCCC                db 0xCC, 0xCC, 0xCC, 0xCC
  1240                                 %line 203+1 /home/se170/VirtualBox-4.3.28/out/linux.amd64/debug/obj/VMMR3LazyImp/VMMR3LazyLoad.asm
  1241                                 [global CFGMR3GetChild:function hidden]
  1242                                 %line 203+0 /home/se170/VirtualBox-4.3.28/out/linux.amd64/debug/obj/VMMR3LazyImp/VMMR3LazyLoad.asm
  1243                                 CFGMR3GetChild:
  1244                                 %line 204+1 /home/se170/VirtualBox-4.3.28/out/linux.amd64/debug/obj/VMMR3LazyImp/VMMR3LazyLoad.asm
  1245 00000276 FF25(F4FFFFFF)          jmp qword [g_pfnCFGMR3GetChild wrt rip]
  1246                                 [global CFGMR3GetChild_EndProc:function hidden]
  1247                                 %line 205+0 /home/se170/VirtualBox-4.3.28/out/linux.amd64/debug/obj/VMMR3LazyImp/VMMR3LazyLoad.asm
  1248                                 CFGMR3GetChild_EndProc:
  1249                                 [size CFGMR3GetChild CFGMR3GetChild_EndProc - CFGMR3GetChild]
  1250                                 [size CFGMR3GetChild_EndProc 0]
  1251 0000027C CCCCCCCC                db 0xCC, 0xCC, 0xCC, 0xCC
  1252                                 %line 206+1 /home/se170/VirtualBox-4.3.28/out/linux.amd64/debug/obj/VMMR3LazyImp/VMMR3LazyLoad.asm
  1253                                 [global CFGMR3InsertNode:function hidden]
  1254                                 %line 206+0 /home/se170/VirtualBox-4.3.28/out/linux.amd64/debug/obj/VMMR3LazyImp/VMMR3LazyLoad.asm
  1255                                 CFGMR3InsertNode:
  1256                                 %line 207+1 /home/se170/VirtualBox-4.3.28/out/linux.amd64/debug/obj/VMMR3LazyImp/VMMR3LazyLoad.asm
  1257 00000280 FF25(F4FFFFFF)          jmp qword [g_pfnCFGMR3InsertNode wrt rip]
  1258                                 [global CFGMR3InsertNode_EndProc:function hidden]
  1259                                 %line 208+0 /home/se170/VirtualBox-4.3.28/out/linux.amd64/debug/obj/VMMR3LazyImp/VMMR3LazyLoad.asm
  1260                                 CFGMR3InsertNode_EndProc:
  1261                                 [size CFGMR3InsertNode CFGMR3InsertNode_EndProc - CFGMR3InsertNode]
  1262                                 [size CFGMR3InsertNode_EndProc 0]
  1263 00000286 CCCCCCCC                db 0xCC, 0xCC, 0xCC, 0xCC
  1264                                 %line 209+1 /home/se170/VirtualBox-4.3.28/out/linux.amd64/debug/obj/VMMR3LazyImp/VMMR3LazyLoad.asm
  1265                                 [global CFGMR3InsertNodeFV:function hidden]
  1266                                 %line 209+0 /home/se170/VirtualBox-4.3.28/out/linux.amd64/debug/obj/VMMR3LazyImp/VMMR3LazyLoad.asm
  1267                                 CFGMR3InsertNodeFV:
  1268                                 %line 210+1 /home/se170/VirtualBox-4.3.28/out/linux.amd64/debug/obj/VMMR3LazyImp/VMMR3LazyLoad.asm
  1269 0000028A FF25(F4FFFFFF)          jmp qword [g_pfnCFGMR3InsertNodeFV wrt rip]
  1270                                 [global CFGMR3InsertNodeFV_EndProc:function hidden]
  1271                                 %line 211+0 /home/se170/VirtualBox-4.3.28/out/linux.amd64/debug/obj/VMMR3LazyImp/VMMR3LazyLoad.asm
  1272                                 CFGMR3InsertNodeFV_EndProc:
  1273                                 [size CFGMR3InsertNodeFV CFGMR3InsertNodeFV_EndProc - CFGMR3InsertNodeFV]
  1274                                 [size CFGMR3InsertNodeFV_EndProc 0]
  1275 00000290 CCCCCCCC                db 0xCC, 0xCC, 0xCC, 0xCC
  1276                                 %line 212+1 /home/se170/VirtualBox-4.3.28/out/linux.amd64/debug/obj/VMMR3LazyImp/VMMR3LazyLoad.asm
  1277                                 [global CFGMR3InsertNodeF:function hidden]
  1278                                 %line 212+0 /home/se170/VirtualBox-4.3.28/out/linux.amd64/debug/obj/VMMR3LazyImp/VMMR3LazyLoad.asm
  1279                                 CFGMR3InsertNodeF:
  1280                                 %line 213+1 /home/se170/VirtualBox-4.3.28/out/linux.amd64/debug/obj/VMMR3LazyImp/VMMR3LazyLoad.asm
  1281 00000294 FF25(F4FFFFFF)          jmp qword [g_pfnCFGMR3InsertNodeF wrt rip]
  1282                                 [global CFGMR3InsertNodeF_EndProc:function hidden]
  1283                                 %line 214+0 /home/se170/VirtualBox-4.3.28/out/linux.amd64/debug/obj/VMMR3LazyImp/VMMR3LazyLoad.asm
  1284                                 CFGMR3InsertNodeF_EndProc:
  1285                                 [size CFGMR3InsertNodeF CFGMR3InsertNodeF_EndProc - CFGMR3InsertNodeF]
  1286                                 [size CFGMR3InsertNodeF_EndProc 0]
  1287 0000029A CCCCCCCC                db 0xCC, 0xCC, 0xCC, 0xCC
  1288                                 %line 215+1 /home/se170/VirtualBox-4.3.28/out/linux.amd64/debug/obj/VMMR3LazyImp/VMMR3LazyLoad.asm
  1289                                 [global CFGMR3InsertSubTree:function hidden]
  1290                                 %line 215+0 /home/se170/VirtualBox-4.3.28/out/linux.amd64/debug/obj/VMMR3LazyImp/VMMR3LazyLoad.asm
  1291                                 CFGMR3InsertSubTree:
  1292                                 %line 216+1 /home/se170/VirtualBox-4.3.28/out/linux.amd64/debug/obj/VMMR3LazyImp/VMMR3LazyLoad.asm
  1293 0000029E FF25(F4FFFFFF)          jmp qword [g_pfnCFGMR3InsertSubTree wrt rip]
  1294                                 [global CFGMR3InsertSubTree_EndProc:function hidden]
  1295                                 %line 217+0 /home/se170/VirtualBox-4.3.28/out/linux.amd64/debug/obj/VMMR3LazyImp/VMMR3LazyLoad.asm
  1296                                 CFGMR3InsertSubTree_EndProc:
  1297                                 [size CFGMR3InsertSubTree CFGMR3InsertSubTree_EndProc - CFGMR3InsertSubTree]
  1298                                 [size CFGMR3InsertSubTree_EndProc 0]
  1299 000002A4 CCCCCCCC                db 0xCC, 0xCC, 0xCC, 0xCC
  1300                                 %line 218+1 /home/se170/VirtualBox-4.3.28/out/linux.amd64/debug/obj/VMMR3LazyImp/VMMR3LazyLoad.asm
  1301                                 [global CFGMR3ValidateConfig:function hidden]
  1302                                 %line 218+0 /home/se170/VirtualBox-4.3.28/out/linux.amd64/debug/obj/VMMR3LazyImp/VMMR3LazyLoad.asm
  1303                                 CFGMR3ValidateConfig:
  1304                                 %line 219+1 /home/se170/VirtualBox-4.3.28/out/linux.amd64/debug/obj/VMMR3LazyImp/VMMR3LazyLoad.asm
  1305 000002A8 FF25(F4FFFFFF)          jmp qword [g_pfnCFGMR3ValidateConfig wrt rip]
  1306                                 [global CFGMR3ValidateConfig_EndProc:function hidden]
  1307                                 %line 220+0 /home/se170/VirtualBox-4.3.28/out/linux.amd64/debug/obj/VMMR3LazyImp/VMMR3LazyLoad.asm
  1308                                 CFGMR3ValidateConfig_EndProc:
  1309                                 [size CFGMR3ValidateConfig CFGMR3ValidateConfig_EndProc - CFGMR3ValidateConfig]
  1310                                 [size CFGMR3ValidateConfig_EndProc 0]
  1311 000002AE CCCCCCCC                db 0xCC, 0xCC, 0xCC, 0xCC
  1312                                 %line 221+1 /home/se170/VirtualBox-4.3.28/out/linux.amd64/debug/obj/VMMR3LazyImp/VMMR3LazyLoad.asm
  1313                                 [global CFGMR3QueryBytes:function hidden]
  1314                                 %line 221+0 /home/se170/VirtualBox-4.3.28/out/linux.amd64/debug/obj/VMMR3LazyImp/VMMR3LazyLoad.asm
  1315                                 CFGMR3QueryBytes:
  1316                                 %line 222+1 /home/se170/VirtualBox-4.3.28/out/linux.amd64/debug/obj/VMMR3LazyImp/VMMR3LazyLoad.asm
  1317 000002B2 FF25(F4FFFFFF)          jmp qword [g_pfnCFGMR3QueryBytes wrt rip]
  1318                                 [global CFGMR3QueryBytes_EndProc:function hidden]
  1319                                 %line 223+0 /home/se170/VirtualBox-4.3.28/out/linux.amd64/debug/obj/VMMR3LazyImp/VMMR3LazyLoad.asm
  1320                                 CFGMR3QueryBytes_EndProc:
  1321                                 [size CFGMR3QueryBytes CFGMR3QueryBytes_EndProc - CFGMR3QueryBytes]
  1322                                 [size CFGMR3QueryBytes_EndProc 0]
  1323 000002B8 CCCCCCCC                db 0xCC, 0xCC, 0xCC, 0xCC
  1324                                 %line 224+1 /home/se170/VirtualBox-4.3.28/out/linux.amd64/debug/obj/VMMR3LazyImp/VMMR3LazyLoad.asm
  1325                                 [global CFGMR3QueryStringDef:function hidden]
  1326                                 %line 224+0 /home/se170/VirtualBox-4.3.28/out/linux.amd64/debug/obj/VMMR3LazyImp/VMMR3LazyLoad.asm
  1327                                 CFGMR3QueryStringDef:
  1328                                 %line 225+1 /home/se170/VirtualBox-4.3.28/out/linux.amd64/debug/obj/VMMR3LazyImp/VMMR3LazyLoad.asm
  1329 000002BC FF25(F4FFFFFF)          jmp qword [g_pfnCFGMR3QueryStringDef wrt rip]
  1330                                 [global CFGMR3QueryStringDef_EndProc:function hidden]
  1331                                 %line 226+0 /home/se170/VirtualBox-4.3.28/out/linux.amd64/debug/obj/VMMR3LazyImp/VMMR3LazyLoad.asm
  1332                                 CFGMR3QueryStringDef_EndProc:
  1333                                 [size CFGMR3QueryStringDef CFGMR3QueryStringDef_EndProc - CFGMR3QueryStringDef]
  1334                                 [size CFGMR3QueryStringDef_EndProc 0]
  1335 000002C2 CCCCCCCC                db 0xCC, 0xCC, 0xCC, 0xCC
  1336                                 %line 227+1 /home/se170/VirtualBox-4.3.28/out/linux.amd64/debug/obj/VMMR3LazyImp/VMMR3LazyLoad.asm
  1337                                 [global CFGMR3QueryString:function hidden]
  1338                                 %line 227+0 /home/se170/VirtualBox-4.3.28/out/linux.amd64/debug/obj/VMMR3LazyImp/VMMR3LazyLoad.asm
  1339                                 CFGMR3QueryString:
  1340                                 %line 228+1 /home/se170/VirtualBox-4.3.28/out/linux.amd64/debug/obj/VMMR3LazyImp/VMMR3LazyLoad.asm
  1341 000002C6 FF25(F4FFFFFF)          jmp qword [g_pfnCFGMR3QueryString wrt rip]
  1342                                 [global CFGMR3QueryString_EndProc:function hidden]
  1343                                 %line 229+0 /home/se170/VirtualBox-4.3.28/out/linux.amd64/debug/obj/VMMR3LazyImp/VMMR3LazyLoad.asm
  1344                                 CFGMR3QueryString_EndProc:
  1345                                 [size CFGMR3QueryString CFGMR3QueryString_EndProc - CFGMR3QueryString]
  1346                                 [size CFGMR3QueryString_EndProc 0]
  1347 000002CC CCCCCCCC                db 0xCC, 0xCC, 0xCC, 0xCC
  1348                                 %line 230+1 /home/se170/VirtualBox-4.3.28/out/linux.amd64/debug/obj/VMMR3LazyImp/VMMR3LazyLoad.asm
  1349                                 [global CFGMR3QueryStringAlloc:function hidden]
  1350                                 %line 230+0 /home/se170/VirtualBox-4.3.28/out/linux.amd64/debug/obj/VMMR3LazyImp/VMMR3LazyLoad.asm
  1351                                 CFGMR3QueryStringAlloc:
  1352                                 %line 231+1 /home/se170/VirtualBox-4.3.28/out/linux.amd64/debug/obj/VMMR3LazyImp/VMMR3LazyLoad.asm
  1353 000002D0 FF25(F4FFFFFF)          jmp qword [g_pfnCFGMR3QueryStringAlloc wrt rip]
  1354                                 [global CFGMR3QueryStringAlloc_EndProc:function hidden]
  1355                                 %line 232+0 /home/se170/VirtualBox-4.3.28/out/linux.amd64/debug/obj/VMMR3LazyImp/VMMR3LazyLoad.asm
  1356                                 CFGMR3QueryStringAlloc_EndProc:
  1357                                 [size CFGMR3QueryStringAlloc CFGMR3QueryStringAlloc_EndProc - CFGMR3QueryStringAlloc]
  1358                                 [size CFGMR3QueryStringAlloc_EndProc 0]
  1359 000002D6 CCCCCCCC                db 0xCC, 0xCC, 0xCC, 0xCC
  1360                                 %line 233+1 /home/se170/VirtualBox-4.3.28/out/linux.amd64/debug/obj/VMMR3LazyImp/VMMR3LazyLoad.asm
  1361                                 [global CFGMR3GetParent:function hidden]
  1362                                 %line 233+0 /home/se170/VirtualBox-4.3.28/out/linux.amd64/debug/obj/VMMR3LazyImp/VMMR3LazyLoad.asm
  1363                                 CFGMR3GetParent:
  1364                                 %line 234+1 /home/se170/VirtualBox-4.3.28/out/linux.amd64/debug/obj/VMMR3LazyImp/VMMR3LazyLoad.asm
  1365 000002DA FF25(F4FFFFFF)          jmp qword [g_pfnCFGMR3GetParent wrt rip]
  1366                                 [global CFGMR3GetParent_EndProc:function hidden]
  1367                                 %line 235+0 /home/se170/VirtualBox-4.3.28/out/linux.amd64/debug/obj/VMMR3LazyImp/VMMR3LazyLoad.asm
  1368                                 CFGMR3GetParent_EndProc:
  1369                                 [size CFGMR3GetParent CFGMR3GetParent_EndProc - CFGMR3GetParent]
  1370                                 [size CFGMR3GetParent_EndProc 0]
  1371 000002E0 CCCCCCCC                db 0xCC, 0xCC, 0xCC, 0xCC
  1372                                 %line 236+1 /home/se170/VirtualBox-4.3.28/out/linux.amd64/debug/obj/VMMR3LazyImp/VMMR3LazyLoad.asm
  1373                                 [global CFGMR3GetRootU:function hidden]
  1374                                 %line 236+0 /home/se170/VirtualBox-4.3.28/out/linux.amd64/debug/obj/VMMR3LazyImp/VMMR3LazyLoad.asm
  1375                                 CFGMR3GetRootU:
  1376                                 %line 237+1 /home/se170/VirtualBox-4.3.28/out/linux.amd64/debug/obj/VMMR3LazyImp/VMMR3LazyLoad.asm
  1377 000002E4 FF25(F4FFFFFF)          jmp qword [g_pfnCFGMR3GetRootU wrt rip]
  1378                                 [global CFGMR3GetRootU_EndProc:function hidden]
  1379                                 %line 238+0 /home/se170/VirtualBox-4.3.28/out/linux.amd64/debug/obj/VMMR3LazyImp/VMMR3LazyLoad.asm
  1380                                 CFGMR3GetRootU_EndProc:
  1381                                 [size CFGMR3GetRootU CFGMR3GetRootU_EndProc - CFGMR3GetRootU]
  1382                                 [size CFGMR3GetRootU_EndProc 0]
  1383 000002EA CCCCCCCC                db 0xCC, 0xCC, 0xCC, 0xCC
  1384                                 %line 239+1 /home/se170/VirtualBox-4.3.28/out/linux.amd64/debug/obj/VMMR3LazyImp/VMMR3LazyLoad.asm
  1385                                 [global CSAMR3IsEnabled:function hidden]
  1386                                 %line 239+0 /home/se170/VirtualBox-4.3.28/out/linux.amd64/debug/obj/VMMR3LazyImp/VMMR3LazyLoad.asm
  1387                                 CSAMR3IsEnabled:
  1388                                 %line 240+1 /home/se170/VirtualBox-4.3.28/out/linux.amd64/debug/obj/VMMR3LazyImp/VMMR3LazyLoad.asm
  1389 000002EE FF25(F4FFFFFF)          jmp qword [g_pfnCSAMR3IsEnabled wrt rip]
  1390                                 [global CSAMR3IsEnabled_EndProc:function hidden]
  1391                                 %line 241+0 /home/se170/VirtualBox-4.3.28/out/linux.amd64/debug/obj/VMMR3LazyImp/VMMR3LazyLoad.asm
  1392                                 CSAMR3IsEnabled_EndProc:
  1393                                 [size CSAMR3IsEnabled CSAMR3IsEnabled_EndProc - CSAMR3IsEnabled]
  1394                                 [size CSAMR3IsEnabled_EndProc 0]
  1395 000002F4 CCCCCCCC                db 0xCC, 0xCC, 0xCC, 0xCC
  1396                                 %line 242+1 /home/se170/VirtualBox-4.3.28/out/linux.amd64/debug/obj/VMMR3LazyImp/VMMR3LazyLoad.asm
  1397                                 [global CSAMR3SetScanningEnabled:function hidden]
  1398                                 %line 242+0 /home/se170/VirtualBox-4.3.28/out/linux.amd64/debug/obj/VMMR3LazyImp/VMMR3LazyLoad.asm
  1399                                 CSAMR3SetScanningEnabled:
  1400                                 %line 243+1 /home/se170/VirtualBox-4.3.28/out/linux.amd64/debug/obj/VMMR3LazyImp/VMMR3LazyLoad.asm
  1401 000002F8 FF25(F4FFFFFF)          jmp qword [g_pfnCSAMR3SetScanningEnabled wrt rip]
  1402                                 [global CSAMR3SetScanningEnabled_EndProc:function hidden]
  1403                                 %line 244+0 /home/se170/VirtualBox-4.3.28/out/linux.amd64/debug/obj/VMMR3LazyImp/VMMR3LazyLoad.asm
  1404                                 CSAMR3SetScanningEnabled_EndProc:
  1405                                 [size CSAMR3SetScanningEnabled CSAMR3SetScanningEnabled_EndProc - CSAMR3SetScanningEnabled]
  1406                                 [size CSAMR3SetScanningEnabled_EndProc 0]
  1407 000002FE CCCCCCCC                db 0xCC, 0xCC, 0xCC, 0xCC
  1408                                 %line 245+1 /home/se170/VirtualBox-4.3.28/out/linux.amd64/debug/obj/VMMR3LazyImp/VMMR3LazyLoad.asm
  1409                                 [global DBGCCreate:function hidden]
  1410                                 %line 245+0 /home/se170/VirtualBox-4.3.28/out/linux.amd64/debug/obj/VMMR3LazyImp/VMMR3LazyLoad.asm
  1411                                 DBGCCreate:
  1412                                 %line 246+1 /home/se170/VirtualBox-4.3.28/out/linux.amd64/debug/obj/VMMR3LazyImp/VMMR3LazyLoad.asm
  1413 00000302 FF25(F4FFFFFF)          jmp qword [g_pfnDBGCCreate wrt rip]
  1414                                 [global DBGCCreate_EndProc:function hidden]
  1415                                 %line 247+0 /home/se170/VirtualBox-4.3.28/out/linux.amd64/debug/obj/VMMR3LazyImp/VMMR3LazyLoad.asm
  1416                                 DBGCCreate_EndProc:
  1417                                 [size DBGCCreate DBGCCreate_EndProc - DBGCCreate]
  1418                                 [size DBGCCreate_EndProc 0]
  1419 00000308 CCCCCCCC                db 0xCC, 0xCC, 0xCC, 0xCC
  1420                                 %line 248+1 /home/se170/VirtualBox-4.3.28/out/linux.amd64/debug/obj/VMMR3LazyImp/VMMR3LazyLoad.asm
  1421                                 [global DBGFR3CoreWrite:function hidden]
  1422                                 %line 248+0 /home/se170/VirtualBox-4.3.28/out/linux.amd64/debug/obj/VMMR3LazyImp/VMMR3LazyLoad.asm
  1423                                 DBGFR3CoreWrite:
  1424                                 %line 249+1 /home/se170/VirtualBox-4.3.28/out/linux.amd64/debug/obj/VMMR3LazyImp/VMMR3LazyLoad.asm
  1425 0000030C FF25(F4FFFFFF)          jmp qword [g_pfnDBGFR3CoreWrite wrt rip]
  1426                                 [global DBGFR3CoreWrite_EndProc:function hidden]
  1427                                 %line 250+0 /home/se170/VirtualBox-4.3.28/out/linux.amd64/debug/obj/VMMR3LazyImp/VMMR3LazyLoad.asm
  1428                                 DBGFR3CoreWrite_EndProc:
  1429                                 [size DBGFR3CoreWrite DBGFR3CoreWrite_EndProc - DBGFR3CoreWrite]
  1430                                 [size DBGFR3CoreWrite_EndProc 0]
  1431 00000312 CCCCCCCC                db 0xCC, 0xCC, 0xCC, 0xCC
  1432                                 %line 251+1 /home/se170/VirtualBox-4.3.28/out/linux.amd64/debug/obj/VMMR3LazyImp/VMMR3LazyLoad.asm
  1433                                 [global DBGFR3Info:function hidden]
  1434                                 %line 251+0 /home/se170/VirtualBox-4.3.28/out/linux.amd64/debug/obj/VMMR3LazyImp/VMMR3LazyLoad.asm
  1435                                 DBGFR3Info:
  1436                                 %line 252+1 /home/se170/VirtualBox-4.3.28/out/linux.amd64/debug/obj/VMMR3LazyImp/VMMR3LazyLoad.asm
  1437 00000316 FF25(F4FFFFFF)          jmp qword [g_pfnDBGFR3Info wrt rip]
  1438                                 [global DBGFR3Info_EndProc:function hidden]
  1439                                 %line 253+0 /home/se170/VirtualBox-4.3.28/out/linux.amd64/debug/obj/VMMR3LazyImp/VMMR3LazyLoad.asm
  1440                                 DBGFR3Info_EndProc:
  1441                                 [size DBGFR3Info DBGFR3Info_EndProc - DBGFR3Info]
  1442                                 [size DBGFR3Info_EndProc 0]
  1443 0000031C CCCCCCCC                db 0xCC, 0xCC, 0xCC, 0xCC
  1444                                 %line 254+1 /home/se170/VirtualBox-4.3.28/out/linux.amd64/debug/obj/VMMR3LazyImp/VMMR3LazyLoad.asm
  1445                                 [global DBGFR3InfoRegisterExternal:function hidden]
  1446                                 %line 254+0 /home/se170/VirtualBox-4.3.28/out/linux.amd64/debug/obj/VMMR3LazyImp/VMMR3LazyLoad.asm
  1447                                 DBGFR3InfoRegisterExternal:
  1448                                 %line 255+1 /home/se170/VirtualBox-4.3.28/out/linux.amd64/debug/obj/VMMR3LazyImp/VMMR3LazyLoad.asm
  1449 00000320 FF25(F4FFFFFF)          jmp qword [g_pfnDBGFR3InfoRegisterExternal wrt rip]
  1450                                 [global DBGFR3InfoRegisterExternal_EndProc:function hidden]
  1451                                 %line 256+0 /home/se170/VirtualBox-4.3.28/out/linux.amd64/debug/obj/VMMR3LazyImp/VMMR3LazyLoad.asm
  1452                                 DBGFR3InfoRegisterExternal_EndProc:
  1453                                 [size DBGFR3InfoRegisterExternal DBGFR3InfoRegisterExternal_EndProc - DBGFR3InfoRegisterExternal]
  1454                                 [size DBGFR3InfoRegisterExternal_EndProc 0]
  1455 00000326 CCCCCCCC                db 0xCC, 0xCC, 0xCC, 0xCC
  1456                                 %line 257+1 /home/se170/VirtualBox-4.3.28/out/linux.amd64/debug/obj/VMMR3LazyImp/VMMR3LazyLoad.asm
  1457                                 [global DBGFR3InjectNMI:function hidden]
  1458                                 %line 257+0 /home/se170/VirtualBox-4.3.28/out/linux.amd64/debug/obj/VMMR3LazyImp/VMMR3LazyLoad.asm
  1459                                 DBGFR3InjectNMI:
  1460                                 %line 258+1 /home/se170/VirtualBox-4.3.28/out/linux.amd64/debug/obj/VMMR3LazyImp/VMMR3LazyLoad.asm
  1461 0000032A FF25(F4FFFFFF)          jmp qword [g_pfnDBGFR3InjectNMI wrt rip]
  1462                                 [global DBGFR3InjectNMI_EndProc:function hidden]
  1463                                 %line 259+0 /home/se170/VirtualBox-4.3.28/out/linux.amd64/debug/obj/VMMR3LazyImp/VMMR3LazyLoad.asm
  1464                                 DBGFR3InjectNMI_EndProc:
  1465                                 [size DBGFR3InjectNMI DBGFR3InjectNMI_EndProc - DBGFR3InjectNMI]
  1466                                 [size DBGFR3InjectNMI_EndProc 0]
  1467 00000330 CCCCCCCC                db 0xCC, 0xCC, 0xCC, 0xCC
  1468                                 %line 260+1 /home/se170/VirtualBox-4.3.28/out/linux.amd64/debug/obj/VMMR3LazyImp/VMMR3LazyLoad.asm
  1469                                 [global DBGFR3LogModifyDestinations:function hidden]
  1470                                 %line 260+0 /home/se170/VirtualBox-4.3.28/out/linux.amd64/debug/obj/VMMR3LazyImp/VMMR3LazyLoad.asm
  1471                                 DBGFR3LogModifyDestinations:
  1472                                 %line 261+1 /home/se170/VirtualBox-4.3.28/out/linux.amd64/debug/obj/VMMR3LazyImp/VMMR3LazyLoad.asm
  1473 00000334 FF25(F4FFFFFF)          jmp qword [g_pfnDBGFR3LogModifyDestinations wrt rip]
  1474                                 [global DBGFR3LogModifyDestinations_EndProc:function hidden]
  1475                                 %line 262+0 /home/se170/VirtualBox-4.3.28/out/linux.amd64/debug/obj/VMMR3LazyImp/VMMR3LazyLoad.asm
  1476                                 DBGFR3LogModifyDestinations_EndProc:
  1477                                 [size DBGFR3LogModifyDestinations DBGFR3LogModifyDestinations_EndProc - DBGFR3LogModifyDestinations]
  1478                                 [size DBGFR3LogModifyDestinations_EndProc 0]
  1479 0000033A CCCCCCCC                db 0xCC, 0xCC, 0xCC, 0xCC
  1480                                 %line 263+1 /home/se170/VirtualBox-4.3.28/out/linux.amd64/debug/obj/VMMR3LazyImp/VMMR3LazyLoad.asm
  1481                                 [global DBGFR3LogModifyFlags:function hidden]
  1482                                 %line 263+0 /home/se170/VirtualBox-4.3.28/out/linux.amd64/debug/obj/VMMR3LazyImp/VMMR3LazyLoad.asm
  1483                                 DBGFR3LogModifyFlags:
  1484                                 %line 264+1 /home/se170/VirtualBox-4.3.28/out/linux.amd64/debug/obj/VMMR3LazyImp/VMMR3LazyLoad.asm
  1485 0000033E FF25(F4FFFFFF)          jmp qword [g_pfnDBGFR3LogModifyFlags wrt rip]
  1486                                 [global DBGFR3LogModifyFlags_EndProc:function hidden]
  1487                                 %line 265+0 /home/se170/VirtualBox-4.3.28/out/linux.amd64/debug/obj/VMMR3LazyImp/VMMR3LazyLoad.asm
  1488                                 DBGFR3LogModifyFlags_EndProc:
  1489                                 [size DBGFR3LogModifyFlags DBGFR3LogModifyFlags_EndProc - DBGFR3LogModifyFlags]
  1490                                 [size DBGFR3LogModifyFlags_EndProc 0]
  1491 00000344 CCCCCCCC                db 0xCC, 0xCC, 0xCC, 0xCC
  1492                                 %line 266+1 /home/se170/VirtualBox-4.3.28/out/linux.amd64/debug/obj/VMMR3LazyImp/VMMR3LazyLoad.asm
  1493                                 [global DBGFR3LogModifyGroups:function hidden]
  1494                                 %line 266+0 /home/se170/VirtualBox-4.3.28/out/linux.amd64/debug/obj/VMMR3LazyImp/VMMR3LazyLoad.asm
  1495                                 DBGFR3LogModifyGroups:
  1496                                 %line 267+1 /home/se170/VirtualBox-4.3.28/out/linux.amd64/debug/obj/VMMR3LazyImp/VMMR3LazyLoad.asm
  1497 00000348 FF25(F4FFFFFF)          jmp qword [g_pfnDBGFR3LogModifyGroups wrt rip]
  1498                                 [global DBGFR3LogModifyGroups_EndProc:function hidden]
  1499                                 %line 268+0 /home/se170/VirtualBox-4.3.28/out/linux.amd64/debug/obj/VMMR3LazyImp/VMMR3LazyLoad.asm
  1500                                 DBGFR3LogModifyGroups_EndProc:
  1501                                 [size DBGFR3LogModifyGroups DBGFR3LogModifyGroups_EndProc - DBGFR3LogModifyGroups]
  1502                                 [size DBGFR3LogModifyGroups_EndProc 0]
  1503 0000034E CCCCCCCC                db 0xCC, 0xCC, 0xCC, 0xCC
  1504                                 %line 269+1 /home/se170/VirtualBox-4.3.28/out/linux.amd64/debug/obj/VMMR3LazyImp/VMMR3LazyLoad.asm
  1505                                 [global DBGFR3OSDetect:function hidden]
  1506                                 %line 269+0 /home/se170/VirtualBox-4.3.28/out/linux.amd64/debug/obj/VMMR3LazyImp/VMMR3LazyLoad.asm
  1507                                 DBGFR3OSDetect:
  1508                                 %line 270+1 /home/se170/VirtualBox-4.3.28/out/linux.amd64/debug/obj/VMMR3LazyImp/VMMR3LazyLoad.asm
  1509 00000352 FF25(F4FFFFFF)          jmp qword [g_pfnDBGFR3OSDetect wrt rip]
  1510                                 [global DBGFR3OSDetect_EndProc:function hidden]
  1511                                 %line 271+0 /home/se170/VirtualBox-4.3.28/out/linux.amd64/debug/obj/VMMR3LazyImp/VMMR3LazyLoad.asm
  1512                                 DBGFR3OSDetect_EndProc:
  1513                                 [size DBGFR3OSDetect DBGFR3OSDetect_EndProc - DBGFR3OSDetect]
  1514                                 [size DBGFR3OSDetect_EndProc 0]
  1515 00000358 CCCCCCCC                db 0xCC, 0xCC, 0xCC, 0xCC
  1516                                 %line 272+1 /home/se170/VirtualBox-4.3.28/out/linux.amd64/debug/obj/VMMR3LazyImp/VMMR3LazyLoad.asm
  1517                                 [global DBGFR3OSQueryNameAndVersion:function hidden]
  1518                                 %line 272+0 /home/se170/VirtualBox-4.3.28/out/linux.amd64/debug/obj/VMMR3LazyImp/VMMR3LazyLoad.asm
  1519                                 DBGFR3OSQueryNameAndVersion:
  1520                                 %line 273+1 /home/se170/VirtualBox-4.3.28/out/linux.amd64/debug/obj/VMMR3LazyImp/VMMR3LazyLoad.asm
  1521 0000035C FF25(F4FFFFFF)          jmp qword [g_pfnDBGFR3OSQueryNameAndVersion wrt rip]
  1522                                 [global DBGFR3OSQueryNameAndVersion_EndProc:function hidden]
  1523                                 %line 274+0 /home/se170/VirtualBox-4.3.28/out/linux.amd64/debug/obj/VMMR3LazyImp/VMMR3LazyLoad.asm
  1524                                 DBGFR3OSQueryNameAndVersion_EndProc:
  1525                                 [size DBGFR3OSQueryNameAndVersion DBGFR3OSQueryNameAndVersion_EndProc - DBGFR3OSQueryNameAndVersion]
  1526                                 [size DBGFR3OSQueryNameAndVersion_EndProc 0]
  1527 00000362 CCCCCCCC                db 0xCC, 0xCC, 0xCC, 0xCC
  1528                                 %line 275+1 /home/se170/VirtualBox-4.3.28/out/linux.amd64/debug/obj/VMMR3LazyImp/VMMR3LazyLoad.asm
  1529                                 [global DBGFR3RegCpuQueryU32:function hidden]
  1530                                 %line 275+0 /home/se170/VirtualBox-4.3.28/out/linux.amd64/debug/obj/VMMR3LazyImp/VMMR3LazyLoad.asm
  1531                                 DBGFR3RegCpuQueryU32:
  1532                                 %line 276+1 /home/se170/VirtualBox-4.3.28/out/linux.amd64/debug/obj/VMMR3LazyImp/VMMR3LazyLoad.asm
  1533 00000366 FF25(F4FFFFFF)          jmp qword [g_pfnDBGFR3RegCpuQueryU32 wrt rip]
  1534                                 [global DBGFR3RegCpuQueryU32_EndProc:function hidden]
  1535                                 %line 277+0 /home/se170/VirtualBox-4.3.28/out/linux.amd64/debug/obj/VMMR3LazyImp/VMMR3LazyLoad.asm
  1536                                 DBGFR3RegCpuQueryU32_EndProc:
  1537                                 [size DBGFR3RegCpuQueryU32 DBGFR3RegCpuQueryU32_EndProc - DBGFR3RegCpuQueryU32]
  1538                                 [size DBGFR3RegCpuQueryU32_EndProc 0]
  1539 0000036C CCCCCCCC                db 0xCC, 0xCC, 0xCC, 0xCC
  1540                                 %line 278+1 /home/se170/VirtualBox-4.3.28/out/linux.amd64/debug/obj/VMMR3LazyImp/VMMR3LazyLoad.asm
  1541                                 [global DBGFR3RegFormatValue:function hidden]
  1542                                 %line 278+0 /home/se170/VirtualBox-4.3.28/out/linux.amd64/debug/obj/VMMR3LazyImp/VMMR3LazyLoad.asm
  1543                                 DBGFR3RegFormatValue:
  1544                                 %line 279+1 /home/se170/VirtualBox-4.3.28/out/linux.amd64/debug/obj/VMMR3LazyImp/VMMR3LazyLoad.asm
  1545 00000370 FF25(F4FFFFFF)          jmp qword [g_pfnDBGFR3RegFormatValue wrt rip]
  1546                                 [global DBGFR3RegFormatValue_EndProc:function hidden]
  1547                                 %line 280+0 /home/se170/VirtualBox-4.3.28/out/linux.amd64/debug/obj/VMMR3LazyImp/VMMR3LazyLoad.asm
  1548                                 DBGFR3RegFormatValue_EndProc:
  1549                                 [size DBGFR3RegFormatValue DBGFR3RegFormatValue_EndProc - DBGFR3RegFormatValue]
  1550                                 [size DBGFR3RegFormatValue_EndProc 0]
  1551 00000376 CCCCCCCC                db 0xCC, 0xCC, 0xCC, 0xCC
  1552                                 %line 281+1 /home/se170/VirtualBox-4.3.28/out/linux.amd64/debug/obj/VMMR3LazyImp/VMMR3LazyLoad.asm
  1553                                 [global DBGFR3RegNmQuery:function hidden]
  1554                                 %line 281+0 /home/se170/VirtualBox-4.3.28/out/linux.amd64/debug/obj/VMMR3LazyImp/VMMR3LazyLoad.asm
  1555                                 DBGFR3RegNmQuery:
  1556                                 %line 282+1 /home/se170/VirtualBox-4.3.28/out/linux.amd64/debug/obj/VMMR3LazyImp/VMMR3LazyLoad.asm
  1557 0000037A FF25(F4FFFFFF)          jmp qword [g_pfnDBGFR3RegNmQuery wrt rip]
  1558                                 [global DBGFR3RegNmQuery_EndProc:function hidden]
  1559                                 %line 283+0 /home/se170/VirtualBox-4.3.28/out/linux.amd64/debug/obj/VMMR3LazyImp/VMMR3LazyLoad.asm
  1560                                 DBGFR3RegNmQuery_EndProc:
  1561                                 [size DBGFR3RegNmQuery DBGFR3RegNmQuery_EndProc - DBGFR3RegNmQuery]
  1562                                 [size DBGFR3RegNmQuery_EndProc 0]
  1563 00000380 CCCCCCCC                db 0xCC, 0xCC, 0xCC, 0xCC
  1564                                 %line 284+1 /home/se170/VirtualBox-4.3.28/out/linux.amd64/debug/obj/VMMR3LazyImp/VMMR3LazyLoad.asm
  1565                                 [global DBGFR3RegNmQueryAll:function hidden]
  1566                                 %line 284+0 /home/se170/VirtualBox-4.3.28/out/linux.amd64/debug/obj/VMMR3LazyImp/VMMR3LazyLoad.asm
  1567                                 DBGFR3RegNmQueryAll:
  1568                                 %line 285+1 /home/se170/VirtualBox-4.3.28/out/linux.amd64/debug/obj/VMMR3LazyImp/VMMR3LazyLoad.asm
  1569 00000384 FF25(F4FFFFFF)          jmp qword [g_pfnDBGFR3RegNmQueryAll wrt rip]
  1570                                 [global DBGFR3RegNmQueryAll_EndProc:function hidden]
  1571                                 %line 286+0 /home/se170/VirtualBox-4.3.28/out/linux.amd64/debug/obj/VMMR3LazyImp/VMMR3LazyLoad.asm
  1572                                 DBGFR3RegNmQueryAll_EndProc:
  1573                                 [size DBGFR3RegNmQueryAll DBGFR3RegNmQueryAll_EndProc - DBGFR3RegNmQueryAll]
  1574                                 [size DBGFR3RegNmQueryAll_EndProc 0]
  1575 0000038A CCCCCCCC                db 0xCC, 0xCC, 0xCC, 0xCC
  1576                                 %line 287+1 /home/se170/VirtualBox-4.3.28/out/linux.amd64/debug/obj/VMMR3LazyImp/VMMR3LazyLoad.asm
  1577                                 [global DBGFR3RegNmQueryAllCount:function hidden]
  1578                                 %line 287+0 /home/se170/VirtualBox-4.3.28/out/linux.amd64/debug/obj/VMMR3LazyImp/VMMR3LazyLoad.asm
  1579                                 DBGFR3RegNmQueryAllCount:
  1580                                 %line 288+1 /home/se170/VirtualBox-4.3.28/out/linux.amd64/debug/obj/VMMR3LazyImp/VMMR3LazyLoad.asm
  1581 0000038E FF25(F4FFFFFF)          jmp qword [g_pfnDBGFR3RegNmQueryAllCount wrt rip]
  1582                                 [global DBGFR3RegNmQueryAllCount_EndProc:function hidden]
  1583                                 %line 289+0 /home/se170/VirtualBox-4.3.28/out/linux.amd64/debug/obj/VMMR3LazyImp/VMMR3LazyLoad.asm
  1584                                 DBGFR3RegNmQueryAllCount_EndProc:
  1585                                 [size DBGFR3RegNmQueryAllCount DBGFR3RegNmQueryAllCount_EndProc - DBGFR3RegNmQueryAllCount]
  1586                                 [size DBGFR3RegNmQueryAllCount_EndProc 0]
  1587 00000394 CCCCCCCC                db 0xCC, 0xCC, 0xCC, 0xCC
  1588                                 %line 290+1 /home/se170/VirtualBox-4.3.28/out/linux.amd64/debug/obj/VMMR3LazyImp/VMMR3LazyLoad.asm
  1589                                 [global DBGFR3OSDeregister:function hidden]
  1590                                 %line 290+0 /home/se170/VirtualBox-4.3.28/out/linux.amd64/debug/obj/VMMR3LazyImp/VMMR3LazyLoad.asm
  1591                                 DBGFR3OSDeregister:
  1592                                 %line 291+1 /home/se170/VirtualBox-4.3.28/out/linux.amd64/debug/obj/VMMR3LazyImp/VMMR3LazyLoad.asm
  1593 00000398 FF25(F4FFFFFF)          jmp qword [g_pfnDBGFR3OSDeregister wrt rip]
  1594                                 [global DBGFR3OSDeregister_EndProc:function hidden]
  1595                                 %line 292+0 /home/se170/VirtualBox-4.3.28/out/linux.amd64/debug/obj/VMMR3LazyImp/VMMR3LazyLoad.asm
  1596                                 DBGFR3OSDeregister_EndProc:
  1597                                 [size DBGFR3OSDeregister DBGFR3OSDeregister_EndProc - DBGFR3OSDeregister]
  1598                                 [size DBGFR3OSDeregister_EndProc 0]
  1599 0000039E CCCCCCCC                db 0xCC, 0xCC, 0xCC, 0xCC
  1600                                 %line 293+1 /home/se170/VirtualBox-4.3.28/out/linux.amd64/debug/obj/VMMR3LazyImp/VMMR3LazyLoad.asm
  1601                                 [global DBGFR3OSRegister:function hidden]
  1602                                 %line 293+0 /home/se170/VirtualBox-4.3.28/out/linux.amd64/debug/obj/VMMR3LazyImp/VMMR3LazyLoad.asm
  1603                                 DBGFR3OSRegister:
  1604                                 %line 294+1 /home/se170/VirtualBox-4.3.28/out/linux.amd64/debug/obj/VMMR3LazyImp/VMMR3LazyLoad.asm
  1605 000003A2 FF25(F4FFFFFF)          jmp qword [g_pfnDBGFR3OSRegister wrt rip]
  1606                                 [global DBGFR3OSRegister_EndProc:function hidden]
  1607                                 %line 295+0 /home/se170/VirtualBox-4.3.28/out/linux.amd64/debug/obj/VMMR3LazyImp/VMMR3LazyLoad.asm
  1608                                 DBGFR3OSRegister_EndProc:
  1609                                 [size DBGFR3OSRegister DBGFR3OSRegister_EndProc - DBGFR3OSRegister]
  1610                                 [size DBGFR3OSRegister_EndProc 0]
  1611 000003A8 CCCCCCCC                db 0xCC, 0xCC, 0xCC, 0xCC
  1612                                 %line 296+1 /home/se170/VirtualBox-4.3.28/out/linux.amd64/debug/obj/VMMR3LazyImp/VMMR3LazyLoad.asm
  1613                                 [global DBGFR3MemReadString:function hidden]
  1614                                 %line 296+0 /home/se170/VirtualBox-4.3.28/out/linux.amd64/debug/obj/VMMR3LazyImp/VMMR3LazyLoad.asm
  1615                                 DBGFR3MemReadString:
  1616                                 %line 297+1 /home/se170/VirtualBox-4.3.28/out/linux.amd64/debug/obj/VMMR3LazyImp/VMMR3LazyLoad.asm
  1617 000003AC FF25(F4FFFFFF)          jmp qword [g_pfnDBGFR3MemReadString wrt rip]
  1618                                 [global DBGFR3MemReadString_EndProc:function hidden]
  1619                                 %line 298+0 /home/se170/VirtualBox-4.3.28/out/linux.amd64/debug/obj/VMMR3LazyImp/VMMR3LazyLoad.asm
  1620                                 DBGFR3MemReadString_EndProc:
  1621                                 [size DBGFR3MemReadString DBGFR3MemReadString_EndProc - DBGFR3MemReadString]
  1622                                 [size DBGFR3MemReadString_EndProc 0]
  1623 000003B2 CCCCCCCC                db 0xCC, 0xCC, 0xCC, 0xCC
  1624                                 %line 299+1 /home/se170/VirtualBox-4.3.28/out/linux.amd64/debug/obj/VMMR3LazyImp/VMMR3LazyLoad.asm
  1625                                 [global DBGFR3MemRead:function hidden]
  1626                                 %line 299+0 /home/se170/VirtualBox-4.3.28/out/linux.amd64/debug/obj/VMMR3LazyImp/VMMR3LazyLoad.asm
  1627                                 DBGFR3MemRead:
  1628                                 %line 300+1 /home/se170/VirtualBox-4.3.28/out/linux.amd64/debug/obj/VMMR3LazyImp/VMMR3LazyLoad.asm
  1629 000003B6 FF25(F4FFFFFF)          jmp qword [g_pfnDBGFR3MemRead wrt rip]
  1630                                 [global DBGFR3MemRead_EndProc:function hidden]
  1631                                 %line 301+0 /home/se170/VirtualBox-4.3.28/out/linux.amd64/debug/obj/VMMR3LazyImp/VMMR3LazyLoad.asm
  1632                                 DBGFR3MemRead_EndProc:
  1633                                 [size DBGFR3MemRead DBGFR3MemRead_EndProc - DBGFR3MemRead]
  1634                                 [size DBGFR3MemRead_EndProc 0]
  1635 000003BC CCCCCCCC                db 0xCC, 0xCC, 0xCC, 0xCC
  1636                                 %line 302+1 /home/se170/VirtualBox-4.3.28/out/linux.amd64/debug/obj/VMMR3LazyImp/VMMR3LazyLoad.asm
  1637                                 [global DBGFR3MemScan:function hidden]
  1638                                 %line 302+0 /home/se170/VirtualBox-4.3.28/out/linux.amd64/debug/obj/VMMR3LazyImp/VMMR3LazyLoad.asm
  1639                                 DBGFR3MemScan:
  1640                                 %line 303+1 /home/se170/VirtualBox-4.3.28/out/linux.amd64/debug/obj/VMMR3LazyImp/VMMR3LazyLoad.asm
  1641 000003C0 FF25(F4FFFFFF)          jmp qword [g_pfnDBGFR3MemScan wrt rip]
  1642                                 [global DBGFR3MemScan_EndProc:function hidden]
  1643                                 %line 304+0 /home/se170/VirtualBox-4.3.28/out/linux.amd64/debug/obj/VMMR3LazyImp/VMMR3LazyLoad.asm
  1644                                 DBGFR3MemScan_EndProc:
  1645                                 [size DBGFR3MemScan DBGFR3MemScan_EndProc - DBGFR3MemScan]
  1646                                 [size DBGFR3MemScan_EndProc 0]
  1647 000003C6 CCCCCCCC                db 0xCC, 0xCC, 0xCC, 0xCC
  1648                                 %line 305+1 /home/se170/VirtualBox-4.3.28/out/linux.amd64/debug/obj/VMMR3LazyImp/VMMR3LazyLoad.asm
  1649                                 [global DBGFR3AddrFromFlat:function hidden]
  1650                                 %line 305+0 /home/se170/VirtualBox-4.3.28/out/linux.amd64/debug/obj/VMMR3LazyImp/VMMR3LazyLoad.asm
  1651                                 DBGFR3AddrFromFlat:
  1652                                 %line 306+1 /home/se170/VirtualBox-4.3.28/out/linux.amd64/debug/obj/VMMR3LazyImp/VMMR3LazyLoad.asm
  1653 000003CA FF25(F4FFFFFF)          jmp qword [g_pfnDBGFR3AddrFromFlat wrt rip]
  1654                                 [global DBGFR3AddrFromFlat_EndProc:function hidden]
  1655                                 %line 307+0 /home/se170/VirtualBox-4.3.28/out/linux.amd64/debug/obj/VMMR3LazyImp/VMMR3LazyLoad.asm
  1656                                 DBGFR3AddrFromFlat_EndProc:
  1657                                 [size DBGFR3AddrFromFlat DBGFR3AddrFromFlat_EndProc - DBGFR3AddrFromFlat]
  1658                                 [size DBGFR3AddrFromFlat_EndProc 0]
  1659 000003D0 CCCCCCCC                db 0xCC, 0xCC, 0xCC, 0xCC
  1660                                 %line 308+1 /home/se170/VirtualBox-4.3.28/out/linux.amd64/debug/obj/VMMR3LazyImp/VMMR3LazyLoad.asm
  1661                                 [global DBGFR3AsSymbolByName:function hidden]
  1662                                 %line 308+0 /home/se170/VirtualBox-4.3.28/out/linux.amd64/debug/obj/VMMR3LazyImp/VMMR3LazyLoad.asm
  1663                                 DBGFR3AsSymbolByName:
  1664                                 %line 309+1 /home/se170/VirtualBox-4.3.28/out/linux.amd64/debug/obj/VMMR3LazyImp/VMMR3LazyLoad.asm
  1665 000003D4 FF25(F4FFFFFF)          jmp qword [g_pfnDBGFR3AsSymbolByName wrt rip]
  1666                                 [global DBGFR3AsSymbolByName_EndProc:function hidden]
  1667                                 %line 310+0 /home/se170/VirtualBox-4.3.28/out/linux.amd64/debug/obj/VMMR3LazyImp/VMMR3LazyLoad.asm
  1668                                 DBGFR3AsSymbolByName_EndProc:
  1669                                 [size DBGFR3AsSymbolByName DBGFR3AsSymbolByName_EndProc - DBGFR3AsSymbolByName]
  1670                                 [size DBGFR3AsSymbolByName_EndProc 0]
  1671 000003DA CCCCCCCC                db 0xCC, 0xCC, 0xCC, 0xCC
  1672                                 %line 311+1 /home/se170/VirtualBox-4.3.28/out/linux.amd64/debug/obj/VMMR3LazyImp/VMMR3LazyLoad.asm
  1673                                 [global DBGFR3AsResolveAndRetain:function hidden]
  1674                                 %line 311+0 /home/se170/VirtualBox-4.3.28/out/linux.amd64/debug/obj/VMMR3LazyImp/VMMR3LazyLoad.asm
  1675                                 DBGFR3AsResolveAndRetain:
  1676                                 %line 312+1 /home/se170/VirtualBox-4.3.28/out/linux.amd64/debug/obj/VMMR3LazyImp/VMMR3LazyLoad.asm
  1677 000003DE FF25(F4FFFFFF)          jmp qword [g_pfnDBGFR3AsResolveAndRetain wrt rip]
  1678                                 [global DBGFR3AsResolveAndRetain_EndProc:function hidden]
  1679                                 %line 313+0 /home/se170/VirtualBox-4.3.28/out/linux.amd64/debug/obj/VMMR3LazyImp/VMMR3LazyLoad.asm
  1680                                 DBGFR3AsResolveAndRetain_EndProc:
  1681                                 [size DBGFR3AsResolveAndRetain DBGFR3AsResolveAndRetain_EndProc - DBGFR3AsResolveAndRetain]
  1682                                 [size DBGFR3AsResolveAndRetain_EndProc 0]
  1683 000003E4 CCCCCCCC                db 0xCC, 0xCC, 0xCC, 0xCC
  1684                                 %line 314+1 /home/se170/VirtualBox-4.3.28/out/linux.amd64/debug/obj/VMMR3LazyImp/VMMR3LazyLoad.asm
  1685                                 [global DBGFR3AsSetAlias:function hidden]
  1686                                 %line 314+0 /home/se170/VirtualBox-4.3.28/out/linux.amd64/debug/obj/VMMR3LazyImp/VMMR3LazyLoad.asm
  1687                                 DBGFR3AsSetAlias:
  1688                                 %line 315+1 /home/se170/VirtualBox-4.3.28/out/linux.amd64/debug/obj/VMMR3LazyImp/VMMR3LazyLoad.asm
  1689 000003E8 FF25(F4FFFFFF)          jmp qword [g_pfnDBGFR3AsSetAlias wrt rip]
  1690                                 [global DBGFR3AsSetAlias_EndProc:function hidden]
  1691                                 %line 316+0 /home/se170/VirtualBox-4.3.28/out/linux.amd64/debug/obj/VMMR3LazyImp/VMMR3LazyLoad.asm
  1692                                 DBGFR3AsSetAlias_EndProc:
  1693                                 [size DBGFR3AsSetAlias DBGFR3AsSetAlias_EndProc - DBGFR3AsSetAlias]
  1694                                 [size DBGFR3AsSetAlias_EndProc 0]
  1695 000003EE CCCCCCCC                db 0xCC, 0xCC, 0xCC, 0xCC
  1696                                 %line 317+1 /home/se170/VirtualBox-4.3.28/out/linux.amd64/debug/obj/VMMR3LazyImp/VMMR3LazyLoad.asm
  1697                                 [global DBGFR3AddrAdd:function hidden]
  1698                                 %line 317+0 /home/se170/VirtualBox-4.3.28/out/linux.amd64/debug/obj/VMMR3LazyImp/VMMR3LazyLoad.asm
  1699                                 DBGFR3AddrAdd:
  1700                                 %line 318+1 /home/se170/VirtualBox-4.3.28/out/linux.amd64/debug/obj/VMMR3LazyImp/VMMR3LazyLoad.asm
  1701 000003F2 FF25(F4FFFFFF)          jmp qword [g_pfnDBGFR3AddrAdd wrt rip]
  1702                                 [global DBGFR3AddrAdd_EndProc:function hidden]
  1703                                 %line 319+0 /home/se170/VirtualBox-4.3.28/out/linux.amd64/debug/obj/VMMR3LazyImp/VMMR3LazyLoad.asm
  1704                                 DBGFR3AddrAdd_EndProc:
  1705                                 [size DBGFR3AddrAdd DBGFR3AddrAdd_EndProc - DBGFR3AddrAdd]
  1706                                 [size DBGFR3AddrAdd_EndProc 0]
  1707 000003F8 CCCCCCCC                db 0xCC, 0xCC, 0xCC, 0xCC
  1708                                 %line 320+1 /home/se170/VirtualBox-4.3.28/out/linux.amd64/debug/obj/VMMR3LazyImp/VMMR3LazyLoad.asm
  1709                                 [global DBGFR3AddrSub:function hidden]
  1710                                 %line 320+0 /home/se170/VirtualBox-4.3.28/out/linux.amd64/debug/obj/VMMR3LazyImp/VMMR3LazyLoad.asm
  1711                                 DBGFR3AddrSub:
  1712                                 %line 321+1 /home/se170/VirtualBox-4.3.28/out/linux.amd64/debug/obj/VMMR3LazyImp/VMMR3LazyLoad.asm
  1713 000003FC FF25(F4FFFFFF)          jmp qword [g_pfnDBGFR3AddrSub wrt rip]
  1714                                 [global DBGFR3AddrSub_EndProc:function hidden]
  1715                                 %line 322+0 /home/se170/VirtualBox-4.3.28/out/linux.amd64/debug/obj/VMMR3LazyImp/VMMR3LazyLoad.asm
  1716                                 DBGFR3AddrSub_EndProc:
  1717                                 [size DBGFR3AddrSub DBGFR3AddrSub_EndProc - DBGFR3AddrSub]
  1718                                 [size DBGFR3AddrSub_EndProc 0]
  1719 00000402 CCCCCCCC                db 0xCC, 0xCC, 0xCC, 0xCC
  1720                                 %line 323+1 /home/se170/VirtualBox-4.3.28/out/linux.amd64/debug/obj/VMMR3LazyImp/VMMR3LazyLoad.asm
  1721                                 [global DBGFR3AsGetConfig:function hidden]
  1722                                 %line 323+0 /home/se170/VirtualBox-4.3.28/out/linux.amd64/debug/obj/VMMR3LazyImp/VMMR3LazyLoad.asm
  1723                                 DBGFR3AsGetConfig:
  1724                                 %line 324+1 /home/se170/VirtualBox-4.3.28/out/linux.amd64/debug/obj/VMMR3LazyImp/VMMR3LazyLoad.asm
  1725 00000406 FF25(F4FFFFFF)          jmp qword [g_pfnDBGFR3AsGetConfig wrt rip]
  1726                                 [global DBGFR3AsGetConfig_EndProc:function hidden]
  1727                                 %line 325+0 /home/se170/VirtualBox-4.3.28/out/linux.amd64/debug/obj/VMMR3LazyImp/VMMR3LazyLoad.asm
  1728                                 DBGFR3AsGetConfig_EndProc:
  1729                                 [size DBGFR3AsGetConfig DBGFR3AsGetConfig_EndProc - DBGFR3AsGetConfig]
  1730                                 [size DBGFR3AsGetConfig_EndProc 0]
  1731 0000040C CCCCCCCC                db 0xCC, 0xCC, 0xCC, 0xCC
  1732                                 %line 326+1 /home/se170/VirtualBox-4.3.28/out/linux.amd64/debug/obj/VMMR3LazyImp/VMMR3LazyLoad.asm
  1733                                 [global DBGFR3CpuGetMode:function hidden]
  1734                                 %line 326+0 /home/se170/VirtualBox-4.3.28/out/linux.amd64/debug/obj/VMMR3LazyImp/VMMR3LazyLoad.asm
  1735                                 DBGFR3CpuGetMode:
  1736                                 %line 327+1 /home/se170/VirtualBox-4.3.28/out/linux.amd64/debug/obj/VMMR3LazyImp/VMMR3LazyLoad.asm
  1737 00000410 FF25(F4FFFFFF)          jmp qword [g_pfnDBGFR3CpuGetMode wrt rip]
  1738                                 [global DBGFR3CpuGetMode_EndProc:function hidden]
  1739                                 %line 328+0 /home/se170/VirtualBox-4.3.28/out/linux.amd64/debug/obj/VMMR3LazyImp/VMMR3LazyLoad.asm
  1740                                 DBGFR3CpuGetMode_EndProc:
  1741                                 [size DBGFR3CpuGetMode DBGFR3CpuGetMode_EndProc - DBGFR3CpuGetMode]
  1742                                 [size DBGFR3CpuGetMode_EndProc 0]
  1743 00000416 CCCCCCCC                db 0xCC, 0xCC, 0xCC, 0xCC
  1744                                 %line 329+1 /home/se170/VirtualBox-4.3.28/out/linux.amd64/debug/obj/VMMR3LazyImp/VMMR3LazyLoad.asm
  1745                                 [global DBGFR3AddrFromSelOff:function hidden]
  1746                                 %line 329+0 /home/se170/VirtualBox-4.3.28/out/linux.amd64/debug/obj/VMMR3LazyImp/VMMR3LazyLoad.asm
  1747                                 DBGFR3AddrFromSelOff:
  1748                                 %line 330+1 /home/se170/VirtualBox-4.3.28/out/linux.amd64/debug/obj/VMMR3LazyImp/VMMR3LazyLoad.asm
  1749 0000041A FF25(F4FFFFFF)          jmp qword [g_pfnDBGFR3AddrFromSelOff wrt rip]
  1750                                 [global DBGFR3AddrFromSelOff_EndProc:function hidden]
  1751                                 %line 331+0 /home/se170/VirtualBox-4.3.28/out/linux.amd64/debug/obj/VMMR3LazyImp/VMMR3LazyLoad.asm
  1752                                 DBGFR3AddrFromSelOff_EndProc:
  1753                                 [size DBGFR3AddrFromSelOff DBGFR3AddrFromSelOff_EndProc - DBGFR3AddrFromSelOff]
  1754                                 [size DBGFR3AddrFromSelOff_EndProc 0]
  1755 00000420 CCCCCCCC                db 0xCC, 0xCC, 0xCC, 0xCC
  1756                                 %line 332+1 /home/se170/VirtualBox-4.3.28/out/linux.amd64/debug/obj/VMMR3LazyImp/VMMR3LazyLoad.asm
  1757                                 [global EMR3QueryExecutionPolicy:function hidden]
  1758                                 %line 332+0 /home/se170/VirtualBox-4.3.28/out/linux.amd64/debug/obj/VMMR3LazyImp/VMMR3LazyLoad.asm
  1759                                 EMR3QueryExecutionPolicy:
  1760                                 %line 333+1 /home/se170/VirtualBox-4.3.28/out/linux.amd64/debug/obj/VMMR3LazyImp/VMMR3LazyLoad.asm
  1761 00000424 FF25(F4FFFFFF)          jmp qword [g_pfnEMR3QueryExecutionPolicy wrt rip]
  1762                                 [global EMR3QueryExecutionPolicy_EndProc:function hidden]
  1763                                 %line 334+0 /home/se170/VirtualBox-4.3.28/out/linux.amd64/debug/obj/VMMR3LazyImp/VMMR3LazyLoad.asm
  1764                                 EMR3QueryExecutionPolicy_EndProc:
  1765                                 [size EMR3QueryExecutionPolicy EMR3QueryExecutionPolicy_EndProc - EMR3QueryExecutionPolicy]
  1766                                 [size EMR3QueryExecutionPolicy_EndProc 0]
  1767 0000042A CCCCCCCC                db 0xCC, 0xCC, 0xCC, 0xCC
  1768                                 %line 335+1 /home/se170/VirtualBox-4.3.28/out/linux.amd64/debug/obj/VMMR3LazyImp/VMMR3LazyLoad.asm
  1769                                 [global EMR3SetExecutionPolicy:function hidden]
  1770                                 %line 335+0 /home/se170/VirtualBox-4.3.28/out/linux.amd64/debug/obj/VMMR3LazyImp/VMMR3LazyLoad.asm
  1771                                 EMR3SetExecutionPolicy:
  1772                                 %line 336+1 /home/se170/VirtualBox-4.3.28/out/linux.amd64/debug/obj/VMMR3LazyImp/VMMR3LazyLoad.asm
  1773 0000042E FF25(F4FFFFFF)          jmp qword [g_pfnEMR3SetExecutionPolicy wrt rip]
  1774                                 [global EMR3SetExecutionPolicy_EndProc:function hidden]
  1775                                 %line 337+0 /home/se170/VirtualBox-4.3.28/out/linux.amd64/debug/obj/VMMR3LazyImp/VMMR3LazyLoad.asm
  1776                                 EMR3SetExecutionPolicy_EndProc:
  1777                                 [size EMR3SetExecutionPolicy EMR3SetExecutionPolicy_EndProc - EMR3SetExecutionPolicy]
  1778                                 [size EMR3SetExecutionPolicy_EndProc 0]
  1779 00000434 CCCCCCCC                db 0xCC, 0xCC, 0xCC, 0xCC
  1780                                 %line 338+1 /home/se170/VirtualBox-4.3.28/out/linux.amd64/debug/obj/VMMR3LazyImp/VMMR3LazyLoad.asm
  1781                                 [global FTMR3CancelStandby:function hidden]
  1782                                 %line 338+0 /home/se170/VirtualBox-4.3.28/out/linux.amd64/debug/obj/VMMR3LazyImp/VMMR3LazyLoad.asm
  1783                                 FTMR3CancelStandby:
  1784                                 %line 339+1 /home/se170/VirtualBox-4.3.28/out/linux.amd64/debug/obj/VMMR3LazyImp/VMMR3LazyLoad.asm
  1785 00000438 FF25(F4FFFFFF)          jmp qword [g_pfnFTMR3CancelStandby wrt rip]
  1786                                 [global FTMR3CancelStandby_EndProc:function hidden]
  1787                                 %line 340+0 /home/se170/VirtualBox-4.3.28/out/linux.amd64/debug/obj/VMMR3LazyImp/VMMR3LazyLoad.asm
  1788                                 FTMR3CancelStandby_EndProc:
  1789                                 [size FTMR3CancelStandby FTMR3CancelStandby_EndProc - FTMR3CancelStandby]
  1790                                 [size FTMR3CancelStandby_EndProc 0]
  1791 0000043E CCCCCCCC                db 0xCC, 0xCC, 0xCC, 0xCC
  1792                                 %line 341+1 /home/se170/VirtualBox-4.3.28/out/linux.amd64/debug/obj/VMMR3LazyImp/VMMR3LazyLoad.asm
  1793                                 [global FTMR3PowerOn:function hidden]
  1794                                 %line 341+0 /home/se170/VirtualBox-4.3.28/out/linux.amd64/debug/obj/VMMR3LazyImp/VMMR3LazyLoad.asm
  1795                                 FTMR3PowerOn:
  1796                                 %line 342+1 /home/se170/VirtualBox-4.3.28/out/linux.amd64/debug/obj/VMMR3LazyImp/VMMR3LazyLoad.asm
  1797 00000442 FF25(F4FFFFFF)          jmp qword [g_pfnFTMR3PowerOn wrt rip]
  1798                                 [global FTMR3PowerOn_EndProc:function hidden]
  1799                                 %line 343+0 /home/se170/VirtualBox-4.3.28/out/linux.amd64/debug/obj/VMMR3LazyImp/VMMR3LazyLoad.asm
  1800                                 FTMR3PowerOn_EndProc:
  1801                                 [size FTMR3PowerOn FTMR3PowerOn_EndProc - FTMR3PowerOn]
  1802                                 [size FTMR3PowerOn_EndProc 0]
  1803 00000448 CCCCCCCC                db 0xCC, 0xCC, 0xCC, 0xCC
  1804                                 %line 344+1 /home/se170/VirtualBox-4.3.28/out/linux.amd64/debug/obj/VMMR3LazyImp/VMMR3LazyLoad.asm
  1805                                 [global HMR3IsEnabled:function hidden]
  1806                                 %line 344+0 /home/se170/VirtualBox-4.3.28/out/linux.amd64/debug/obj/VMMR3LazyImp/VMMR3LazyLoad.asm
  1807                                 HMR3IsEnabled:
  1808                                 %line 345+1 /home/se170/VirtualBox-4.3.28/out/linux.amd64/debug/obj/VMMR3LazyImp/VMMR3LazyLoad.asm
  1809 0000044C FF25(F4FFFFFF)          jmp qword [g_pfnHMR3IsEnabled wrt rip]
  1810                                 [global HMR3IsEnabled_EndProc:function hidden]
  1811                                 %line 346+0 /home/se170/VirtualBox-4.3.28/out/linux.amd64/debug/obj/VMMR3LazyImp/VMMR3LazyLoad.asm
  1812                                 HMR3IsEnabled_EndProc:
  1813                                 [size HMR3IsEnabled HMR3IsEnabled_EndProc - HMR3IsEnabled]
  1814                                 [size HMR3IsEnabled_EndProc 0]
  1815 00000452 CCCCCCCC                db 0xCC, 0xCC, 0xCC, 0xCC
  1816                                 %line 347+1 /home/se170/VirtualBox-4.3.28/out/linux.amd64/debug/obj/VMMR3LazyImp/VMMR3LazyLoad.asm
  1817                                 [global HMR3IsNestedPagingActive:function hidden]
  1818                                 %line 347+0 /home/se170/VirtualBox-4.3.28/out/linux.amd64/debug/obj/VMMR3LazyImp/VMMR3LazyLoad.asm
  1819                                 HMR3IsNestedPagingActive:
  1820                                 %line 348+1 /home/se170/VirtualBox-4.3.28/out/linux.amd64/debug/obj/VMMR3LazyImp/VMMR3LazyLoad.asm
  1821 00000456 FF25(F4FFFFFF)          jmp qword [g_pfnHMR3IsNestedPagingActive wrt rip]
  1822                                 [global HMR3IsNestedPagingActive_EndProc:function hidden]
  1823                                 %line 349+0 /home/se170/VirtualBox-4.3.28/out/linux.amd64/debug/obj/VMMR3LazyImp/VMMR3LazyLoad.asm
  1824                                 HMR3IsNestedPagingActive_EndProc:
  1825                                 [size HMR3IsNestedPagingActive HMR3IsNestedPagingActive_EndProc - HMR3IsNestedPagingActive]
  1826                                 [size HMR3IsNestedPagingActive_EndProc 0]
  1827 0000045C CCCCCCCC                db 0xCC, 0xCC, 0xCC, 0xCC
  1828                                 %line 350+1 /home/se170/VirtualBox-4.3.28/out/linux.amd64/debug/obj/VMMR3LazyImp/VMMR3LazyLoad.asm
  1829                                 [global HMR3IsUXActive:function hidden]
  1830                                 %line 350+0 /home/se170/VirtualBox-4.3.28/out/linux.amd64/debug/obj/VMMR3LazyImp/VMMR3LazyLoad.asm
  1831                                 HMR3IsUXActive:
  1832                                 %line 351+1 /home/se170/VirtualBox-4.3.28/out/linux.amd64/debug/obj/VMMR3LazyImp/VMMR3LazyLoad.asm
  1833 00000460 FF25(F4FFFFFF)          jmp qword [g_pfnHMR3IsUXActive wrt rip]
  1834                                 [global HMR3IsUXActive_EndProc:function hidden]
  1835                                 %line 352+0 /home/se170/VirtualBox-4.3.28/out/linux.amd64/debug/obj/VMMR3LazyImp/VMMR3LazyLoad.asm
  1836                                 HMR3IsUXActive_EndProc:
  1837                                 [size HMR3IsUXActive HMR3IsUXActive_EndProc - HMR3IsUXActive]
  1838                                 [size HMR3IsUXActive_EndProc 0]
  1839 00000466 CCCCCCCC                db 0xCC, 0xCC, 0xCC, 0xCC
  1840                                 %line 353+1 /home/se170/VirtualBox-4.3.28/out/linux.amd64/debug/obj/VMMR3LazyImp/VMMR3LazyLoad.asm
  1841                                 [global HMR3IsVpidActive:function hidden]
  1842                                 %line 353+0 /home/se170/VirtualBox-4.3.28/out/linux.amd64/debug/obj/VMMR3LazyImp/VMMR3LazyLoad.asm
  1843                                 HMR3IsVpidActive:
  1844                                 %line 354+1 /home/se170/VirtualBox-4.3.28/out/linux.amd64/debug/obj/VMMR3LazyImp/VMMR3LazyLoad.asm
  1845 0000046A FF25(F4FFFFFF)          jmp qword [g_pfnHMR3IsVpidActive wrt rip]
  1846                                 [global HMR3IsVpidActive_EndProc:function hidden]
  1847                                 %line 355+0 /home/se170/VirtualBox-4.3.28/out/linux.amd64/debug/obj/VMMR3LazyImp/VMMR3LazyLoad.asm
  1848                                 HMR3IsVpidActive_EndProc:
  1849                                 [size HMR3IsVpidActive HMR3IsVpidActive_EndProc - HMR3IsVpidActive]
  1850                                 [size HMR3IsVpidActive_EndProc 0]
  1851 00000470 CCCCCCCC                db 0xCC, 0xCC, 0xCC, 0xCC
  1852                                 %line 356+1 /home/se170/VirtualBox-4.3.28/out/linux.amd64/debug/obj/VMMR3LazyImp/VMMR3LazyLoad.asm
  1853                                 [global MMR3HeapFree:function hidden]
  1854                                 %line 356+0 /home/se170/VirtualBox-4.3.28/out/linux.amd64/debug/obj/VMMR3LazyImp/VMMR3LazyLoad.asm
  1855                                 MMR3HeapFree:
  1856                                 %line 357+1 /home/se170/VirtualBox-4.3.28/out/linux.amd64/debug/obj/VMMR3LazyImp/VMMR3LazyLoad.asm
  1857 00000474 FF25(F4FFFFFF)          jmp qword [g_pfnMMR3HeapFree wrt rip]
  1858                                 [global MMR3HeapFree_EndProc:function hidden]
  1859                                 %line 358+0 /home/se170/VirtualBox-4.3.28/out/linux.amd64/debug/obj/VMMR3LazyImp/VMMR3LazyLoad.asm
  1860                                 MMR3HeapFree_EndProc:
  1861                                 [size MMR3HeapFree MMR3HeapFree_EndProc - MMR3HeapFree]
  1862                                 [size MMR3HeapFree_EndProc 0]
  1863 0000047A CCCCCCCC                db 0xCC, 0xCC, 0xCC, 0xCC
  1864                                 %line 359+1 /home/se170/VirtualBox-4.3.28/out/linux.amd64/debug/obj/VMMR3LazyImp/VMMR3LazyLoad.asm
  1865                                 [global MMR3HeapRealloc:function hidden]
  1866                                 %line 359+0 /home/se170/VirtualBox-4.3.28/out/linux.amd64/debug/obj/VMMR3LazyImp/VMMR3LazyLoad.asm
  1867                                 MMR3HeapRealloc:
  1868                                 %line 360+1 /home/se170/VirtualBox-4.3.28/out/linux.amd64/debug/obj/VMMR3LazyImp/VMMR3LazyLoad.asm
  1869 0000047E FF25(F4FFFFFF)          jmp qword [g_pfnMMR3HeapRealloc wrt rip]
  1870                                 [global MMR3HeapRealloc_EndProc:function hidden]
  1871                                 %line 361+0 /home/se170/VirtualBox-4.3.28/out/linux.amd64/debug/obj/VMMR3LazyImp/VMMR3LazyLoad.asm
  1872                                 MMR3HeapRealloc_EndProc:
  1873                                 [size MMR3HeapRealloc MMR3HeapRealloc_EndProc - MMR3HeapRealloc]
  1874                                 [size MMR3HeapRealloc_EndProc 0]
  1875 00000484 CCCCCCCC                db 0xCC, 0xCC, 0xCC, 0xCC
  1876                                 %line 362+1 /home/se170/VirtualBox-4.3.28/out/linux.amd64/debug/obj/VMMR3LazyImp/VMMR3LazyLoad.asm
  1877                                 [global PATMR3AllowPatching:function hidden]
  1878                                 %line 362+0 /home/se170/VirtualBox-4.3.28/out/linux.amd64/debug/obj/VMMR3LazyImp/VMMR3LazyLoad.asm
  1879                                 PATMR3AllowPatching:
  1880                                 %line 363+1 /home/se170/VirtualBox-4.3.28/out/linux.amd64/debug/obj/VMMR3LazyImp/VMMR3LazyLoad.asm
  1881 00000488 FF25(F4FFFFFF)          jmp qword [g_pfnPATMR3AllowPatching wrt rip]
  1882                                 [global PATMR3AllowPatching_EndProc:function hidden]
  1883                                 %line 364+0 /home/se170/VirtualBox-4.3.28/out/linux.amd64/debug/obj/VMMR3LazyImp/VMMR3LazyLoad.asm
  1884                                 PATMR3AllowPatching_EndProc:
  1885                                 [size PATMR3AllowPatching PATMR3AllowPatching_EndProc - PATMR3AllowPatching]
  1886                                 [size PATMR3AllowPatching_EndProc 0]
  1887 0000048E CCCCCCCC                db 0xCC, 0xCC, 0xCC, 0xCC
  1888                                 %line 365+1 /home/se170/VirtualBox-4.3.28/out/linux.amd64/debug/obj/VMMR3LazyImp/VMMR3LazyLoad.asm
  1889                                 [global PATMR3IsEnabled:function hidden]
  1890                                 %line 365+0 /home/se170/VirtualBox-4.3.28/out/linux.amd64/debug/obj/VMMR3LazyImp/VMMR3LazyLoad.asm
  1891                                 PATMR3IsEnabled:
  1892                                 %line 366+1 /home/se170/VirtualBox-4.3.28/out/linux.amd64/debug/obj/VMMR3LazyImp/VMMR3LazyLoad.asm
  1893 00000492 FF25(F4FFFFFF)          jmp qword [g_pfnPATMR3IsEnabled wrt rip]
  1894                                 [global PATMR3IsEnabled_EndProc:function hidden]
  1895                                 %line 367+0 /home/se170/VirtualBox-4.3.28/out/linux.amd64/debug/obj/VMMR3LazyImp/VMMR3LazyLoad.asm
  1896                                 PATMR3IsEnabled_EndProc:
  1897                                 [size PATMR3IsEnabled PATMR3IsEnabled_EndProc - PATMR3IsEnabled]
  1898                                 [size PATMR3IsEnabled_EndProc 0]
  1899 00000498 CCCCCCCC                db 0xCC, 0xCC, 0xCC, 0xCC
  1900                                 %line 368+1 /home/se170/VirtualBox-4.3.28/out/linux.amd64/debug/obj/VMMR3LazyImp/VMMR3LazyLoad.asm
  1901                                 [global PDMR3AsyncCompletionBwMgrSetMaxForFile:function hidden]
  1902                                 %line 368+0 /home/se170/VirtualBox-4.3.28/out/linux.amd64/debug/obj/VMMR3LazyImp/VMMR3LazyLoad.asm
  1903                                 PDMR3AsyncCompletionBwMgrSetMaxForFile:
  1904                                 %line 369+1 /home/se170/VirtualBox-4.3.28/out/linux.amd64/debug/obj/VMMR3LazyImp/VMMR3LazyLoad.asm
  1905 0000049C FF25(F4FFFFFF)          jmp qword [g_pfnPDMR3AsyncCompletionBwMgrSetMaxForFile wrt rip]
  1906                                 [global PDMR3AsyncCompletionBwMgrSetMaxForFile_EndProc:function hidden]
  1907                                 %line 370+0 /home/se170/VirtualBox-4.3.28/out/linux.amd64/debug/obj/VMMR3LazyImp/VMMR3LazyLoad.asm
  1908                                 PDMR3AsyncCompletionBwMgrSetMaxForFile_EndProc:
  1909                                 [size PDMR3AsyncCompletionBwMgrSetMaxForFile PDMR3AsyncCompletionBwMgrSetMaxForFile_EndProc - PDMR3AsyncCompletionBwMgrSetMaxForFile]
  1910                                 [size PDMR3AsyncCompletionBwMgrSetMaxForFile_EndProc 0]
  1911 000004A2 CCCCCCCC                db 0xCC, 0xCC, 0xCC, 0xCC
  1912                                 %line 371+1 /home/se170/VirtualBox-4.3.28/out/linux.amd64/debug/obj/VMMR3LazyImp/VMMR3LazyLoad.asm
  1913                                 [global PDMR3DeviceAttach:function hidden]
  1914                                 %line 371+0 /home/se170/VirtualBox-4.3.28/out/linux.amd64/debug/obj/VMMR3LazyImp/VMMR3LazyLoad.asm
  1915                                 PDMR3DeviceAttach:
  1916                                 %line 372+1 /home/se170/VirtualBox-4.3.28/out/linux.amd64/debug/obj/VMMR3LazyImp/VMMR3LazyLoad.asm
  1917 000004A6 FF25(F4FFFFFF)          jmp qword [g_pfnPDMR3DeviceAttach wrt rip]
  1918                                 [global PDMR3DeviceAttach_EndProc:function hidden]
  1919                                 %line 373+0 /home/se170/VirtualBox-4.3.28/out/linux.amd64/debug/obj/VMMR3LazyImp/VMMR3LazyLoad.asm
  1920                                 PDMR3DeviceAttach_EndProc:
  1921                                 [size PDMR3DeviceAttach PDMR3DeviceAttach_EndProc - PDMR3DeviceAttach]
  1922                                 [size PDMR3DeviceAttach_EndProc 0]
  1923 000004AC CCCCCCCC                db 0xCC, 0xCC, 0xCC, 0xCC
  1924                                 %line 374+1 /home/se170/VirtualBox-4.3.28/out/linux.amd64/debug/obj/VMMR3LazyImp/VMMR3LazyLoad.asm
  1925                                 [global PDMR3DeviceDetach:function hidden]
  1926                                 %line 374+0 /home/se170/VirtualBox-4.3.28/out/linux.amd64/debug/obj/VMMR3LazyImp/VMMR3LazyLoad.asm
  1927                                 PDMR3DeviceDetach:
  1928                                 %line 375+1 /home/se170/VirtualBox-4.3.28/out/linux.amd64/debug/obj/VMMR3LazyImp/VMMR3LazyLoad.asm
  1929 000004B0 FF25(F4FFFFFF)          jmp qword [g_pfnPDMR3DeviceDetach wrt rip]
  1930                                 [global PDMR3DeviceDetach_EndProc:function hidden]
  1931                                 %line 376+0 /home/se170/VirtualBox-4.3.28/out/linux.amd64/debug/obj/VMMR3LazyImp/VMMR3LazyLoad.asm
  1932                                 PDMR3DeviceDetach_EndProc:
  1933                                 [size PDMR3DeviceDetach PDMR3DeviceDetach_EndProc - PDMR3DeviceDetach]
  1934                                 [size PDMR3DeviceDetach_EndProc 0]
  1935 000004B6 CCCCCCCC                db 0xCC, 0xCC, 0xCC, 0xCC
  1936                                 %line 377+1 /home/se170/VirtualBox-4.3.28/out/linux.amd64/debug/obj/VMMR3LazyImp/VMMR3LazyLoad.asm
  1937                                 [global PDMR3DriverAttach:function hidden]
  1938                                 %line 377+0 /home/se170/VirtualBox-4.3.28/out/linux.amd64/debug/obj/VMMR3LazyImp/VMMR3LazyLoad.asm
  1939                                 PDMR3DriverAttach:
  1940                                 %line 378+1 /home/se170/VirtualBox-4.3.28/out/linux.amd64/debug/obj/VMMR3LazyImp/VMMR3LazyLoad.asm
  1941 000004BA FF25(F4FFFFFF)          jmp qword [g_pfnPDMR3DriverAttach wrt rip]
  1942                                 [global PDMR3DriverAttach_EndProc:function hidden]
  1943                                 %line 379+0 /home/se170/VirtualBox-4.3.28/out/linux.amd64/debug/obj/VMMR3LazyImp/VMMR3LazyLoad.asm
  1944                                 PDMR3DriverAttach_EndProc:
  1945                                 [size PDMR3DriverAttach PDMR3DriverAttach_EndProc - PDMR3DriverAttach]
  1946                                 [size PDMR3DriverAttach_EndProc 0]
  1947 000004C0 CCCCCCCC                db 0xCC, 0xCC, 0xCC, 0xCC
  1948                                 %line 380+1 /home/se170/VirtualBox-4.3.28/out/linux.amd64/debug/obj/VMMR3LazyImp/VMMR3LazyLoad.asm
  1949                                 [global PDMR3NsBwGroupSetLimit:function hidden]
  1950                                 %line 380+0 /home/se170/VirtualBox-4.3.28/out/linux.amd64/debug/obj/VMMR3LazyImp/VMMR3LazyLoad.asm
  1951                                 PDMR3NsBwGroupSetLimit:
  1952                                 %line 381+1 /home/se170/VirtualBox-4.3.28/out/linux.amd64/debug/obj/VMMR3LazyImp/VMMR3LazyLoad.asm
  1953 000004C4 FF25(F4FFFFFF)          jmp qword [g_pfnPDMR3NsBwGroupSetLimit wrt rip]
  1954                                 [global PDMR3NsBwGroupSetLimit_EndProc:function hidden]
  1955                                 %line 382+0 /home/se170/VirtualBox-4.3.28/out/linux.amd64/debug/obj/VMMR3LazyImp/VMMR3LazyLoad.asm
  1956                                 PDMR3NsBwGroupSetLimit_EndProc:
  1957                                 [size PDMR3NsBwGroupSetLimit PDMR3NsBwGroupSetLimit_EndProc - PDMR3NsBwGroupSetLimit]
  1958                                 [size PDMR3NsBwGroupSetLimit_EndProc 0]
  1959 000004CA CCCCCCCC                db 0xCC, 0xCC, 0xCC, 0xCC
  1960                                 %line 383+1 /home/se170/VirtualBox-4.3.28/out/linux.amd64/debug/obj/VMMR3LazyImp/VMMR3LazyLoad.asm
  1961                                 [global PDMR3QueryDeviceLun:function hidden]
  1962                                 %line 383+0 /home/se170/VirtualBox-4.3.28/out/linux.amd64/debug/obj/VMMR3LazyImp/VMMR3LazyLoad.asm
  1963                                 PDMR3QueryDeviceLun:
  1964                                 %line 384+1 /home/se170/VirtualBox-4.3.28/out/linux.amd64/debug/obj/VMMR3LazyImp/VMMR3LazyLoad.asm
  1965 000004CE FF25(F4FFFFFF)          jmp qword [g_pfnPDMR3QueryDeviceLun wrt rip]
  1966                                 [global PDMR3QueryDeviceLun_EndProc:function hidden]
  1967                                 %line 385+0 /home/se170/VirtualBox-4.3.28/out/linux.amd64/debug/obj/VMMR3LazyImp/VMMR3LazyLoad.asm
  1968                                 PDMR3QueryDeviceLun_EndProc:
  1969                                 [size PDMR3QueryDeviceLun PDMR3QueryDeviceLun_EndProc - PDMR3QueryDeviceLun]
  1970                                 [size PDMR3QueryDeviceLun_EndProc 0]
  1971 000004D4 CCCCCCCC                db 0xCC, 0xCC, 0xCC, 0xCC
  1972                                 %line 386+1 /home/se170/VirtualBox-4.3.28/out/linux.amd64/debug/obj/VMMR3LazyImp/VMMR3LazyLoad.asm
  1973                                 [global PDMR3QueryDriverOnLun:function hidden]
  1974                                 %line 386+0 /home/se170/VirtualBox-4.3.28/out/linux.amd64/debug/obj/VMMR3LazyImp/VMMR3LazyLoad.asm
  1975                                 PDMR3QueryDriverOnLun:
  1976                                 %line 387+1 /home/se170/VirtualBox-4.3.28/out/linux.amd64/debug/obj/VMMR3LazyImp/VMMR3LazyLoad.asm
  1977 000004D8 FF25(F4FFFFFF)          jmp qword [g_pfnPDMR3QueryDriverOnLun wrt rip]
  1978                                 [global PDMR3QueryDriverOnLun_EndProc:function hidden]
  1979                                 %line 388+0 /home/se170/VirtualBox-4.3.28/out/linux.amd64/debug/obj/VMMR3LazyImp/VMMR3LazyLoad.asm
  1980                                 PDMR3QueryDriverOnLun_EndProc:
  1981                                 [size PDMR3QueryDriverOnLun PDMR3QueryDriverOnLun_EndProc - PDMR3QueryDriverOnLun]
  1982                                 [size PDMR3QueryDriverOnLun_EndProc 0]
  1983 000004DE CCCCCCCC                db 0xCC, 0xCC, 0xCC, 0xCC
  1984                                 %line 389+1 /home/se170/VirtualBox-4.3.28/out/linux.amd64/debug/obj/VMMR3LazyImp/VMMR3LazyLoad.asm
  1985                                 [global PDMR3QueryLun:function hidden]
  1986                                 %line 389+0 /home/se170/VirtualBox-4.3.28/out/linux.amd64/debug/obj/VMMR3LazyImp/VMMR3LazyLoad.asm
  1987                                 PDMR3QueryLun:
  1988                                 %line 390+1 /home/se170/VirtualBox-4.3.28/out/linux.amd64/debug/obj/VMMR3LazyImp/VMMR3LazyLoad.asm
  1989 000004E2 FF25(F4FFFFFF)          jmp qword [g_pfnPDMR3QueryLun wrt rip]
  1990                                 [global PDMR3QueryLun_EndProc:function hidden]
  1991                                 %line 391+0 /home/se170/VirtualBox-4.3.28/out/linux.amd64/debug/obj/VMMR3LazyImp/VMMR3LazyLoad.asm
  1992                                 PDMR3QueryLun_EndProc:
  1993                                 [size PDMR3QueryLun PDMR3QueryLun_EndProc - PDMR3QueryLun]
  1994                                 [size PDMR3QueryLun_EndProc 0]
  1995 000004E8 CCCCCCCC                db 0xCC, 0xCC, 0xCC, 0xCC
  1996                                 %line 392+1 /home/se170/VirtualBox-4.3.28/out/linux.amd64/debug/obj/VMMR3LazyImp/VMMR3LazyLoad.asm
  1997                                 [global PDMCritSectEnter:function hidden]
  1998                                 %line 392+0 /home/se170/VirtualBox-4.3.28/out/linux.amd64/debug/obj/VMMR3LazyImp/VMMR3LazyLoad.asm
  1999                                 PDMCritSectEnter:
  2000                                 %line 393+1 /home/se170/VirtualBox-4.3.28/out/linux.amd64/debug/obj/VMMR3LazyImp/VMMR3LazyLoad.asm
  2001 000004EC FF25(F4FFFFFF)          jmp qword [g_pfnPDMCritSectEnter wrt rip]
  2002                                 [global PDMCritSectEnter_EndProc:function hidden]
  2003                                 %line 394+0 /home/se170/VirtualBox-4.3.28/out/linux.amd64/debug/obj/VMMR3LazyImp/VMMR3LazyLoad.asm
  2004                                 PDMCritSectEnter_EndProc:
  2005                                 [size PDMCritSectEnter PDMCritSectEnter_EndProc - PDMCritSectEnter]
  2006                                 [size PDMCritSectEnter_EndProc 0]
  2007 000004F2 CCCCCCCC                db 0xCC, 0xCC, 0xCC, 0xCC
  2008                                 %line 395+1 /home/se170/VirtualBox-4.3.28/out/linux.amd64/debug/obj/VMMR3LazyImp/VMMR3LazyLoad.asm
  2009                                 [global PDMCritSectEnterDebug:function hidden]
  2010                                 %line 395+0 /home/se170/VirtualBox-4.3.28/out/linux.amd64/debug/obj/VMMR3LazyImp/VMMR3LazyLoad.asm
  2011                                 PDMCritSectEnterDebug:
  2012                                 %line 396+1 /home/se170/VirtualBox-4.3.28/out/linux.amd64/debug/obj/VMMR3LazyImp/VMMR3LazyLoad.asm
  2013 000004F6 FF25(F4FFFFFF)          jmp qword [g_pfnPDMCritSectEnterDebug wrt rip]
  2014                                 [global PDMCritSectEnterDebug_EndProc:function hidden]
  2015                                 %line 397+0 /home/se170/VirtualBox-4.3.28/out/linux.amd64/debug/obj/VMMR3LazyImp/VMMR3LazyLoad.asm
  2016                                 PDMCritSectEnterDebug_EndProc:
  2017                                 [size PDMCritSectEnterDebug PDMCritSectEnterDebug_EndProc - PDMCritSectEnterDebug]
  2018                                 [size PDMCritSectEnterDebug_EndProc 0]
  2019 000004FC CCCCCCCC                db 0xCC, 0xCC, 0xCC, 0xCC
  2020                                 %line 398+1 /home/se170/VirtualBox-4.3.28/out/linux.amd64/debug/obj/VMMR3LazyImp/VMMR3LazyLoad.asm
  2021                                 [global PDMCritSectTryEnter:function hidden]
  2022                                 %line 398+0 /home/se170/VirtualBox-4.3.28/out/linux.amd64/debug/obj/VMMR3LazyImp/VMMR3LazyLoad.asm
  2023                                 PDMCritSectTryEnter:
  2024                                 %line 399+1 /home/se170/VirtualBox-4.3.28/out/linux.amd64/debug/obj/VMMR3LazyImp/VMMR3LazyLoad.asm
  2025 00000500 FF25(F4FFFFFF)          jmp qword [g_pfnPDMCritSectTryEnter wrt rip]
  2026                                 [global PDMCritSectTryEnter_EndProc:function hidden]
  2027                                 %line 400+0 /home/se170/VirtualBox-4.3.28/out/linux.amd64/debug/obj/VMMR3LazyImp/VMMR3LazyLoad.asm
  2028                                 PDMCritSectTryEnter_EndProc:
  2029                                 [size PDMCritSectTryEnter PDMCritSectTryEnter_EndProc - PDMCritSectTryEnter]
  2030                                 [size PDMCritSectTryEnter_EndProc 0]
  2031 00000506 CCCCCCCC                db 0xCC, 0xCC, 0xCC, 0xCC
  2032                                 %line 401+1 /home/se170/VirtualBox-4.3.28/out/linux.amd64/debug/obj/VMMR3LazyImp/VMMR3LazyLoad.asm
  2033                                 [global PDMCritSectTryEnterDebug:function hidden]
  2034                                 %line 401+0 /home/se170/VirtualBox-4.3.28/out/linux.amd64/debug/obj/VMMR3LazyImp/VMMR3LazyLoad.asm
  2035                                 PDMCritSectTryEnterDebug:
  2036                                 %line 402+1 /home/se170/VirtualBox-4.3.28/out/linux.amd64/debug/obj/VMMR3LazyImp/VMMR3LazyLoad.asm
  2037 0000050A FF25(F4FFFFFF)          jmp qword [g_pfnPDMCritSectTryEnterDebug wrt rip]
  2038                                 [global PDMCritSectTryEnterDebug_EndProc:function hidden]
  2039                                 %line 403+0 /home/se170/VirtualBox-4.3.28/out/linux.amd64/debug/obj/VMMR3LazyImp/VMMR3LazyLoad.asm
  2040                                 PDMCritSectTryEnterDebug_EndProc:
  2041                                 [size PDMCritSectTryEnterDebug PDMCritSectTryEnterDebug_EndProc - PDMCritSectTryEnterDebug]
  2042                                 [size PDMCritSectTryEnterDebug_EndProc 0]
  2043 00000510 CCCCCCCC                db 0xCC, 0xCC, 0xCC, 0xCC
  2044                                 %line 404+1 /home/se170/VirtualBox-4.3.28/out/linux.amd64/debug/obj/VMMR3LazyImp/VMMR3LazyLoad.asm
  2045                                 [global PDMR3CritSectEnterEx:function hidden]
  2046                                 %line 404+0 /home/se170/VirtualBox-4.3.28/out/linux.amd64/debug/obj/VMMR3LazyImp/VMMR3LazyLoad.asm
  2047                                 PDMR3CritSectEnterEx:
  2048                                 %line 405+1 /home/se170/VirtualBox-4.3.28/out/linux.amd64/debug/obj/VMMR3LazyImp/VMMR3LazyLoad.asm
  2049 00000514 FF25(F4FFFFFF)          jmp qword [g_pfnPDMR3CritSectEnterEx wrt rip]
  2050                                 [global PDMR3CritSectEnterEx_EndProc:function hidden]
  2051                                 %line 406+0 /home/se170/VirtualBox-4.3.28/out/linux.amd64/debug/obj/VMMR3LazyImp/VMMR3LazyLoad.asm
  2052                                 PDMR3CritSectEnterEx_EndProc:
  2053                                 [size PDMR3CritSectEnterEx PDMR3CritSectEnterEx_EndProc - PDMR3CritSectEnterEx]
  2054                                 [size PDMR3CritSectEnterEx_EndProc 0]
  2055 0000051A CCCCCCCC                db 0xCC, 0xCC, 0xCC, 0xCC
  2056                                 %line 407+1 /home/se170/VirtualBox-4.3.28/out/linux.amd64/debug/obj/VMMR3LazyImp/VMMR3LazyLoad.asm
  2057                                 [global PDMCritSectLeave:function hidden]
  2058                                 %line 407+0 /home/se170/VirtualBox-4.3.28/out/linux.amd64/debug/obj/VMMR3LazyImp/VMMR3LazyLoad.asm
  2059                                 PDMCritSectLeave:
  2060                                 %line 408+1 /home/se170/VirtualBox-4.3.28/out/linux.amd64/debug/obj/VMMR3LazyImp/VMMR3LazyLoad.asm
  2061 0000051E FF25(F4FFFFFF)          jmp qword [g_pfnPDMCritSectLeave wrt rip]
  2062                                 [global PDMCritSectLeave_EndProc:function hidden]
  2063                                 %line 409+0 /home/se170/VirtualBox-4.3.28/out/linux.amd64/debug/obj/VMMR3LazyImp/VMMR3LazyLoad.asm
  2064                                 PDMCritSectLeave_EndProc:
  2065                                 [size PDMCritSectLeave PDMCritSectLeave_EndProc - PDMCritSectLeave]
  2066                                 [size PDMCritSectLeave_EndProc 0]
  2067 00000524 CCCCCCCC                db 0xCC, 0xCC, 0xCC, 0xCC
  2068                                 %line 410+1 /home/se170/VirtualBox-4.3.28/out/linux.amd64/debug/obj/VMMR3LazyImp/VMMR3LazyLoad.asm
  2069                                 [global PDMCritSectIsOwner:function hidden]
  2070                                 %line 410+0 /home/se170/VirtualBox-4.3.28/out/linux.amd64/debug/obj/VMMR3LazyImp/VMMR3LazyLoad.asm
  2071                                 PDMCritSectIsOwner:
  2072                                 %line 411+1 /home/se170/VirtualBox-4.3.28/out/linux.amd64/debug/obj/VMMR3LazyImp/VMMR3LazyLoad.asm
  2073 00000528 FF25(F4FFFFFF)          jmp qword [g_pfnPDMCritSectIsOwner wrt rip]
  2074                                 [global PDMCritSectIsOwner_EndProc:function hidden]
  2075                                 %line 412+0 /home/se170/VirtualBox-4.3.28/out/linux.amd64/debug/obj/VMMR3LazyImp/VMMR3LazyLoad.asm
  2076                                 PDMCritSectIsOwner_EndProc:
  2077                                 [size PDMCritSectIsOwner PDMCritSectIsOwner_EndProc - PDMCritSectIsOwner]
  2078                                 [size PDMCritSectIsOwner_EndProc 0]
  2079 0000052E CCCCCCCC                db 0xCC, 0xCC, 0xCC, 0xCC
  2080                                 %line 413+1 /home/se170/VirtualBox-4.3.28/out/linux.amd64/debug/obj/VMMR3LazyImp/VMMR3LazyLoad.asm
  2081                                 [global PDMCritSectIsOwnerEx:function hidden]
  2082                                 %line 413+0 /home/se170/VirtualBox-4.3.28/out/linux.amd64/debug/obj/VMMR3LazyImp/VMMR3LazyLoad.asm
  2083                                 PDMCritSectIsOwnerEx:
  2084                                 %line 414+1 /home/se170/VirtualBox-4.3.28/out/linux.amd64/debug/obj/VMMR3LazyImp/VMMR3LazyLoad.asm
  2085 00000532 FF25(F4FFFFFF)          jmp qword [g_pfnPDMCritSectIsOwnerEx wrt rip]
  2086                                 [global PDMCritSectIsOwnerEx_EndProc:function hidden]
  2087                                 %line 415+0 /home/se170/VirtualBox-4.3.28/out/linux.amd64/debug/obj/VMMR3LazyImp/VMMR3LazyLoad.asm
  2088                                 PDMCritSectIsOwnerEx_EndProc:
  2089                                 [size PDMCritSectIsOwnerEx PDMCritSectIsOwnerEx_EndProc - PDMCritSectIsOwnerEx]
  2090                                 [size PDMCritSectIsOwnerEx_EndProc 0]
  2091 00000538 CCCCCCCC                db 0xCC, 0xCC, 0xCC, 0xCC
  2092                                 %line 416+1 /home/se170/VirtualBox-4.3.28/out/linux.amd64/debug/obj/VMMR3LazyImp/VMMR3LazyLoad.asm
  2093                                 [global PDMCritSectIsOwned:function hidden]
  2094                                 %line 416+0 /home/se170/VirtualBox-4.3.28/out/linux.amd64/debug/obj/VMMR3LazyImp/VMMR3LazyLoad.asm
  2095                                 PDMCritSectIsOwned:
  2096                                 %line 417+1 /home/se170/VirtualBox-4.3.28/out/linux.amd64/debug/obj/VMMR3LazyImp/VMMR3LazyLoad.asm
  2097 0000053C FF25(F4FFFFFF)          jmp qword [g_pfnPDMCritSectIsOwned wrt rip]
  2098                                 [global PDMCritSectIsOwned_EndProc:function hidden]
  2099                                 %line 418+0 /home/se170/VirtualBox-4.3.28/out/linux.amd64/debug/obj/VMMR3LazyImp/VMMR3LazyLoad.asm
  2100                                 PDMCritSectIsOwned_EndProc:
  2101                                 [size PDMCritSectIsOwned PDMCritSectIsOwned_EndProc - PDMCritSectIsOwned]
  2102                                 [size PDMCritSectIsOwned_EndProc 0]
  2103 00000542 CCCCCCCC                db 0xCC, 0xCC, 0xCC, 0xCC
  2104                                 %line 419+1 /home/se170/VirtualBox-4.3.28/out/linux.amd64/debug/obj/VMMR3LazyImp/VMMR3LazyLoad.asm
  2105                                 [global PDMCritSectIsInitialized:function hidden]
  2106                                 %line 419+0 /home/se170/VirtualBox-4.3.28/out/linux.amd64/debug/obj/VMMR3LazyImp/VMMR3LazyLoad.asm
  2107                                 PDMCritSectIsInitialized:
  2108                                 %line 420+1 /home/se170/VirtualBox-4.3.28/out/linux.amd64/debug/obj/VMMR3LazyImp/VMMR3LazyLoad.asm
  2109 00000546 FF25(F4FFFFFF)          jmp qword [g_pfnPDMCritSectIsInitialized wrt rip]
  2110                                 [global PDMCritSectIsInitialized_EndProc:function hidden]
  2111                                 %line 421+0 /home/se170/VirtualBox-4.3.28/out/linux.amd64/debug/obj/VMMR3LazyImp/VMMR3LazyLoad.asm
  2112                                 PDMCritSectIsInitialized_EndProc:
  2113                                 [size PDMCritSectIsInitialized PDMCritSectIsInitialized_EndProc - PDMCritSectIsInitialized]
  2114                                 [size PDMCritSectIsInitialized_EndProc 0]
  2115 0000054C CCCCCCCC                db 0xCC, 0xCC, 0xCC, 0xCC
  2116                                 %line 422+1 /home/se170/VirtualBox-4.3.28/out/linux.amd64/debug/obj/VMMR3LazyImp/VMMR3LazyLoad.asm
  2117                                 [global PDMCritSectHasWaiters:function hidden]
  2118                                 %line 422+0 /home/se170/VirtualBox-4.3.28/out/linux.amd64/debug/obj/VMMR3LazyImp/VMMR3LazyLoad.asm
  2119                                 PDMCritSectHasWaiters:
  2120                                 %line 423+1 /home/se170/VirtualBox-4.3.28/out/linux.amd64/debug/obj/VMMR3LazyImp/VMMR3LazyLoad.asm
  2121 00000550 FF25(F4FFFFFF)          jmp qword [g_pfnPDMCritSectHasWaiters wrt rip]
  2122                                 [global PDMCritSectHasWaiters_EndProc:function hidden]
  2123                                 %line 424+0 /home/se170/VirtualBox-4.3.28/out/linux.amd64/debug/obj/VMMR3LazyImp/VMMR3LazyLoad.asm
  2124                                 PDMCritSectHasWaiters_EndProc:
  2125                                 [size PDMCritSectHasWaiters PDMCritSectHasWaiters_EndProc - PDMCritSectHasWaiters]
  2126                                 [size PDMCritSectHasWaiters_EndProc 0]
  2127 00000556 CCCCCCCC                db 0xCC, 0xCC, 0xCC, 0xCC
  2128                                 %line 425+1 /home/se170/VirtualBox-4.3.28/out/linux.amd64/debug/obj/VMMR3LazyImp/VMMR3LazyLoad.asm
  2129                                 [global PDMCritSectGetRecursion:function hidden]
  2130                                 %line 425+0 /home/se170/VirtualBox-4.3.28/out/linux.amd64/debug/obj/VMMR3LazyImp/VMMR3LazyLoad.asm
  2131                                 PDMCritSectGetRecursion:
  2132                                 %line 426+1 /home/se170/VirtualBox-4.3.28/out/linux.amd64/debug/obj/VMMR3LazyImp/VMMR3LazyLoad.asm
  2133 0000055A FF25(F4FFFFFF)          jmp qword [g_pfnPDMCritSectGetRecursion wrt rip]
  2134                                 [global PDMCritSectGetRecursion_EndProc:function hidden]
  2135                                 %line 427+0 /home/se170/VirtualBox-4.3.28/out/linux.amd64/debug/obj/VMMR3LazyImp/VMMR3LazyLoad.asm
  2136                                 PDMCritSectGetRecursion_EndProc:
  2137                                 [size PDMCritSectGetRecursion PDMCritSectGetRecursion_EndProc - PDMCritSectGetRecursion]
  2138                                 [size PDMCritSectGetRecursion_EndProc 0]
  2139 00000560 CCCCCCCC                db 0xCC, 0xCC, 0xCC, 0xCC
  2140                                 %line 428+1 /home/se170/VirtualBox-4.3.28/out/linux.amd64/debug/obj/VMMR3LazyImp/VMMR3LazyLoad.asm
  2141                                 [global PDMR3CritSectYield:function hidden]
  2142                                 %line 428+0 /home/se170/VirtualBox-4.3.28/out/linux.amd64/debug/obj/VMMR3LazyImp/VMMR3LazyLoad.asm
  2143                                 PDMR3CritSectYield:
  2144                                 %line 429+1 /home/se170/VirtualBox-4.3.28/out/linux.amd64/debug/obj/VMMR3LazyImp/VMMR3LazyLoad.asm
  2145 00000564 FF25(F4FFFFFF)          jmp qword [g_pfnPDMR3CritSectYield wrt rip]
  2146                                 [global PDMR3CritSectYield_EndProc:function hidden]
  2147                                 %line 430+0 /home/se170/VirtualBox-4.3.28/out/linux.amd64/debug/obj/VMMR3LazyImp/VMMR3LazyLoad.asm
  2148                                 PDMR3CritSectYield_EndProc:
  2149                                 [size PDMR3CritSectYield PDMR3CritSectYield_EndProc - PDMR3CritSectYield]
  2150                                 [size PDMR3CritSectYield_EndProc 0]
  2151 0000056A CCCCCCCC                db 0xCC, 0xCC, 0xCC, 0xCC
  2152                                 %line 431+1 /home/se170/VirtualBox-4.3.28/out/linux.amd64/debug/obj/VMMR3LazyImp/VMMR3LazyLoad.asm
  2153                                 [global PDMR3CritSectName:function hidden]
  2154                                 %line 431+0 /home/se170/VirtualBox-4.3.28/out/linux.amd64/debug/obj/VMMR3LazyImp/VMMR3LazyLoad.asm
  2155                                 PDMR3CritSectName:
  2156                                 %line 432+1 /home/se170/VirtualBox-4.3.28/out/linux.amd64/debug/obj/VMMR3LazyImp/VMMR3LazyLoad.asm
  2157 0000056E FF25(F4FFFFFF)          jmp qword [g_pfnPDMR3CritSectName wrt rip]
  2158                                 [global PDMR3CritSectName_EndProc:function hidden]
  2159                                 %line 433+0 /home/se170/VirtualBox-4.3.28/out/linux.amd64/debug/obj/VMMR3LazyImp/VMMR3LazyLoad.asm
  2160                                 PDMR3CritSectName_EndProc:
  2161                                 [size PDMR3CritSectName PDMR3CritSectName_EndProc - PDMR3CritSectName]
  2162                                 [size PDMR3CritSectName_EndProc 0]
  2163 00000574 CCCCCCCC                db 0xCC, 0xCC, 0xCC, 0xCC
  2164                                 %line 434+1 /home/se170/VirtualBox-4.3.28/out/linux.amd64/debug/obj/VMMR3LazyImp/VMMR3LazyLoad.asm
  2165                                 [global PDMR3CritSectScheduleExitEvent:function hidden]
  2166                                 %line 434+0 /home/se170/VirtualBox-4.3.28/out/linux.amd64/debug/obj/VMMR3LazyImp/VMMR3LazyLoad.asm
  2167                                 PDMR3CritSectScheduleExitEvent:
  2168                                 %line 435+1 /home/se170/VirtualBox-4.3.28/out/linux.amd64/debug/obj/VMMR3LazyImp/VMMR3LazyLoad.asm
  2169 00000578 FF25(F4FFFFFF)          jmp qword [g_pfnPDMR3CritSectScheduleExitEvent wrt rip]
  2170                                 [global PDMR3CritSectScheduleExitEvent_EndProc:function hidden]
  2171                                 %line 436+0 /home/se170/VirtualBox-4.3.28/out/linux.amd64/debug/obj/VMMR3LazyImp/VMMR3LazyLoad.asm
  2172                                 PDMR3CritSectScheduleExitEvent_EndProc:
  2173                                 [size PDMR3CritSectScheduleExitEvent PDMR3CritSectScheduleExitEvent_EndProc - PDMR3CritSectScheduleExitEvent]
  2174                                 [size PDMR3CritSectScheduleExitEvent_EndProc 0]
  2175 0000057E CCCCCCCC                db 0xCC, 0xCC, 0xCC, 0xCC
  2176                                 %line 437+1 /home/se170/VirtualBox-4.3.28/out/linux.amd64/debug/obj/VMMR3LazyImp/VMMR3LazyLoad.asm
  2177                                 [global PDMR3CritSectDelete:function hidden]
  2178                                 %line 437+0 /home/se170/VirtualBox-4.3.28/out/linux.amd64/debug/obj/VMMR3LazyImp/VMMR3LazyLoad.asm
  2179                                 PDMR3CritSectDelete:
  2180                                 %line 438+1 /home/se170/VirtualBox-4.3.28/out/linux.amd64/debug/obj/VMMR3LazyImp/VMMR3LazyLoad.asm
  2181 00000582 FF25(F4FFFFFF)          jmp qword [g_pfnPDMR3CritSectDelete wrt rip]
  2182                                 [global PDMR3CritSectDelete_EndProc:function hidden]
  2183                                 %line 439+0 /home/se170/VirtualBox-4.3.28/out/linux.amd64/debug/obj/VMMR3LazyImp/VMMR3LazyLoad.asm
  2184                                 PDMR3CritSectDelete_EndProc:
  2185                                 [size PDMR3CritSectDelete PDMR3CritSectDelete_EndProc - PDMR3CritSectDelete]
  2186                                 [size PDMR3CritSectDelete_EndProc 0]
  2187 00000588 CCCCCCCC                db 0xCC, 0xCC, 0xCC, 0xCC
  2188                                 %line 440+1 /home/se170/VirtualBox-4.3.28/out/linux.amd64/debug/obj/VMMR3LazyImp/VMMR3LazyLoad.asm
  2189                                 [global PDMR3QueueDestroy:function hidden]
  2190                                 %line 440+0 /home/se170/VirtualBox-4.3.28/out/linux.amd64/debug/obj/VMMR3LazyImp/VMMR3LazyLoad.asm
  2191                                 PDMR3QueueDestroy:
  2192                                 %line 441+1 /home/se170/VirtualBox-4.3.28/out/linux.amd64/debug/obj/VMMR3LazyImp/VMMR3LazyLoad.asm
  2193 0000058C FF25(F4FFFFFF)          jmp qword [g_pfnPDMR3QueueDestroy wrt rip]
  2194                                 [global PDMR3QueueDestroy_EndProc:function hidden]
  2195                                 %line 442+0 /home/se170/VirtualBox-4.3.28/out/linux.amd64/debug/obj/VMMR3LazyImp/VMMR3LazyLoad.asm
  2196                                 PDMR3QueueDestroy_EndProc:
  2197                                 [size PDMR3QueueDestroy PDMR3QueueDestroy_EndProc - PDMR3QueueDestroy]
  2198                                 [size PDMR3QueueDestroy_EndProc 0]
  2199 00000592 CCCCCCCC                db 0xCC, 0xCC, 0xCC, 0xCC
  2200                                 %line 443+1 /home/se170/VirtualBox-4.3.28/out/linux.amd64/debug/obj/VMMR3LazyImp/VMMR3LazyLoad.asm
  2201                                 [global PDMQueueAlloc:function hidden]
  2202                                 %line 443+0 /home/se170/VirtualBox-4.3.28/out/linux.amd64/debug/obj/VMMR3LazyImp/VMMR3LazyLoad.asm
  2203                                 PDMQueueAlloc:
  2204                                 %line 444+1 /home/se170/VirtualBox-4.3.28/out/linux.amd64/debug/obj/VMMR3LazyImp/VMMR3LazyLoad.asm
  2205 00000596 FF25(F4FFFFFF)          jmp qword [g_pfnPDMQueueAlloc wrt rip]
  2206                                 [global PDMQueueAlloc_EndProc:function hidden]
  2207                                 %line 445+0 /home/se170/VirtualBox-4.3.28/out/linux.amd64/debug/obj/VMMR3LazyImp/VMMR3LazyLoad.asm
  2208                                 PDMQueueAlloc_EndProc:
  2209                                 [size PDMQueueAlloc PDMQueueAlloc_EndProc - PDMQueueAlloc]
  2210                                 [size PDMQueueAlloc_EndProc 0]
  2211 0000059C CCCCCCCC                db 0xCC, 0xCC, 0xCC, 0xCC
  2212                                 %line 446+1 /home/se170/VirtualBox-4.3.28/out/linux.amd64/debug/obj/VMMR3LazyImp/VMMR3LazyLoad.asm
  2213                                 [global PDMQueueInsert:function hidden]
  2214                                 %line 446+0 /home/se170/VirtualBox-4.3.28/out/linux.amd64/debug/obj/VMMR3LazyImp/VMMR3LazyLoad.asm
  2215                                 PDMQueueInsert:
  2216                                 %line 447+1 /home/se170/VirtualBox-4.3.28/out/linux.amd64/debug/obj/VMMR3LazyImp/VMMR3LazyLoad.asm
  2217 000005A0 FF25(F4FFFFFF)          jmp qword [g_pfnPDMQueueInsert wrt rip]
  2218                                 [global PDMQueueInsert_EndProc:function hidden]
  2219                                 %line 448+0 /home/se170/VirtualBox-4.3.28/out/linux.amd64/debug/obj/VMMR3LazyImp/VMMR3LazyLoad.asm
  2220                                 PDMQueueInsert_EndProc:
  2221                                 [size PDMQueueInsert PDMQueueInsert_EndProc - PDMQueueInsert]
  2222                                 [size PDMQueueInsert_EndProc 0]
  2223 000005A6 CCCCCCCC                db 0xCC, 0xCC, 0xCC, 0xCC
  2224                                 %line 449+1 /home/se170/VirtualBox-4.3.28/out/linux.amd64/debug/obj/VMMR3LazyImp/VMMR3LazyLoad.asm
  2225                                 [global PDMQueueInsertEx:function hidden]
  2226                                 %line 449+0 /home/se170/VirtualBox-4.3.28/out/linux.amd64/debug/obj/VMMR3LazyImp/VMMR3LazyLoad.asm
  2227                                 PDMQueueInsertEx:
  2228                                 %line 450+1 /home/se170/VirtualBox-4.3.28/out/linux.amd64/debug/obj/VMMR3LazyImp/VMMR3LazyLoad.asm
  2229 000005AA FF25(F4FFFFFF)          jmp qword [g_pfnPDMQueueInsertEx wrt rip]
  2230                                 [global PDMQueueInsertEx_EndProc:function hidden]
  2231                                 %line 451+0 /home/se170/VirtualBox-4.3.28/out/linux.amd64/debug/obj/VMMR3LazyImp/VMMR3LazyLoad.asm
  2232                                 PDMQueueInsertEx_EndProc:
  2233                                 [size PDMQueueInsertEx PDMQueueInsertEx_EndProc - PDMQueueInsertEx]
  2234                                 [size PDMQueueInsertEx_EndProc 0]
  2235 000005B0 CCCCCCCC                db 0xCC, 0xCC, 0xCC, 0xCC
  2236                                 %line 452+1 /home/se170/VirtualBox-4.3.28/out/linux.amd64/debug/obj/VMMR3LazyImp/VMMR3LazyLoad.asm
  2237                                 [global PDMQueueR0Ptr:function hidden]
  2238                                 %line 452+0 /home/se170/VirtualBox-4.3.28/out/linux.amd64/debug/obj/VMMR3LazyImp/VMMR3LazyLoad.asm
  2239                                 PDMQueueR0Ptr:
  2240                                 %line 453+1 /home/se170/VirtualBox-4.3.28/out/linux.amd64/debug/obj/VMMR3LazyImp/VMMR3LazyLoad.asm
  2241 000005B4 FF25(F4FFFFFF)          jmp qword [g_pfnPDMQueueR0Ptr wrt rip]
  2242                                 [global PDMQueueR0Ptr_EndProc:function hidden]
  2243                                 %line 454+0 /home/se170/VirtualBox-4.3.28/out/linux.amd64/debug/obj/VMMR3LazyImp/VMMR3LazyLoad.asm
  2244                                 PDMQueueR0Ptr_EndProc:
  2245                                 [size PDMQueueR0Ptr PDMQueueR0Ptr_EndProc - PDMQueueR0Ptr]
  2246                                 [size PDMQueueR0Ptr_EndProc 0]
  2247 000005BA CCCCCCCC                db 0xCC, 0xCC, 0xCC, 0xCC
  2248                                 %line 455+1 /home/se170/VirtualBox-4.3.28/out/linux.amd64/debug/obj/VMMR3LazyImp/VMMR3LazyLoad.asm
  2249                                 [global PDMQueueRCPtr:function hidden]
  2250                                 %line 455+0 /home/se170/VirtualBox-4.3.28/out/linux.amd64/debug/obj/VMMR3LazyImp/VMMR3LazyLoad.asm
  2251                                 PDMQueueRCPtr:
  2252                                 %line 456+1 /home/se170/VirtualBox-4.3.28/out/linux.amd64/debug/obj/VMMR3LazyImp/VMMR3LazyLoad.asm
  2253 000005BE FF25(F4FFFFFF)          jmp qword [g_pfnPDMQueueRCPtr wrt rip]
  2254                                 [global PDMQueueRCPtr_EndProc:function hidden]
  2255                                 %line 457+0 /home/se170/VirtualBox-4.3.28/out/linux.amd64/debug/obj/VMMR3LazyImp/VMMR3LazyLoad.asm
  2256                                 PDMQueueRCPtr_EndProc:
  2257                                 [size PDMQueueRCPtr PDMQueueRCPtr_EndProc - PDMQueueRCPtr]
  2258                                 [size PDMQueueRCPtr_EndProc 0]
  2259 000005C4 CCCCCCCC                db 0xCC, 0xCC, 0xCC, 0xCC
  2260                                 %line 458+1 /home/se170/VirtualBox-4.3.28/out/linux.amd64/debug/obj/VMMR3LazyImp/VMMR3LazyLoad.asm
  2261                                 [global PDMR3ThreadDestroy:function hidden]
  2262                                 %line 458+0 /home/se170/VirtualBox-4.3.28/out/linux.amd64/debug/obj/VMMR3LazyImp/VMMR3LazyLoad.asm
  2263                                 PDMR3ThreadDestroy:
  2264                                 %line 459+1 /home/se170/VirtualBox-4.3.28/out/linux.amd64/debug/obj/VMMR3LazyImp/VMMR3LazyLoad.asm
  2265 000005C8 FF25(F4FFFFFF)          jmp qword [g_pfnPDMR3ThreadDestroy wrt rip]
  2266                                 [global PDMR3ThreadDestroy_EndProc:function hidden]
  2267                                 %line 460+0 /home/se170/VirtualBox-4.3.28/out/linux.amd64/debug/obj/VMMR3LazyImp/VMMR3LazyLoad.asm
  2268                                 PDMR3ThreadDestroy_EndProc:
  2269                                 [size PDMR3ThreadDestroy PDMR3ThreadDestroy_EndProc - PDMR3ThreadDestroy]
  2270                                 [size PDMR3ThreadDestroy_EndProc 0]
  2271 000005CE CCCCCCCC                db 0xCC, 0xCC, 0xCC, 0xCC
  2272                                 %line 461+1 /home/se170/VirtualBox-4.3.28/out/linux.amd64/debug/obj/VMMR3LazyImp/VMMR3LazyLoad.asm
  2273                                 [global PDMR3ThreadIAmRunning:function hidden]
  2274                                 %line 461+0 /home/se170/VirtualBox-4.3.28/out/linux.amd64/debug/obj/VMMR3LazyImp/VMMR3LazyLoad.asm
  2275                                 PDMR3ThreadIAmRunning:
  2276                                 %line 462+1 /home/se170/VirtualBox-4.3.28/out/linux.amd64/debug/obj/VMMR3LazyImp/VMMR3LazyLoad.asm
  2277 000005D2 FF25(F4FFFFFF)          jmp qword [g_pfnPDMR3ThreadIAmRunning wrt rip]
  2278                                 [global PDMR3ThreadIAmRunning_EndProc:function hidden]
  2279                                 %line 463+0 /home/se170/VirtualBox-4.3.28/out/linux.amd64/debug/obj/VMMR3LazyImp/VMMR3LazyLoad.asm
  2280                                 PDMR3ThreadIAmRunning_EndProc:
  2281                                 [size PDMR3ThreadIAmRunning PDMR3ThreadIAmRunning_EndProc - PDMR3ThreadIAmRunning]
  2282                                 [size PDMR3ThreadIAmRunning_EndProc 0]
  2283 000005D8 CCCCCCCC                db 0xCC, 0xCC, 0xCC, 0xCC
  2284                                 %line 464+1 /home/se170/VirtualBox-4.3.28/out/linux.amd64/debug/obj/VMMR3LazyImp/VMMR3LazyLoad.asm
  2285                                 [global PDMR3ThreadIAmSuspending:function hidden]
  2286                                 %line 464+0 /home/se170/VirtualBox-4.3.28/out/linux.amd64/debug/obj/VMMR3LazyImp/VMMR3LazyLoad.asm
  2287                                 PDMR3ThreadIAmSuspending:
  2288                                 %line 465+1 /home/se170/VirtualBox-4.3.28/out/linux.amd64/debug/obj/VMMR3LazyImp/VMMR3LazyLoad.asm
  2289 000005DC FF25(F4FFFFFF)          jmp qword [g_pfnPDMR3ThreadIAmSuspending wrt rip]
  2290                                 [global PDMR3ThreadIAmSuspending_EndProc:function hidden]
  2291                                 %line 466+0 /home/se170/VirtualBox-4.3.28/out/linux.amd64/debug/obj/VMMR3LazyImp/VMMR3LazyLoad.asm
  2292                                 PDMR3ThreadIAmSuspending_EndProc:
  2293                                 [size PDMR3ThreadIAmSuspending PDMR3ThreadIAmSuspending_EndProc - PDMR3ThreadIAmSuspending]
  2294                                 [size PDMR3ThreadIAmSuspending_EndProc 0]
  2295 000005E2 CCCCCCCC                db 0xCC, 0xCC, 0xCC, 0xCC
  2296                                 %line 467+1 /home/se170/VirtualBox-4.3.28/out/linux.amd64/debug/obj/VMMR3LazyImp/VMMR3LazyLoad.asm
  2297                                 [global PDMR3ThreadResume:function hidden]
  2298                                 %line 467+0 /home/se170/VirtualBox-4.3.28/out/linux.amd64/debug/obj/VMMR3LazyImp/VMMR3LazyLoad.asm
  2299                                 PDMR3ThreadResume:
  2300                                 %line 468+1 /home/se170/VirtualBox-4.3.28/out/linux.amd64/debug/obj/VMMR3LazyImp/VMMR3LazyLoad.asm
  2301 000005E6 FF25(F4FFFFFF)          jmp qword [g_pfnPDMR3ThreadResume wrt rip]
  2302                                 [global PDMR3ThreadResume_EndProc:function hidden]
  2303                                 %line 469+0 /home/se170/VirtualBox-4.3.28/out/linux.amd64/debug/obj/VMMR3LazyImp/VMMR3LazyLoad.asm
  2304                                 PDMR3ThreadResume_EndProc:
  2305                                 [size PDMR3ThreadResume PDMR3ThreadResume_EndProc - PDMR3ThreadResume]
  2306                                 [size PDMR3ThreadResume_EndProc 0]
  2307 000005EC CCCCCCCC                db 0xCC, 0xCC, 0xCC, 0xCC
  2308                                 %line 470+1 /home/se170/VirtualBox-4.3.28/out/linux.amd64/debug/obj/VMMR3LazyImp/VMMR3LazyLoad.asm
  2309                                 [global PDMR3ThreadSleep:function hidden]
  2310                                 %line 470+0 /home/se170/VirtualBox-4.3.28/out/linux.amd64/debug/obj/VMMR3LazyImp/VMMR3LazyLoad.asm
  2311                                 PDMR3ThreadSleep:
  2312                                 %line 471+1 /home/se170/VirtualBox-4.3.28/out/linux.amd64/debug/obj/VMMR3LazyImp/VMMR3LazyLoad.asm
  2313 000005F0 FF25(F4FFFFFF)          jmp qword [g_pfnPDMR3ThreadSleep wrt rip]
  2314                                 [global PDMR3ThreadSleep_EndProc:function hidden]
  2315                                 %line 472+0 /home/se170/VirtualBox-4.3.28/out/linux.amd64/debug/obj/VMMR3LazyImp/VMMR3LazyLoad.asm
  2316                                 PDMR3ThreadSleep_EndProc:
  2317                                 [size PDMR3ThreadSleep PDMR3ThreadSleep_EndProc - PDMR3ThreadSleep]
  2318                                 [size PDMR3ThreadSleep_EndProc 0]
  2319 000005F6 CCCCCCCC                db 0xCC, 0xCC, 0xCC, 0xCC
  2320                                 %line 473+1 /home/se170/VirtualBox-4.3.28/out/linux.amd64/debug/obj/VMMR3LazyImp/VMMR3LazyLoad.asm
  2321                                 [global PDMR3ThreadSuspend:function hidden]
  2322                                 %line 473+0 /home/se170/VirtualBox-4.3.28/out/linux.amd64/debug/obj/VMMR3LazyImp/VMMR3LazyLoad.asm
  2323                                 PDMR3ThreadSuspend:
  2324                                 %line 474+1 /home/se170/VirtualBox-4.3.28/out/linux.amd64/debug/obj/VMMR3LazyImp/VMMR3LazyLoad.asm
  2325 000005FA FF25(F4FFFFFF)          jmp qword [g_pfnPDMR3ThreadSuspend wrt rip]
  2326                                 [global PDMR3ThreadSuspend_EndProc:function hidden]
  2327                                 %line 475+0 /home/se170/VirtualBox-4.3.28/out/linux.amd64/debug/obj/VMMR3LazyImp/VMMR3LazyLoad.asm
  2328                                 PDMR3ThreadSuspend_EndProc:
  2329                                 [size PDMR3ThreadSuspend PDMR3ThreadSuspend_EndProc - PDMR3ThreadSuspend]
  2330                                 [size PDMR3ThreadSuspend_EndProc 0]
  2331 00000600 CCCCCCCC                db 0xCC, 0xCC, 0xCC, 0xCC
  2332                                 %line 476+1 /home/se170/VirtualBox-4.3.28/out/linux.amd64/debug/obj/VMMR3LazyImp/VMMR3LazyLoad.asm
  2333                                 [global PDMR3UsbCreateEmulatedDevice:function hidden]
  2334                                 %line 476+0 /home/se170/VirtualBox-4.3.28/out/linux.amd64/debug/obj/VMMR3LazyImp/VMMR3LazyLoad.asm
  2335                                 PDMR3UsbCreateEmulatedDevice:
  2336                                 %line 477+1 /home/se170/VirtualBox-4.3.28/out/linux.amd64/debug/obj/VMMR3LazyImp/VMMR3LazyLoad.asm
  2337 00000604 FF25(F4FFFFFF)          jmp qword [g_pfnPDMR3UsbCreateEmulatedDevice wrt rip]
  2338                                 [global PDMR3UsbCreateEmulatedDevice_EndProc:function hidden]
  2339                                 %line 478+0 /home/se170/VirtualBox-4.3.28/out/linux.amd64/debug/obj/VMMR3LazyImp/VMMR3LazyLoad.asm
  2340                                 PDMR3UsbCreateEmulatedDevice_EndProc:
  2341                                 [size PDMR3UsbCreateEmulatedDevice PDMR3UsbCreateEmulatedDevice_EndProc - PDMR3UsbCreateEmulatedDevice]
  2342                                 [size PDMR3UsbCreateEmulatedDevice_EndProc 0]
  2343 0000060A CCCCCCCC                db 0xCC, 0xCC, 0xCC, 0xCC
  2344                                 %line 479+1 /home/se170/VirtualBox-4.3.28/out/linux.amd64/debug/obj/VMMR3LazyImp/VMMR3LazyLoad.asm
  2345                                 [global PDMR3UsbCreateProxyDevice:function hidden]
  2346                                 %line 479+0 /home/se170/VirtualBox-4.3.28/out/linux.amd64/debug/obj/VMMR3LazyImp/VMMR3LazyLoad.asm
  2347                                 PDMR3UsbCreateProxyDevice:
  2348                                 %line 480+1 /home/se170/VirtualBox-4.3.28/out/linux.amd64/debug/obj/VMMR3LazyImp/VMMR3LazyLoad.asm
  2349 0000060E FF25(F4FFFFFF)          jmp qword [g_pfnPDMR3UsbCreateProxyDevice wrt rip]
  2350                                 [global PDMR3UsbCreateProxyDevice_EndProc:function hidden]
  2351                                 %line 481+0 /home/se170/VirtualBox-4.3.28/out/linux.amd64/debug/obj/VMMR3LazyImp/VMMR3LazyLoad.asm
  2352                                 PDMR3UsbCreateProxyDevice_EndProc:
  2353                                 [size PDMR3UsbCreateProxyDevice PDMR3UsbCreateProxyDevice_EndProc - PDMR3UsbCreateProxyDevice]
  2354                                 [size PDMR3UsbCreateProxyDevice_EndProc 0]
  2355 00000614 CCCCCCCC                db 0xCC, 0xCC, 0xCC, 0xCC
  2356                                 %line 482+1 /home/se170/VirtualBox-4.3.28/out/linux.amd64/debug/obj/VMMR3LazyImp/VMMR3LazyLoad.asm
  2357                                 [global PDMR3UsbDetachDevice:function hidden]
  2358                                 %line 482+0 /home/se170/VirtualBox-4.3.28/out/linux.amd64/debug/obj/VMMR3LazyImp/VMMR3LazyLoad.asm
  2359                                 PDMR3UsbDetachDevice:
  2360                                 %line 483+1 /home/se170/VirtualBox-4.3.28/out/linux.amd64/debug/obj/VMMR3LazyImp/VMMR3LazyLoad.asm
  2361 00000618 FF25(F4FFFFFF)          jmp qword [g_pfnPDMR3UsbDetachDevice wrt rip]
  2362                                 [global PDMR3UsbDetachDevice_EndProc:function hidden]
  2363                                 %line 484+0 /home/se170/VirtualBox-4.3.28/out/linux.amd64/debug/obj/VMMR3LazyImp/VMMR3LazyLoad.asm
  2364                                 PDMR3UsbDetachDevice_EndProc:
  2365                                 [size PDMR3UsbDetachDevice PDMR3UsbDetachDevice_EndProc - PDMR3UsbDetachDevice]
  2366                                 [size PDMR3UsbDetachDevice_EndProc 0]
  2367 0000061E CCCCCCCC                db 0xCC, 0xCC, 0xCC, 0xCC
  2368                                 %line 485+1 /home/se170/VirtualBox-4.3.28/out/linux.amd64/debug/obj/VMMR3LazyImp/VMMR3LazyLoad.asm
  2369                                 [global PDMR3UsbHasHub:function hidden]
  2370                                 %line 485+0 /home/se170/VirtualBox-4.3.28/out/linux.amd64/debug/obj/VMMR3LazyImp/VMMR3LazyLoad.asm
  2371                                 PDMR3UsbHasHub:
  2372                                 %line 486+1 /home/se170/VirtualBox-4.3.28/out/linux.amd64/debug/obj/VMMR3LazyImp/VMMR3LazyLoad.asm
  2373 00000622 FF25(F4FFFFFF)          jmp qword [g_pfnPDMR3UsbHasHub wrt rip]
  2374                                 [global PDMR3UsbHasHub_EndProc:function hidden]
  2375                                 %line 487+0 /home/se170/VirtualBox-4.3.28/out/linux.amd64/debug/obj/VMMR3LazyImp/VMMR3LazyLoad.asm
  2376                                 PDMR3UsbHasHub_EndProc:
  2377                                 [size PDMR3UsbHasHub PDMR3UsbHasHub_EndProc - PDMR3UsbHasHub]
  2378                                 [size PDMR3UsbHasHub_EndProc 0]
  2379 00000628 CCCCCCCC                db 0xCC, 0xCC, 0xCC, 0xCC
  2380                                 %line 488+1 /home/se170/VirtualBox-4.3.28/out/linux.amd64/debug/obj/VMMR3LazyImp/VMMR3LazyLoad.asm
  2381                                 [global PGMHandlerPhysicalPageTempOff:function hidden]
  2382                                 %line 488+0 /home/se170/VirtualBox-4.3.28/out/linux.amd64/debug/obj/VMMR3LazyImp/VMMR3LazyLoad.asm
  2383                                 PGMHandlerPhysicalPageTempOff:
  2384                                 %line 489+1 /home/se170/VirtualBox-4.3.28/out/linux.amd64/debug/obj/VMMR3LazyImp/VMMR3LazyLoad.asm
  2385 0000062C FF25(F4FFFFFF)          jmp qword [g_pfnPGMHandlerPhysicalPageTempOff wrt rip]
  2386                                 [global PGMHandlerPhysicalPageTempOff_EndProc:function hidden]
  2387                                 %line 490+0 /home/se170/VirtualBox-4.3.28/out/linux.amd64/debug/obj/VMMR3LazyImp/VMMR3LazyLoad.asm
  2388                                 PGMHandlerPhysicalPageTempOff_EndProc:
  2389                                 [size PGMHandlerPhysicalPageTempOff PGMHandlerPhysicalPageTempOff_EndProc - PGMHandlerPhysicalPageTempOff]
  2390                                 [size PGMHandlerPhysicalPageTempOff_EndProc 0]
  2391 00000632 CCCCCCCC                db 0xCC, 0xCC, 0xCC, 0xCC
  2392                                 %line 491+1 /home/se170/VirtualBox-4.3.28/out/linux.amd64/debug/obj/VMMR3LazyImp/VMMR3LazyLoad.asm
  2393                                 [global PGMPhysReadGCPtr:function hidden]
  2394                                 %line 491+0 /home/se170/VirtualBox-4.3.28/out/linux.amd64/debug/obj/VMMR3LazyImp/VMMR3LazyLoad.asm
  2395                                 PGMPhysReadGCPtr:
  2396                                 %line 492+1 /home/se170/VirtualBox-4.3.28/out/linux.amd64/debug/obj/VMMR3LazyImp/VMMR3LazyLoad.asm
  2397 00000636 FF25(F4FFFFFF)          jmp qword [g_pfnPGMPhysReadGCPtr wrt rip]
  2398                                 [global PGMPhysReadGCPtr_EndProc:function hidden]
  2399                                 %line 493+0 /home/se170/VirtualBox-4.3.28/out/linux.amd64/debug/obj/VMMR3LazyImp/VMMR3LazyLoad.asm
  2400                                 PGMPhysReadGCPtr_EndProc:
  2401                                 [size PGMPhysReadGCPtr PGMPhysReadGCPtr_EndProc - PGMPhysReadGCPtr]
  2402                                 [size PGMPhysReadGCPtr_EndProc 0]
  2403 0000063C CCCCCCCC                db 0xCC, 0xCC, 0xCC, 0xCC
  2404                                 %line 494+1 /home/se170/VirtualBox-4.3.28/out/linux.amd64/debug/obj/VMMR3LazyImp/VMMR3LazyLoad.asm
  2405                                 [global PGMPhysSimpleDirtyWriteGCPtr:function hidden]
  2406                                 %line 494+0 /home/se170/VirtualBox-4.3.28/out/linux.amd64/debug/obj/VMMR3LazyImp/VMMR3LazyLoad.asm
  2407                                 PGMPhysSimpleDirtyWriteGCPtr:
  2408                                 %line 495+1 /home/se170/VirtualBox-4.3.28/out/linux.amd64/debug/obj/VMMR3LazyImp/VMMR3LazyLoad.asm
  2409 00000640 FF25(F4FFFFFF)          jmp qword [g_pfnPGMPhysSimpleDirtyWriteGCPtr wrt rip]
  2410                                 [global PGMPhysSimpleDirtyWriteGCPtr_EndProc:function hidden]
  2411                                 %line 496+0 /home/se170/VirtualBox-4.3.28/out/linux.amd64/debug/obj/VMMR3LazyImp/VMMR3LazyLoad.asm
  2412                                 PGMPhysSimpleDirtyWriteGCPtr_EndProc:
  2413                                 [size PGMPhysSimpleDirtyWriteGCPtr PGMPhysSimpleDirtyWriteGCPtr_EndProc - PGMPhysSimpleDirtyWriteGCPtr]
  2414                                 [size PGMPhysSimpleDirtyWriteGCPtr_EndProc 0]
  2415 00000646 CCCCCCCC                db 0xCC, 0xCC, 0xCC, 0xCC
  2416                                 %line 497+1 /home/se170/VirtualBox-4.3.28/out/linux.amd64/debug/obj/VMMR3LazyImp/VMMR3LazyLoad.asm
  2417                                 [global PGMPhysSimpleReadGCPtr:function hidden]
  2418                                 %line 497+0 /home/se170/VirtualBox-4.3.28/out/linux.amd64/debug/obj/VMMR3LazyImp/VMMR3LazyLoad.asm
  2419                                 PGMPhysSimpleReadGCPtr:
  2420                                 %line 498+1 /home/se170/VirtualBox-4.3.28/out/linux.amd64/debug/obj/VMMR3LazyImp/VMMR3LazyLoad.asm
  2421 0000064A FF25(F4FFFFFF)          jmp qword [g_pfnPGMPhysSimpleReadGCPtr wrt rip]
  2422                                 [global PGMPhysSimpleReadGCPtr_EndProc:function hidden]
  2423                                 %line 499+0 /home/se170/VirtualBox-4.3.28/out/linux.amd64/debug/obj/VMMR3LazyImp/VMMR3LazyLoad.asm
  2424                                 PGMPhysSimpleReadGCPtr_EndProc:
  2425                                 [size PGMPhysSimpleReadGCPtr PGMPhysSimpleReadGCPtr_EndProc - PGMPhysSimpleReadGCPtr]
  2426                                 [size PGMPhysSimpleReadGCPtr_EndProc 0]
  2427 00000650 CCCCCCCC                db 0xCC, 0xCC, 0xCC, 0xCC
  2428                                 %line 500+1 /home/se170/VirtualBox-4.3.28/out/linux.amd64/debug/obj/VMMR3LazyImp/VMMR3LazyLoad.asm
  2429                                 [global PGMPhysSimpleWriteGCPhys:function hidden]
  2430                                 %line 500+0 /home/se170/VirtualBox-4.3.28/out/linux.amd64/debug/obj/VMMR3LazyImp/VMMR3LazyLoad.asm
  2431                                 PGMPhysSimpleWriteGCPhys:
  2432                                 %line 501+1 /home/se170/VirtualBox-4.3.28/out/linux.amd64/debug/obj/VMMR3LazyImp/VMMR3LazyLoad.asm
  2433 00000654 FF25(F4FFFFFF)          jmp qword [g_pfnPGMPhysSimpleWriteGCPhys wrt rip]
  2434                                 [global PGMPhysSimpleWriteGCPhys_EndProc:function hidden]
  2435                                 %line 502+0 /home/se170/VirtualBox-4.3.28/out/linux.amd64/debug/obj/VMMR3LazyImp/VMMR3LazyLoad.asm
  2436                                 PGMPhysSimpleWriteGCPhys_EndProc:
  2437                                 [size PGMPhysSimpleWriteGCPhys PGMPhysSimpleWriteGCPhys_EndProc - PGMPhysSimpleWriteGCPhys]
  2438                                 [size PGMPhysSimpleWriteGCPhys_EndProc 0]
  2439 0000065A CCCCCCCC                db 0xCC, 0xCC, 0xCC, 0xCC
  2440                                 %line 503+1 /home/se170/VirtualBox-4.3.28/out/linux.amd64/debug/obj/VMMR3LazyImp/VMMR3LazyLoad.asm
  2441                                 [global PGMPhysSimpleWriteGCPtr:function hidden]
  2442                                 %line 503+0 /home/se170/VirtualBox-4.3.28/out/linux.amd64/debug/obj/VMMR3LazyImp/VMMR3LazyLoad.asm
  2443                                 PGMPhysSimpleWriteGCPtr:
  2444                                 %line 504+1 /home/se170/VirtualBox-4.3.28/out/linux.amd64/debug/obj/VMMR3LazyImp/VMMR3LazyLoad.asm
  2445 0000065E FF25(F4FFFFFF)          jmp qword [g_pfnPGMPhysSimpleWriteGCPtr wrt rip]
  2446                                 [global PGMPhysSimpleWriteGCPtr_EndProc:function hidden]
  2447                                 %line 505+0 /home/se170/VirtualBox-4.3.28/out/linux.amd64/debug/obj/VMMR3LazyImp/VMMR3LazyLoad.asm
  2448                                 PGMPhysSimpleWriteGCPtr_EndProc:
  2449                                 [size PGMPhysSimpleWriteGCPtr PGMPhysSimpleWriteGCPtr_EndProc - PGMPhysSimpleWriteGCPtr]
  2450                                 [size PGMPhysSimpleWriteGCPtr_EndProc 0]
  2451 00000664 CCCCCCCC                db 0xCC, 0xCC, 0xCC, 0xCC
  2452                                 %line 506+1 /home/se170/VirtualBox-4.3.28/out/linux.amd64/debug/obj/VMMR3LazyImp/VMMR3LazyLoad.asm
  2453                                 [global PGMPhysWriteGCPtr:function hidden]
  2454                                 %line 506+0 /home/se170/VirtualBox-4.3.28/out/linux.amd64/debug/obj/VMMR3LazyImp/VMMR3LazyLoad.asm
  2455                                 PGMPhysWriteGCPtr:
  2456                                 %line 507+1 /home/se170/VirtualBox-4.3.28/out/linux.amd64/debug/obj/VMMR3LazyImp/VMMR3LazyLoad.asm
  2457 00000668 FF25(F4FFFFFF)          jmp qword [g_pfnPGMPhysWriteGCPtr wrt rip]
  2458                                 [global PGMPhysWriteGCPtr_EndProc:function hidden]
  2459                                 %line 508+0 /home/se170/VirtualBox-4.3.28/out/linux.amd64/debug/obj/VMMR3LazyImp/VMMR3LazyLoad.asm
  2460                                 PGMPhysWriteGCPtr_EndProc:
  2461                                 [size PGMPhysWriteGCPtr PGMPhysWriteGCPtr_EndProc - PGMPhysWriteGCPtr]
  2462                                 [size PGMPhysWriteGCPtr_EndProc 0]
  2463 0000066E CCCCCCCC                db 0xCC, 0xCC, 0xCC, 0xCC
  2464                                 %line 509+1 /home/se170/VirtualBox-4.3.28/out/linux.amd64/debug/obj/VMMR3LazyImp/VMMR3LazyLoad.asm
  2465                                 [global PGMShwMakePageWritable:function hidden]
  2466                                 %line 509+0 /home/se170/VirtualBox-4.3.28/out/linux.amd64/debug/obj/VMMR3LazyImp/VMMR3LazyLoad.asm
  2467                                 PGMShwMakePageWritable:
  2468                                 %line 510+1 /home/se170/VirtualBox-4.3.28/out/linux.amd64/debug/obj/VMMR3LazyImp/VMMR3LazyLoad.asm
  2469 00000672 FF25(F4FFFFFF)          jmp qword [g_pfnPGMShwMakePageWritable wrt rip]
  2470                                 [global PGMShwMakePageWritable_EndProc:function hidden]
  2471                                 %line 511+0 /home/se170/VirtualBox-4.3.28/out/linux.amd64/debug/obj/VMMR3LazyImp/VMMR3LazyLoad.asm
  2472                                 PGMShwMakePageWritable_EndProc:
  2473                                 [size PGMShwMakePageWritable PGMShwMakePageWritable_EndProc - PGMShwMakePageWritable]
  2474                                 [size PGMShwMakePageWritable_EndProc 0]
  2475 00000678 CCCCCCCC                db 0xCC, 0xCC, 0xCC, 0xCC
  2476                                 %line 512+1 /home/se170/VirtualBox-4.3.28/out/linux.amd64/debug/obj/VMMR3LazyImp/VMMR3LazyLoad.asm
  2477                                 [global PGMR3QueryGlobalMemoryStats:function hidden]
  2478                                 %line 512+0 /home/se170/VirtualBox-4.3.28/out/linux.amd64/debug/obj/VMMR3LazyImp/VMMR3LazyLoad.asm
  2479                                 PGMR3QueryGlobalMemoryStats:
  2480                                 %line 513+1 /home/se170/VirtualBox-4.3.28/out/linux.amd64/debug/obj/VMMR3LazyImp/VMMR3LazyLoad.asm
  2481 0000067C FF25(F4FFFFFF)          jmp qword [g_pfnPGMR3QueryGlobalMemoryStats wrt rip]
  2482                                 [global PGMR3QueryGlobalMemoryStats_EndProc:function hidden]
  2483                                 %line 514+0 /home/se170/VirtualBox-4.3.28/out/linux.amd64/debug/obj/VMMR3LazyImp/VMMR3LazyLoad.asm
  2484                                 PGMR3QueryGlobalMemoryStats_EndProc:
  2485                                 [size PGMR3QueryGlobalMemoryStats PGMR3QueryGlobalMemoryStats_EndProc - PGMR3QueryGlobalMemoryStats]
  2486                                 [size PGMR3QueryGlobalMemoryStats_EndProc 0]
  2487 00000682 CCCCCCCC                db 0xCC, 0xCC, 0xCC, 0xCC
  2488                                 %line 515+1 /home/se170/VirtualBox-4.3.28/out/linux.amd64/debug/obj/VMMR3LazyImp/VMMR3LazyLoad.asm
  2489                                 [global PGMR3QueryMemoryStats:function hidden]
  2490                                 %line 515+0 /home/se170/VirtualBox-4.3.28/out/linux.amd64/debug/obj/VMMR3LazyImp/VMMR3LazyLoad.asm
  2491                                 PGMR3QueryMemoryStats:
  2492                                 %line 516+1 /home/se170/VirtualBox-4.3.28/out/linux.amd64/debug/obj/VMMR3LazyImp/VMMR3LazyLoad.asm
  2493 00000686 FF25(F4FFFFFF)          jmp qword [g_pfnPGMR3QueryMemoryStats wrt rip]
  2494                                 [global PGMR3QueryMemoryStats_EndProc:function hidden]
  2495                                 %line 517+0 /home/se170/VirtualBox-4.3.28/out/linux.amd64/debug/obj/VMMR3LazyImp/VMMR3LazyLoad.asm
  2496                                 PGMR3QueryMemoryStats_EndProc:
  2497                                 [size PGMR3QueryMemoryStats PGMR3QueryMemoryStats_EndProc - PGMR3QueryMemoryStats]
  2498                                 [size PGMR3QueryMemoryStats_EndProc 0]
  2499 0000068C CCCCCCCC                db 0xCC, 0xCC, 0xCC, 0xCC
  2500                                 %line 518+1 /home/se170/VirtualBox-4.3.28/out/linux.amd64/debug/obj/VMMR3LazyImp/VMMR3LazyLoad.asm
  2501                                 [global SSMR3Close:function hidden]
  2502                                 %line 518+0 /home/se170/VirtualBox-4.3.28/out/linux.amd64/debug/obj/VMMR3LazyImp/VMMR3LazyLoad.asm
  2503                                 SSMR3Close:
  2504                                 %line 519+1 /home/se170/VirtualBox-4.3.28/out/linux.amd64/debug/obj/VMMR3LazyImp/VMMR3LazyLoad.asm
  2505 00000690 FF25(F4FFFFFF)          jmp qword [g_pfnSSMR3Close wrt rip]
  2506                                 [global SSMR3Close_EndProc:function hidden]
  2507                                 %line 520+0 /home/se170/VirtualBox-4.3.28/out/linux.amd64/debug/obj/VMMR3LazyImp/VMMR3LazyLoad.asm
  2508                                 SSMR3Close_EndProc:
  2509                                 [size SSMR3Close SSMR3Close_EndProc - SSMR3Close]
  2510                                 [size SSMR3Close_EndProc 0]
  2511 00000696 CCCCCCCC                db 0xCC, 0xCC, 0xCC, 0xCC
  2512                                 %line 521+1 /home/se170/VirtualBox-4.3.28/out/linux.amd64/debug/obj/VMMR3LazyImp/VMMR3LazyLoad.asm
  2513                                 [global SSMR3DeregisterExternal:function hidden]
  2514                                 %line 521+0 /home/se170/VirtualBox-4.3.28/out/linux.amd64/debug/obj/VMMR3LazyImp/VMMR3LazyLoad.asm
  2515                                 SSMR3DeregisterExternal:
  2516                                 %line 522+1 /home/se170/VirtualBox-4.3.28/out/linux.amd64/debug/obj/VMMR3LazyImp/VMMR3LazyLoad.asm
  2517 0000069A FF25(F4FFFFFF)          jmp qword [g_pfnSSMR3DeregisterExternal wrt rip]
  2518                                 [global SSMR3DeregisterExternal_EndProc:function hidden]
  2519                                 %line 523+0 /home/se170/VirtualBox-4.3.28/out/linux.amd64/debug/obj/VMMR3LazyImp/VMMR3LazyLoad.asm
  2520                                 SSMR3DeregisterExternal_EndProc:
  2521                                 [size SSMR3DeregisterExternal SSMR3DeregisterExternal_EndProc - SSMR3DeregisterExternal]
  2522                                 [size SSMR3DeregisterExternal_EndProc 0]
  2523 000006A0 CCCCCCCC                db 0xCC, 0xCC, 0xCC, 0xCC
  2524                                 %line 524+1 /home/se170/VirtualBox-4.3.28/out/linux.amd64/debug/obj/VMMR3LazyImp/VMMR3LazyLoad.asm
  2525                                 [global SSMR3DeregisterInternal:function hidden]
  2526                                 %line 524+0 /home/se170/VirtualBox-4.3.28/out/linux.amd64/debug/obj/VMMR3LazyImp/VMMR3LazyLoad.asm
  2527                                 SSMR3DeregisterInternal:
  2528                                 %line 525+1 /home/se170/VirtualBox-4.3.28/out/linux.amd64/debug/obj/VMMR3LazyImp/VMMR3LazyLoad.asm
  2529 000006A4 FF25(F4FFFFFF)          jmp qword [g_pfnSSMR3DeregisterInternal wrt rip]
  2530                                 [global SSMR3DeregisterInternal_EndProc:function hidden]
  2531                                 %line 526+0 /home/se170/VirtualBox-4.3.28/out/linux.amd64/debug/obj/VMMR3LazyImp/VMMR3LazyLoad.asm
  2532                                 SSMR3DeregisterInternal_EndProc:
  2533                                 [size SSMR3DeregisterInternal SSMR3DeregisterInternal_EndProc - SSMR3DeregisterInternal]
  2534                                 [size SSMR3DeregisterInternal_EndProc 0]
  2535 000006AA CCCCCCCC                db 0xCC, 0xCC, 0xCC, 0xCC
  2536                                 %line 527+1 /home/se170/VirtualBox-4.3.28/out/linux.amd64/debug/obj/VMMR3LazyImp/VMMR3LazyLoad.asm
  2537                                 [global SSMR3GetBool:function hidden]
  2538                                 %line 527+0 /home/se170/VirtualBox-4.3.28/out/linux.amd64/debug/obj/VMMR3LazyImp/VMMR3LazyLoad.asm
  2539                                 SSMR3GetBool:
  2540                                 %line 528+1 /home/se170/VirtualBox-4.3.28/out/linux.amd64/debug/obj/VMMR3LazyImp/VMMR3LazyLoad.asm
  2541 000006AE FF25(F4FFFFFF)          jmp qword [g_pfnSSMR3GetBool wrt rip]
  2542                                 [global SSMR3GetBool_EndProc:function hidden]
  2543                                 %line 529+0 /home/se170/VirtualBox-4.3.28/out/linux.amd64/debug/obj/VMMR3LazyImp/VMMR3LazyLoad.asm
  2544                                 SSMR3GetBool_EndProc:
  2545                                 [size SSMR3GetBool SSMR3GetBool_EndProc - SSMR3GetBool]
  2546                                 [size SSMR3GetBool_EndProc 0]
  2547 000006B4 CCCCCCCC                db 0xCC, 0xCC, 0xCC, 0xCC
  2548                                 %line 530+1 /home/se170/VirtualBox-4.3.28/out/linux.amd64/debug/obj/VMMR3LazyImp/VMMR3LazyLoad.asm
  2549                                 [global SSMR3GetGCPhys:function hidden]
  2550                                 %line 530+0 /home/se170/VirtualBox-4.3.28/out/linux.amd64/debug/obj/VMMR3LazyImp/VMMR3LazyLoad.asm
  2551                                 SSMR3GetGCPhys:
  2552                                 %line 531+1 /home/se170/VirtualBox-4.3.28/out/linux.amd64/debug/obj/VMMR3LazyImp/VMMR3LazyLoad.asm
  2553 000006B8 FF25(F4FFFFFF)          jmp qword [g_pfnSSMR3GetGCPhys wrt rip]
  2554                                 [global SSMR3GetGCPhys_EndProc:function hidden]
  2555                                 %line 532+0 /home/se170/VirtualBox-4.3.28/out/linux.amd64/debug/obj/VMMR3LazyImp/VMMR3LazyLoad.asm
  2556                                 SSMR3GetGCPhys_EndProc:
  2557                                 [size SSMR3GetGCPhys SSMR3GetGCPhys_EndProc - SSMR3GetGCPhys]
  2558                                 [size SSMR3GetGCPhys_EndProc 0]
  2559 000006BE CCCCCCCC                db 0xCC, 0xCC, 0xCC, 0xCC
  2560                                 %line 533+1 /home/se170/VirtualBox-4.3.28/out/linux.amd64/debug/obj/VMMR3LazyImp/VMMR3LazyLoad.asm
  2561                                 [global SSMR3GetGCPhys32:function hidden]
  2562                                 %line 533+0 /home/se170/VirtualBox-4.3.28/out/linux.amd64/debug/obj/VMMR3LazyImp/VMMR3LazyLoad.asm
  2563                                 SSMR3GetGCPhys32:
  2564                                 %line 534+1 /home/se170/VirtualBox-4.3.28/out/linux.amd64/debug/obj/VMMR3LazyImp/VMMR3LazyLoad.asm
  2565 000006C2 FF25(F4FFFFFF)          jmp qword [g_pfnSSMR3GetGCPhys32 wrt rip]
  2566                                 [global SSMR3GetGCPhys32_EndProc:function hidden]
  2567                                 %line 535+0 /home/se170/VirtualBox-4.3.28/out/linux.amd64/debug/obj/VMMR3LazyImp/VMMR3LazyLoad.asm
  2568                                 SSMR3GetGCPhys32_EndProc:
  2569                                 [size SSMR3GetGCPhys32 SSMR3GetGCPhys32_EndProc - SSMR3GetGCPhys32]
  2570                                 [size SSMR3GetGCPhys32_EndProc 0]
  2571 000006C8 CCCCCCCC                db 0xCC, 0xCC, 0xCC, 0xCC
  2572                                 %line 536+1 /home/se170/VirtualBox-4.3.28/out/linux.amd64/debug/obj/VMMR3LazyImp/VMMR3LazyLoad.asm
  2573                                 [global SSMR3GetGCPhys64:function hidden]
  2574                                 %line 536+0 /home/se170/VirtualBox-4.3.28/out/linux.amd64/debug/obj/VMMR3LazyImp/VMMR3LazyLoad.asm
  2575                                 SSMR3GetGCPhys64:
  2576                                 %line 537+1 /home/se170/VirtualBox-4.3.28/out/linux.amd64/debug/obj/VMMR3LazyImp/VMMR3LazyLoad.asm
  2577 000006CC FF25(F4FFFFFF)          jmp qword [g_pfnSSMR3GetGCPhys64 wrt rip]
  2578                                 [global SSMR3GetGCPhys64_EndProc:function hidden]
  2579                                 %line 538+0 /home/se170/VirtualBox-4.3.28/out/linux.amd64/debug/obj/VMMR3LazyImp/VMMR3LazyLoad.asm
  2580                                 SSMR3GetGCPhys64_EndProc:
  2581                                 [size SSMR3GetGCPhys64 SSMR3GetGCPhys64_EndProc - SSMR3GetGCPhys64]
  2582                                 [size SSMR3GetGCPhys64_EndProc 0]
  2583 000006D2 CCCCCCCC                db 0xCC, 0xCC, 0xCC, 0xCC
  2584                                 %line 539+1 /home/se170/VirtualBox-4.3.28/out/linux.amd64/debug/obj/VMMR3LazyImp/VMMR3LazyLoad.asm
  2585                                 [global SSMR3GetGCPtr:function hidden]
  2586                                 %line 539+0 /home/se170/VirtualBox-4.3.28/out/linux.amd64/debug/obj/VMMR3LazyImp/VMMR3LazyLoad.asm
  2587                                 SSMR3GetGCPtr:
  2588                                 %line 540+1 /home/se170/VirtualBox-4.3.28/out/linux.amd64/debug/obj/VMMR3LazyImp/VMMR3LazyLoad.asm
  2589 000006D6 FF25(F4FFFFFF)          jmp qword [g_pfnSSMR3GetGCPtr wrt rip]
  2590                                 [global SSMR3GetGCPtr_EndProc:function hidden]
  2591                                 %line 541+0 /home/se170/VirtualBox-4.3.28/out/linux.amd64/debug/obj/VMMR3LazyImp/VMMR3LazyLoad.asm
  2592                                 SSMR3GetGCPtr_EndProc:
  2593                                 [size SSMR3GetGCPtr SSMR3GetGCPtr_EndProc - SSMR3GetGCPtr]
  2594                                 [size SSMR3GetGCPtr_EndProc 0]
  2595 000006DC CCCCCCCC                db 0xCC, 0xCC, 0xCC, 0xCC
  2596                                 %line 542+1 /home/se170/VirtualBox-4.3.28/out/linux.amd64/debug/obj/VMMR3LazyImp/VMMR3LazyLoad.asm
  2597                                 [global SSMR3GetGCUInt:function hidden]
  2598                                 %line 542+0 /home/se170/VirtualBox-4.3.28/out/linux.amd64/debug/obj/VMMR3LazyImp/VMMR3LazyLoad.asm
  2599                                 SSMR3GetGCUInt:
  2600                                 %line 543+1 /home/se170/VirtualBox-4.3.28/out/linux.amd64/debug/obj/VMMR3LazyImp/VMMR3LazyLoad.asm
  2601 000006E0 FF25(F4FFFFFF)          jmp qword [g_pfnSSMR3GetGCUInt wrt rip]
  2602                                 [global SSMR3GetGCUInt_EndProc:function hidden]
  2603                                 %line 544+0 /home/se170/VirtualBox-4.3.28/out/linux.amd64/debug/obj/VMMR3LazyImp/VMMR3LazyLoad.asm
  2604                                 SSMR3GetGCUInt_EndProc:
  2605                                 [size SSMR3GetGCUInt SSMR3GetGCUInt_EndProc - SSMR3GetGCUInt]
  2606                                 [size SSMR3GetGCUInt_EndProc 0]
  2607 000006E6 CCCCCCCC                db 0xCC, 0xCC, 0xCC, 0xCC
  2608                                 %line 545+1 /home/se170/VirtualBox-4.3.28/out/linux.amd64/debug/obj/VMMR3LazyImp/VMMR3LazyLoad.asm
  2609                                 [global SSMR3GetGCUIntPtr:function hidden]
  2610                                 %line 545+0 /home/se170/VirtualBox-4.3.28/out/linux.amd64/debug/obj/VMMR3LazyImp/VMMR3LazyLoad.asm
  2611                                 SSMR3GetGCUIntPtr:
  2612                                 %line 546+1 /home/se170/VirtualBox-4.3.28/out/linux.amd64/debug/obj/VMMR3LazyImp/VMMR3LazyLoad.asm
  2613 000006EA FF25(F4FFFFFF)          jmp qword [g_pfnSSMR3GetGCUIntPtr wrt rip]
  2614                                 [global SSMR3GetGCUIntPtr_EndProc:function hidden]
  2615                                 %line 547+0 /home/se170/VirtualBox-4.3.28/out/linux.amd64/debug/obj/VMMR3LazyImp/VMMR3LazyLoad.asm
  2616                                 SSMR3GetGCUIntPtr_EndProc:
  2617                                 [size SSMR3GetGCUIntPtr SSMR3GetGCUIntPtr_EndProc - SSMR3GetGCUIntPtr]
  2618                                 [size SSMR3GetGCUIntPtr_EndProc 0]
  2619 000006F0 CCCCCCCC                db 0xCC, 0xCC, 0xCC, 0xCC
  2620                                 %line 548+1 /home/se170/VirtualBox-4.3.28/out/linux.amd64/debug/obj/VMMR3LazyImp/VMMR3LazyLoad.asm
  2621                                 [global SSMR3GetGCUIntReg:function hidden]
  2622                                 %line 548+0 /home/se170/VirtualBox-4.3.28/out/linux.amd64/debug/obj/VMMR3LazyImp/VMMR3LazyLoad.asm
  2623                                 SSMR3GetGCUIntReg:
  2624                                 %line 549+1 /home/se170/VirtualBox-4.3.28/out/linux.amd64/debug/obj/VMMR3LazyImp/VMMR3LazyLoad.asm
  2625 000006F4 FF25(F4FFFFFF)          jmp qword [g_pfnSSMR3GetGCUIntReg wrt rip]
  2626                                 [global SSMR3GetGCUIntReg_EndProc:function hidden]
  2627                                 %line 550+0 /home/se170/VirtualBox-4.3.28/out/linux.amd64/debug/obj/VMMR3LazyImp/VMMR3LazyLoad.asm
  2628                                 SSMR3GetGCUIntReg_EndProc:
  2629                                 [size SSMR3GetGCUIntReg SSMR3GetGCUIntReg_EndProc - SSMR3GetGCUIntReg]
  2630                                 [size SSMR3GetGCUIntReg_EndProc 0]
  2631 000006FA CCCCCCCC                db 0xCC, 0xCC, 0xCC, 0xCC
  2632                                 %line 551+1 /home/se170/VirtualBox-4.3.28/out/linux.amd64/debug/obj/VMMR3LazyImp/VMMR3LazyLoad.asm
  2633                                 [global SSMR3GetIOPort:function hidden]
  2634                                 %line 551+0 /home/se170/VirtualBox-4.3.28/out/linux.amd64/debug/obj/VMMR3LazyImp/VMMR3LazyLoad.asm
  2635                                 SSMR3GetIOPort:
  2636                                 %line 552+1 /home/se170/VirtualBox-4.3.28/out/linux.amd64/debug/obj/VMMR3LazyImp/VMMR3LazyLoad.asm
  2637 000006FE FF25(F4FFFFFF)          jmp qword [g_pfnSSMR3GetIOPort wrt rip]
  2638                                 [global SSMR3GetIOPort_EndProc:function hidden]
  2639                                 %line 553+0 /home/se170/VirtualBox-4.3.28/out/linux.amd64/debug/obj/VMMR3LazyImp/VMMR3LazyLoad.asm
  2640                                 SSMR3GetIOPort_EndProc:
  2641                                 [size SSMR3GetIOPort SSMR3GetIOPort_EndProc - SSMR3GetIOPort]
  2642                                 [size SSMR3GetIOPort_EndProc 0]
  2643 00000704 CCCCCCCC                db 0xCC, 0xCC, 0xCC, 0xCC
  2644                                 %line 554+1 /home/se170/VirtualBox-4.3.28/out/linux.amd64/debug/obj/VMMR3LazyImp/VMMR3LazyLoad.asm
  2645                                 [global SSMR3GetMem:function hidden]
  2646                                 %line 554+0 /home/se170/VirtualBox-4.3.28/out/linux.amd64/debug/obj/VMMR3LazyImp/VMMR3LazyLoad.asm
  2647                                 SSMR3GetMem:
  2648                                 %line 555+1 /home/se170/VirtualBox-4.3.28/out/linux.amd64/debug/obj/VMMR3LazyImp/VMMR3LazyLoad.asm
  2649 00000708 FF25(F4FFFFFF)          jmp qword [g_pfnSSMR3GetMem wrt rip]
  2650                                 [global SSMR3GetMem_EndProc:function hidden]
  2651                                 %line 556+0 /home/se170/VirtualBox-4.3.28/out/linux.amd64/debug/obj/VMMR3LazyImp/VMMR3LazyLoad.asm
  2652                                 SSMR3GetMem_EndProc:
  2653                                 [size SSMR3GetMem SSMR3GetMem_EndProc - SSMR3GetMem]
  2654                                 [size SSMR3GetMem_EndProc 0]
  2655 0000070E CCCCCCCC                db 0xCC, 0xCC, 0xCC, 0xCC
  2656                                 %line 557+1 /home/se170/VirtualBox-4.3.28/out/linux.amd64/debug/obj/VMMR3LazyImp/VMMR3LazyLoad.asm
  2657                                 [global SSMR3GetRCPtr:function hidden]
  2658                                 %line 557+0 /home/se170/VirtualBox-4.3.28/out/linux.amd64/debug/obj/VMMR3LazyImp/VMMR3LazyLoad.asm
  2659                                 SSMR3GetRCPtr:
  2660                                 %line 558+1 /home/se170/VirtualBox-4.3.28/out/linux.amd64/debug/obj/VMMR3LazyImp/VMMR3LazyLoad.asm
  2661 00000712 FF25(F4FFFFFF)          jmp qword [g_pfnSSMR3GetRCPtr wrt rip]
  2662                                 [global SSMR3GetRCPtr_EndProc:function hidden]
  2663                                 %line 559+0 /home/se170/VirtualBox-4.3.28/out/linux.amd64/debug/obj/VMMR3LazyImp/VMMR3LazyLoad.asm
  2664                                 SSMR3GetRCPtr_EndProc:
  2665                                 [size SSMR3GetRCPtr SSMR3GetRCPtr_EndProc - SSMR3GetRCPtr]
  2666                                 [size SSMR3GetRCPtr_EndProc 0]
  2667 00000718 CCCCCCCC                db 0xCC, 0xCC, 0xCC, 0xCC
  2668                                 %line 560+1 /home/se170/VirtualBox-4.3.28/out/linux.amd64/debug/obj/VMMR3LazyImp/VMMR3LazyLoad.asm
  2669                                 [global SSMR3GetS128:function hidden]
  2670                                 %line 560+0 /home/se170/VirtualBox-4.3.28/out/linux.amd64/debug/obj/VMMR3LazyImp/VMMR3LazyLoad.asm
  2671                                 SSMR3GetS128:
  2672                                 %line 561+1 /home/se170/VirtualBox-4.3.28/out/linux.amd64/debug/obj/VMMR3LazyImp/VMMR3LazyLoad.asm
  2673 0000071C FF25(F4FFFFFF)          jmp qword [g_pfnSSMR3GetS128 wrt rip]
  2674                                 [global SSMR3GetS128_EndProc:function hidden]
  2675                                 %line 562+0 /home/se170/VirtualBox-4.3.28/out/linux.amd64/debug/obj/VMMR3LazyImp/VMMR3LazyLoad.asm
  2676                                 SSMR3GetS128_EndProc:
  2677                                 [size SSMR3GetS128 SSMR3GetS128_EndProc - SSMR3GetS128]
  2678                                 [size SSMR3GetS128_EndProc 0]
  2679 00000722 CCCCCCCC                db 0xCC, 0xCC, 0xCC, 0xCC
  2680                                 %line 563+1 /home/se170/VirtualBox-4.3.28/out/linux.amd64/debug/obj/VMMR3LazyImp/VMMR3LazyLoad.asm
  2681                                 [global SSMR3GetS16:function hidden]
  2682                                 %line 563+0 /home/se170/VirtualBox-4.3.28/out/linux.amd64/debug/obj/VMMR3LazyImp/VMMR3LazyLoad.asm
  2683                                 SSMR3GetS16:
  2684                                 %line 564+1 /home/se170/VirtualBox-4.3.28/out/linux.amd64/debug/obj/VMMR3LazyImp/VMMR3LazyLoad.asm
  2685 00000726 FF25(F4FFFFFF)          jmp qword [g_pfnSSMR3GetS16 wrt rip]
  2686                                 [global SSMR3GetS16_EndProc:function hidden]
  2687                                 %line 565+0 /home/se170/VirtualBox-4.3.28/out/linux.amd64/debug/obj/VMMR3LazyImp/VMMR3LazyLoad.asm
  2688                                 SSMR3GetS16_EndProc:
  2689                                 [size SSMR3GetS16 SSMR3GetS16_EndProc - SSMR3GetS16]
  2690                                 [size SSMR3GetS16_EndProc 0]
  2691 0000072C CCCCCCCC                db 0xCC, 0xCC, 0xCC, 0xCC
  2692                                 %line 566+1 /home/se170/VirtualBox-4.3.28/out/linux.amd64/debug/obj/VMMR3LazyImp/VMMR3LazyLoad.asm
  2693                                 [global SSMR3GetS32:function hidden]
  2694                                 %line 566+0 /home/se170/VirtualBox-4.3.28/out/linux.amd64/debug/obj/VMMR3LazyImp/VMMR3LazyLoad.asm
  2695                                 SSMR3GetS32:
  2696                                 %line 567+1 /home/se170/VirtualBox-4.3.28/out/linux.amd64/debug/obj/VMMR3LazyImp/VMMR3LazyLoad.asm
  2697 00000730 FF25(F4FFFFFF)          jmp qword [g_pfnSSMR3GetS32 wrt rip]
  2698                                 [global SSMR3GetS32_EndProc:function hidden]
  2699                                 %line 568+0 /home/se170/VirtualBox-4.3.28/out/linux.amd64/debug/obj/VMMR3LazyImp/VMMR3LazyLoad.asm
  2700                                 SSMR3GetS32_EndProc:
  2701                                 [size SSMR3GetS32 SSMR3GetS32_EndProc - SSMR3GetS32]
  2702                                 [size SSMR3GetS32_EndProc 0]
  2703 00000736 CCCCCCCC                db 0xCC, 0xCC, 0xCC, 0xCC
  2704                                 %line 569+1 /home/se170/VirtualBox-4.3.28/out/linux.amd64/debug/obj/VMMR3LazyImp/VMMR3LazyLoad.asm
  2705                                 [global SSMR3GetS64:function hidden]
  2706                                 %line 569+0 /home/se170/VirtualBox-4.3.28/out/linux.amd64/debug/obj/VMMR3LazyImp/VMMR3LazyLoad.asm
  2707                                 SSMR3GetS64:
  2708                                 %line 570+1 /home/se170/VirtualBox-4.3.28/out/linux.amd64/debug/obj/VMMR3LazyImp/VMMR3LazyLoad.asm
  2709 0000073A FF25(F4FFFFFF)          jmp qword [g_pfnSSMR3GetS64 wrt rip]
  2710                                 [global SSMR3GetS64_EndProc:function hidden]
  2711                                 %line 571+0 /home/se170/VirtualBox-4.3.28/out/linux.amd64/debug/obj/VMMR3LazyImp/VMMR3LazyLoad.asm
  2712                                 SSMR3GetS64_EndProc:
  2713                                 [size SSMR3GetS64 SSMR3GetS64_EndProc - SSMR3GetS64]
  2714                                 [size SSMR3GetS64_EndProc 0]
  2715 00000740 CCCCCCCC                db 0xCC, 0xCC, 0xCC, 0xCC
  2716                                 %line 572+1 /home/se170/VirtualBox-4.3.28/out/linux.amd64/debug/obj/VMMR3LazyImp/VMMR3LazyLoad.asm
  2717                                 [global SSMR3GetS8:function hidden]
  2718                                 %line 572+0 /home/se170/VirtualBox-4.3.28/out/linux.amd64/debug/obj/VMMR3LazyImp/VMMR3LazyLoad.asm
  2719                                 SSMR3GetS8:
  2720                                 %line 573+1 /home/se170/VirtualBox-4.3.28/out/linux.amd64/debug/obj/VMMR3LazyImp/VMMR3LazyLoad.asm
  2721 00000744 FF25(F4FFFFFF)          jmp qword [g_pfnSSMR3GetS8 wrt rip]
  2722                                 [global SSMR3GetS8_EndProc:function hidden]
  2723                                 %line 574+0 /home/se170/VirtualBox-4.3.28/out/linux.amd64/debug/obj/VMMR3LazyImp/VMMR3LazyLoad.asm
  2724                                 SSMR3GetS8_EndProc:
  2725                                 [size SSMR3GetS8 SSMR3GetS8_EndProc - SSMR3GetS8]
  2726                                 [size SSMR3GetS8_EndProc 0]
  2727 0000074A CCCCCCCC                db 0xCC, 0xCC, 0xCC, 0xCC
  2728                                 %line 575+1 /home/se170/VirtualBox-4.3.28/out/linux.amd64/debug/obj/VMMR3LazyImp/VMMR3LazyLoad.asm
  2729                                 [global SSMR3GetSInt:function hidden]
  2730                                 %line 575+0 /home/se170/VirtualBox-4.3.28/out/linux.amd64/debug/obj/VMMR3LazyImp/VMMR3LazyLoad.asm
  2731                                 SSMR3GetSInt:
  2732                                 %line 576+1 /home/se170/VirtualBox-4.3.28/out/linux.amd64/debug/obj/VMMR3LazyImp/VMMR3LazyLoad.asm
  2733 0000074E FF25(F4FFFFFF)          jmp qword [g_pfnSSMR3GetSInt wrt rip]
  2734                                 [global SSMR3GetSInt_EndProc:function hidden]
  2735                                 %line 577+0 /home/se170/VirtualBox-4.3.28/out/linux.amd64/debug/obj/VMMR3LazyImp/VMMR3LazyLoad.asm
  2736                                 SSMR3GetSInt_EndProc:
  2737                                 [size SSMR3GetSInt SSMR3GetSInt_EndProc - SSMR3GetSInt]
  2738                                 [size SSMR3GetSInt_EndProc 0]
  2739 00000754 CCCCCCCC                db 0xCC, 0xCC, 0xCC, 0xCC
  2740                                 %line 578+1 /home/se170/VirtualBox-4.3.28/out/linux.amd64/debug/obj/VMMR3LazyImp/VMMR3LazyLoad.asm
  2741                                 [global SSMR3GetSel:function hidden]
  2742                                 %line 578+0 /home/se170/VirtualBox-4.3.28/out/linux.amd64/debug/obj/VMMR3LazyImp/VMMR3LazyLoad.asm
  2743                                 SSMR3GetSel:
  2744                                 %line 579+1 /home/se170/VirtualBox-4.3.28/out/linux.amd64/debug/obj/VMMR3LazyImp/VMMR3LazyLoad.asm
  2745 00000758 FF25(F4FFFFFF)          jmp qword [g_pfnSSMR3GetSel wrt rip]
  2746                                 [global SSMR3GetSel_EndProc:function hidden]
  2747                                 %line 580+0 /home/se170/VirtualBox-4.3.28/out/linux.amd64/debug/obj/VMMR3LazyImp/VMMR3LazyLoad.asm
  2748                                 SSMR3GetSel_EndProc:
  2749                                 [size SSMR3GetSel SSMR3GetSel_EndProc - SSMR3GetSel]
  2750                                 [size SSMR3GetSel_EndProc 0]
  2751 0000075E CCCCCCCC                db 0xCC, 0xCC, 0xCC, 0xCC
  2752                                 %line 581+1 /home/se170/VirtualBox-4.3.28/out/linux.amd64/debug/obj/VMMR3LazyImp/VMMR3LazyLoad.asm
  2753                                 [global SSMR3GetStrZ:function hidden]
  2754                                 %line 581+0 /home/se170/VirtualBox-4.3.28/out/linux.amd64/debug/obj/VMMR3LazyImp/VMMR3LazyLoad.asm
  2755                                 SSMR3GetStrZ:
  2756                                 %line 582+1 /home/se170/VirtualBox-4.3.28/out/linux.amd64/debug/obj/VMMR3LazyImp/VMMR3LazyLoad.asm
  2757 00000762 FF25(F4FFFFFF)          jmp qword [g_pfnSSMR3GetStrZ wrt rip]
  2758                                 [global SSMR3GetStrZ_EndProc:function hidden]
  2759                                 %line 583+0 /home/se170/VirtualBox-4.3.28/out/linux.amd64/debug/obj/VMMR3LazyImp/VMMR3LazyLoad.asm
  2760                                 SSMR3GetStrZ_EndProc:
  2761                                 [size SSMR3GetStrZ SSMR3GetStrZ_EndProc - SSMR3GetStrZ]
  2762                                 [size SSMR3GetStrZ_EndProc 0]
  2763 00000768 CCCCCCCC                db 0xCC, 0xCC, 0xCC, 0xCC
  2764                                 %line 584+1 /home/se170/VirtualBox-4.3.28/out/linux.amd64/debug/obj/VMMR3LazyImp/VMMR3LazyLoad.asm
  2765                                 [global SSMR3GetStrZEx:function hidden]
  2766                                 %line 584+0 /home/se170/VirtualBox-4.3.28/out/linux.amd64/debug/obj/VMMR3LazyImp/VMMR3LazyLoad.asm
  2767                                 SSMR3GetStrZEx:
  2768                                 %line 585+1 /home/se170/VirtualBox-4.3.28/out/linux.amd64/debug/obj/VMMR3LazyImp/VMMR3LazyLoad.asm
  2769 0000076C FF25(F4FFFFFF)          jmp qword [g_pfnSSMR3GetStrZEx wrt rip]
  2770                                 [global SSMR3GetStrZEx_EndProc:function hidden]
  2771                                 %line 586+0 /home/se170/VirtualBox-4.3.28/out/linux.amd64/debug/obj/VMMR3LazyImp/VMMR3LazyLoad.asm
  2772                                 SSMR3GetStrZEx_EndProc:
  2773                                 [size SSMR3GetStrZEx SSMR3GetStrZEx_EndProc - SSMR3GetStrZEx]
  2774                                 [size SSMR3GetStrZEx_EndProc 0]
  2775 00000772 CCCCCCCC                db 0xCC, 0xCC, 0xCC, 0xCC
  2776                                 %line 587+1 /home/se170/VirtualBox-4.3.28/out/linux.amd64/debug/obj/VMMR3LazyImp/VMMR3LazyLoad.asm
  2777                                 [global SSMR3GetStruct:function hidden]
  2778                                 %line 587+0 /home/se170/VirtualBox-4.3.28/out/linux.amd64/debug/obj/VMMR3LazyImp/VMMR3LazyLoad.asm
  2779                                 SSMR3GetStruct:
  2780                                 %line 588+1 /home/se170/VirtualBox-4.3.28/out/linux.amd64/debug/obj/VMMR3LazyImp/VMMR3LazyLoad.asm
  2781 00000776 FF25(F4FFFFFF)          jmp qword [g_pfnSSMR3GetStruct wrt rip]
  2782                                 [global SSMR3GetStruct_EndProc:function hidden]
  2783                                 %line 589+0 /home/se170/VirtualBox-4.3.28/out/linux.amd64/debug/obj/VMMR3LazyImp/VMMR3LazyLoad.asm
  2784                                 SSMR3GetStruct_EndProc:
  2785                                 [size SSMR3GetStruct SSMR3GetStruct_EndProc - SSMR3GetStruct]
  2786                                 [size SSMR3GetStruct_EndProc 0]
  2787 0000077C CCCCCCCC                db 0xCC, 0xCC, 0xCC, 0xCC
  2788                                 %line 590+1 /home/se170/VirtualBox-4.3.28/out/linux.amd64/debug/obj/VMMR3LazyImp/VMMR3LazyLoad.asm
  2789                                 [global SSMR3GetStructEx:function hidden]
  2790                                 %line 590+0 /home/se170/VirtualBox-4.3.28/out/linux.amd64/debug/obj/VMMR3LazyImp/VMMR3LazyLoad.asm
  2791                                 SSMR3GetStructEx:
  2792                                 %line 591+1 /home/se170/VirtualBox-4.3.28/out/linux.amd64/debug/obj/VMMR3LazyImp/VMMR3LazyLoad.asm
  2793 00000780 FF25(F4FFFFFF)          jmp qword [g_pfnSSMR3GetStructEx wrt rip]
  2794                                 [global SSMR3GetStructEx_EndProc:function hidden]
  2795                                 %line 592+0 /home/se170/VirtualBox-4.3.28/out/linux.amd64/debug/obj/VMMR3LazyImp/VMMR3LazyLoad.asm
  2796                                 SSMR3GetStructEx_EndProc:
  2797                                 [size SSMR3GetStructEx SSMR3GetStructEx_EndProc - SSMR3GetStructEx]
  2798                                 [size SSMR3GetStructEx_EndProc 0]
  2799 00000786 CCCCCCCC                db 0xCC, 0xCC, 0xCC, 0xCC
  2800                                 %line 593+1 /home/se170/VirtualBox-4.3.28/out/linux.amd64/debug/obj/VMMR3LazyImp/VMMR3LazyLoad.asm
  2801                                 [global SSMR3GetU128:function hidden]
  2802                                 %line 593+0 /home/se170/VirtualBox-4.3.28/out/linux.amd64/debug/obj/VMMR3LazyImp/VMMR3LazyLoad.asm
  2803                                 SSMR3GetU128:
  2804                                 %line 594+1 /home/se170/VirtualBox-4.3.28/out/linux.amd64/debug/obj/VMMR3LazyImp/VMMR3LazyLoad.asm
  2805 0000078A FF25(F4FFFFFF)          jmp qword [g_pfnSSMR3GetU128 wrt rip]
  2806                                 [global SSMR3GetU128_EndProc:function hidden]
  2807                                 %line 595+0 /home/se170/VirtualBox-4.3.28/out/linux.amd64/debug/obj/VMMR3LazyImp/VMMR3LazyLoad.asm
  2808                                 SSMR3GetU128_EndProc:
  2809                                 [size SSMR3GetU128 SSMR3GetU128_EndProc - SSMR3GetU128]
  2810                                 [size SSMR3GetU128_EndProc 0]
  2811 00000790 CCCCCCCC                db 0xCC, 0xCC, 0xCC, 0xCC
  2812                                 %line 596+1 /home/se170/VirtualBox-4.3.28/out/linux.amd64/debug/obj/VMMR3LazyImp/VMMR3LazyLoad.asm
  2813                                 [global SSMR3GetU16:function hidden]
  2814                                 %line 596+0 /home/se170/VirtualBox-4.3.28/out/linux.amd64/debug/obj/VMMR3LazyImp/VMMR3LazyLoad.asm
  2815                                 SSMR3GetU16:
  2816                                 %line 597+1 /home/se170/VirtualBox-4.3.28/out/linux.amd64/debug/obj/VMMR3LazyImp/VMMR3LazyLoad.asm
  2817 00000794 FF25(F4FFFFFF)          jmp qword [g_pfnSSMR3GetU16 wrt rip]
  2818                                 [global SSMR3GetU16_EndProc:function hidden]
  2819                                 %line 598+0 /home/se170/VirtualBox-4.3.28/out/linux.amd64/debug/obj/VMMR3LazyImp/VMMR3LazyLoad.asm
  2820                                 SSMR3GetU16_EndProc:
  2821                                 [size SSMR3GetU16 SSMR3GetU16_EndProc - SSMR3GetU16]
  2822                                 [size SSMR3GetU16_EndProc 0]
  2823 0000079A CCCCCCCC                db 0xCC, 0xCC, 0xCC, 0xCC
  2824                                 %line 599+1 /home/se170/VirtualBox-4.3.28/out/linux.amd64/debug/obj/VMMR3LazyImp/VMMR3LazyLoad.asm
  2825                                 [global SSMR3GetU32:function hidden]
  2826                                 %line 599+0 /home/se170/VirtualBox-4.3.28/out/linux.amd64/debug/obj/VMMR3LazyImp/VMMR3LazyLoad.asm
  2827                                 SSMR3GetU32:
  2828                                 %line 600+1 /home/se170/VirtualBox-4.3.28/out/linux.amd64/debug/obj/VMMR3LazyImp/VMMR3LazyLoad.asm
  2829 0000079E FF25(F4FFFFFF)          jmp qword [g_pfnSSMR3GetU32 wrt rip]
  2830                                 [global SSMR3GetU32_EndProc:function hidden]
  2831                                 %line 601+0 /home/se170/VirtualBox-4.3.28/out/linux.amd64/debug/obj/VMMR3LazyImp/VMMR3LazyLoad.asm
  2832                                 SSMR3GetU32_EndProc:
  2833                                 [size SSMR3GetU32 SSMR3GetU32_EndProc - SSMR3GetU32]
  2834                                 [size SSMR3GetU32_EndProc 0]
  2835 000007A4 CCCCCCCC                db 0xCC, 0xCC, 0xCC, 0xCC
  2836                                 %line 602+1 /home/se170/VirtualBox-4.3.28/out/linux.amd64/debug/obj/VMMR3LazyImp/VMMR3LazyLoad.asm
  2837                                 [global SSMR3GetU64:function hidden]
  2838                                 %line 602+0 /home/se170/VirtualBox-4.3.28/out/linux.amd64/debug/obj/VMMR3LazyImp/VMMR3LazyLoad.asm
  2839                                 SSMR3GetU64:
  2840                                 %line 603+1 /home/se170/VirtualBox-4.3.28/out/linux.amd64/debug/obj/VMMR3LazyImp/VMMR3LazyLoad.asm
  2841 000007A8 FF25(F4FFFFFF)          jmp qword [g_pfnSSMR3GetU64 wrt rip]
  2842                                 [global SSMR3GetU64_EndProc:function hidden]
  2843                                 %line 604+0 /home/se170/VirtualBox-4.3.28/out/linux.amd64/debug/obj/VMMR3LazyImp/VMMR3LazyLoad.asm
  2844                                 SSMR3GetU64_EndProc:
  2845                                 [size SSMR3GetU64 SSMR3GetU64_EndProc - SSMR3GetU64]
  2846                                 [size SSMR3GetU64_EndProc 0]
  2847 000007AE CCCCCCCC                db 0xCC, 0xCC, 0xCC, 0xCC
  2848                                 %line 605+1 /home/se170/VirtualBox-4.3.28/out/linux.amd64/debug/obj/VMMR3LazyImp/VMMR3LazyLoad.asm
  2849                                 [global SSMR3GetU8:function hidden]
  2850                                 %line 605+0 /home/se170/VirtualBox-4.3.28/out/linux.amd64/debug/obj/VMMR3LazyImp/VMMR3LazyLoad.asm
  2851                                 SSMR3GetU8:
  2852                                 %line 606+1 /home/se170/VirtualBox-4.3.28/out/linux.amd64/debug/obj/VMMR3LazyImp/VMMR3LazyLoad.asm
  2853 000007B2 FF25(F4FFFFFF)          jmp qword [g_pfnSSMR3GetU8 wrt rip]
  2854                                 [global SSMR3GetU8_EndProc:function hidden]
  2855                                 %line 607+0 /home/se170/VirtualBox-4.3.28/out/linux.amd64/debug/obj/VMMR3LazyImp/VMMR3LazyLoad.asm
  2856                                 SSMR3GetU8_EndProc:
  2857                                 [size SSMR3GetU8 SSMR3GetU8_EndProc - SSMR3GetU8]
  2858                                 [size SSMR3GetU8_EndProc 0]
  2859 000007B8 CCCCCCCC                db 0xCC, 0xCC, 0xCC, 0xCC
  2860                                 %line 608+1 /home/se170/VirtualBox-4.3.28/out/linux.amd64/debug/obj/VMMR3LazyImp/VMMR3LazyLoad.asm
  2861                                 [global SSMR3GetUInt:function hidden]
  2862                                 %line 608+0 /home/se170/VirtualBox-4.3.28/out/linux.amd64/debug/obj/VMMR3LazyImp/VMMR3LazyLoad.asm
  2863                                 SSMR3GetUInt:
  2864                                 %line 609+1 /home/se170/VirtualBox-4.3.28/out/linux.amd64/debug/obj/VMMR3LazyImp/VMMR3LazyLoad.asm
  2865 000007BC FF25(F4FFFFFF)          jmp qword [g_pfnSSMR3GetUInt wrt rip]
  2866                                 [global SSMR3GetUInt_EndProc:function hidden]
  2867                                 %line 610+0 /home/se170/VirtualBox-4.3.28/out/linux.amd64/debug/obj/VMMR3LazyImp/VMMR3LazyLoad.asm
  2868                                 SSMR3GetUInt_EndProc:
  2869                                 [size SSMR3GetUInt SSMR3GetUInt_EndProc - SSMR3GetUInt]
  2870                                 [size SSMR3GetUInt_EndProc 0]
  2871 000007C2 CCCCCCCC                db 0xCC, 0xCC, 0xCC, 0xCC
  2872                                 %line 611+1 /home/se170/VirtualBox-4.3.28/out/linux.amd64/debug/obj/VMMR3LazyImp/VMMR3LazyLoad.asm
  2873                                 [global SSMR3HandleGetAfter:function hidden]
  2874                                 %line 611+0 /home/se170/VirtualBox-4.3.28/out/linux.amd64/debug/obj/VMMR3LazyImp/VMMR3LazyLoad.asm
  2875                                 SSMR3HandleGetAfter:
  2876                                 %line 612+1 /home/se170/VirtualBox-4.3.28/out/linux.amd64/debug/obj/VMMR3LazyImp/VMMR3LazyLoad.asm
  2877 000007C6 FF25(F4FFFFFF)          jmp qword [g_pfnSSMR3HandleGetAfter wrt rip]
  2878                                 [global SSMR3HandleGetAfter_EndProc:function hidden]
  2879                                 %line 613+0 /home/se170/VirtualBox-4.3.28/out/linux.amd64/debug/obj/VMMR3LazyImp/VMMR3LazyLoad.asm
  2880                                 SSMR3HandleGetAfter_EndProc:
  2881                                 [size SSMR3HandleGetAfter SSMR3HandleGetAfter_EndProc - SSMR3HandleGetAfter]
  2882                                 [size SSMR3HandleGetAfter_EndProc 0]
  2883 000007CC CCCCCCCC                db 0xCC, 0xCC, 0xCC, 0xCC
  2884                                 %line 614+1 /home/se170/VirtualBox-4.3.28/out/linux.amd64/debug/obj/VMMR3LazyImp/VMMR3LazyLoad.asm
  2885                                 [global SSMR3HandleGetStatus:function hidden]
  2886                                 %line 614+0 /home/se170/VirtualBox-4.3.28/out/linux.amd64/debug/obj/VMMR3LazyImp/VMMR3LazyLoad.asm
  2887                                 SSMR3HandleGetStatus:
  2888                                 %line 615+1 /home/se170/VirtualBox-4.3.28/out/linux.amd64/debug/obj/VMMR3LazyImp/VMMR3LazyLoad.asm
  2889 000007D0 FF25(F4FFFFFF)          jmp qword [g_pfnSSMR3HandleGetStatus wrt rip]
  2890                                 [global SSMR3HandleGetStatus_EndProc:function hidden]
  2891                                 %line 616+0 /home/se170/VirtualBox-4.3.28/out/linux.amd64/debug/obj/VMMR3LazyImp/VMMR3LazyLoad.asm
  2892                                 SSMR3HandleGetStatus_EndProc:
  2893                                 [size SSMR3HandleGetStatus SSMR3HandleGetStatus_EndProc - SSMR3HandleGetStatus]
  2894                                 [size SSMR3HandleGetStatus_EndProc 0]
  2895 000007D6 CCCCCCCC                db 0xCC, 0xCC, 0xCC, 0xCC
  2896                                 %line 617+1 /home/se170/VirtualBox-4.3.28/out/linux.amd64/debug/obj/VMMR3LazyImp/VMMR3LazyLoad.asm
  2897                                 [global SSMR3HandleHostBits:function hidden]
  2898                                 %line 617+0 /home/se170/VirtualBox-4.3.28/out/linux.amd64/debug/obj/VMMR3LazyImp/VMMR3LazyLoad.asm
  2899                                 SSMR3HandleHostBits:
  2900                                 %line 618+1 /home/se170/VirtualBox-4.3.28/out/linux.amd64/debug/obj/VMMR3LazyImp/VMMR3LazyLoad.asm
  2901 000007DA FF25(F4FFFFFF)          jmp qword [g_pfnSSMR3HandleHostBits wrt rip]
  2902                                 [global SSMR3HandleHostBits_EndProc:function hidden]
  2903                                 %line 619+0 /home/se170/VirtualBox-4.3.28/out/linux.amd64/debug/obj/VMMR3LazyImp/VMMR3LazyLoad.asm
  2904                                 SSMR3HandleHostBits_EndProc:
  2905                                 [size SSMR3HandleHostBits SSMR3HandleHostBits_EndProc - SSMR3HandleHostBits]
  2906                                 [size SSMR3HandleHostBits_EndProc 0]
  2907 000007E0 CCCCCCCC                db 0xCC, 0xCC, 0xCC, 0xCC
  2908                                 %line 620+1 /home/se170/VirtualBox-4.3.28/out/linux.amd64/debug/obj/VMMR3LazyImp/VMMR3LazyLoad.asm
  2909                                 [global SSMR3HandleHostOSAndArch:function hidden]
  2910                                 %line 620+0 /home/se170/VirtualBox-4.3.28/out/linux.amd64/debug/obj/VMMR3LazyImp/VMMR3LazyLoad.asm
  2911                                 SSMR3HandleHostOSAndArch:
  2912                                 %line 621+1 /home/se170/VirtualBox-4.3.28/out/linux.amd64/debug/obj/VMMR3LazyImp/VMMR3LazyLoad.asm
  2913 000007E4 FF25(F4FFFFFF)          jmp qword [g_pfnSSMR3HandleHostOSAndArch wrt rip]
  2914                                 [global SSMR3HandleHostOSAndArch_EndProc:function hidden]
  2915                                 %line 622+0 /home/se170/VirtualBox-4.3.28/out/linux.amd64/debug/obj/VMMR3LazyImp/VMMR3LazyLoad.asm
  2916                                 SSMR3HandleHostOSAndArch_EndProc:
  2917                                 [size SSMR3HandleHostOSAndArch SSMR3HandleHostOSAndArch_EndProc - SSMR3HandleHostOSAndArch]
  2918                                 [size SSMR3HandleHostOSAndArch_EndProc 0]
  2919 000007EA CCCCCCCC                db 0xCC, 0xCC, 0xCC, 0xCC
  2920                                 %line 623+1 /home/se170/VirtualBox-4.3.28/out/linux.amd64/debug/obj/VMMR3LazyImp/VMMR3LazyLoad.asm
  2921                                 [global SSMR3HandleIsLiveSave:function hidden]
  2922                                 %line 623+0 /home/se170/VirtualBox-4.3.28/out/linux.amd64/debug/obj/VMMR3LazyImp/VMMR3LazyLoad.asm
  2923                                 SSMR3HandleIsLiveSave:
  2924                                 %line 624+1 /home/se170/VirtualBox-4.3.28/out/linux.amd64/debug/obj/VMMR3LazyImp/VMMR3LazyLoad.asm
  2925 000007EE FF25(F4FFFFFF)          jmp qword [g_pfnSSMR3HandleIsLiveSave wrt rip]
  2926                                 [global SSMR3HandleIsLiveSave_EndProc:function hidden]
  2927                                 %line 625+0 /home/se170/VirtualBox-4.3.28/out/linux.amd64/debug/obj/VMMR3LazyImp/VMMR3LazyLoad.asm
  2928                                 SSMR3HandleIsLiveSave_EndProc:
  2929                                 [size SSMR3HandleIsLiveSave SSMR3HandleIsLiveSave_EndProc - SSMR3HandleIsLiveSave]
  2930                                 [size SSMR3HandleIsLiveSave_EndProc 0]
  2931 000007F4 CCCCCCCC                db 0xCC, 0xCC, 0xCC, 0xCC
  2932                                 %line 626+1 /home/se170/VirtualBox-4.3.28/out/linux.amd64/debug/obj/VMMR3LazyImp/VMMR3LazyLoad.asm
  2933                                 [global SSMR3HandleMaxDowntime:function hidden]
  2934                                 %line 626+0 /home/se170/VirtualBox-4.3.28/out/linux.amd64/debug/obj/VMMR3LazyImp/VMMR3LazyLoad.asm
  2935                                 SSMR3HandleMaxDowntime:
  2936                                 %line 627+1 /home/se170/VirtualBox-4.3.28/out/linux.amd64/debug/obj/VMMR3LazyImp/VMMR3LazyLoad.asm
  2937 000007F8 FF25(F4FFFFFF)          jmp qword [g_pfnSSMR3HandleMaxDowntime wrt rip]
  2938                                 [global SSMR3HandleMaxDowntime_EndProc:function hidden]
  2939                                 %line 628+0 /home/se170/VirtualBox-4.3.28/out/linux.amd64/debug/obj/VMMR3LazyImp/VMMR3LazyLoad.asm
  2940                                 SSMR3HandleMaxDowntime_EndProc:
  2941                                 [size SSMR3HandleMaxDowntime SSMR3HandleMaxDowntime_EndProc - SSMR3HandleMaxDowntime]
  2942                                 [size SSMR3HandleMaxDowntime_EndProc 0]
  2943 000007FE CCCCCCCC                db 0xCC, 0xCC, 0xCC, 0xCC
  2944                                 %line 629+1 /home/se170/VirtualBox-4.3.28/out/linux.amd64/debug/obj/VMMR3LazyImp/VMMR3LazyLoad.asm
  2945                                 [global SSMR3HandleReportLivePercent:function hidden]
  2946                                 %line 629+0 /home/se170/VirtualBox-4.3.28/out/linux.amd64/debug/obj/VMMR3LazyImp/VMMR3LazyLoad.asm
  2947                                 SSMR3HandleReportLivePercent:
  2948                                 %line 630+1 /home/se170/VirtualBox-4.3.28/out/linux.amd64/debug/obj/VMMR3LazyImp/VMMR3LazyLoad.asm
  2949 00000802 FF25(F4FFFFFF)          jmp qword [g_pfnSSMR3HandleReportLivePercent wrt rip]
  2950                                 [global SSMR3HandleReportLivePercent_EndProc:function hidden]
  2951                                 %line 631+0 /home/se170/VirtualBox-4.3.28/out/linux.amd64/debug/obj/VMMR3LazyImp/VMMR3LazyLoad.asm
  2952                                 SSMR3HandleReportLivePercent_EndProc:
  2953                                 [size SSMR3HandleReportLivePercent SSMR3HandleReportLivePercent_EndProc - SSMR3HandleReportLivePercent]
  2954                                 [size SSMR3HandleReportLivePercent_EndProc 0]
  2955 00000808 CCCCCCCC                db 0xCC, 0xCC, 0xCC, 0xCC
  2956                                 %line 632+1 /home/se170/VirtualBox-4.3.28/out/linux.amd64/debug/obj/VMMR3LazyImp/VMMR3LazyLoad.asm
  2957                                 [global SSMR3HandleRevision:function hidden]
  2958                                 %line 632+0 /home/se170/VirtualBox-4.3.28/out/linux.amd64/debug/obj/VMMR3LazyImp/VMMR3LazyLoad.asm
  2959                                 SSMR3HandleRevision:
  2960                                 %line 633+1 /home/se170/VirtualBox-4.3.28/out/linux.amd64/debug/obj/VMMR3LazyImp/VMMR3LazyLoad.asm
  2961 0000080C FF25(F4FFFFFF)          jmp qword [g_pfnSSMR3HandleRevision wrt rip]
  2962                                 [global SSMR3HandleRevision_EndProc:function hidden]
  2963                                 %line 634+0 /home/se170/VirtualBox-4.3.28/out/linux.amd64/debug/obj/VMMR3LazyImp/VMMR3LazyLoad.asm
  2964                                 SSMR3HandleRevision_EndProc:
  2965                                 [size SSMR3HandleRevision SSMR3HandleRevision_EndProc - SSMR3HandleRevision]
  2966                                 [size SSMR3HandleRevision_EndProc 0]
  2967 00000812 CCCCCCCC                db 0xCC, 0xCC, 0xCC, 0xCC
  2968                                 %line 635+1 /home/se170/VirtualBox-4.3.28/out/linux.amd64/debug/obj/VMMR3LazyImp/VMMR3LazyLoad.asm
  2969                                 [global SSMR3HandleSetStatus:function hidden]
  2970                                 %line 635+0 /home/se170/VirtualBox-4.3.28/out/linux.amd64/debug/obj/VMMR3LazyImp/VMMR3LazyLoad.asm
  2971                                 SSMR3HandleSetStatus:
  2972                                 %line 636+1 /home/se170/VirtualBox-4.3.28/out/linux.amd64/debug/obj/VMMR3LazyImp/VMMR3LazyLoad.asm
  2973 00000816 FF25(F4FFFFFF)          jmp qword [g_pfnSSMR3HandleSetStatus wrt rip]
  2974                                 [global SSMR3HandleSetStatus_EndProc:function hidden]
  2975                                 %line 637+0 /home/se170/VirtualBox-4.3.28/out/linux.amd64/debug/obj/VMMR3LazyImp/VMMR3LazyLoad.asm
  2976                                 SSMR3HandleSetStatus_EndProc:
  2977                                 [size SSMR3HandleSetStatus SSMR3HandleSetStatus_EndProc - SSMR3HandleSetStatus]
  2978                                 [size SSMR3HandleSetStatus_EndProc 0]
  2979 0000081C CCCCCCCC                db 0xCC, 0xCC, 0xCC, 0xCC
  2980                                 %line 638+1 /home/se170/VirtualBox-4.3.28/out/linux.amd64/debug/obj/VMMR3LazyImp/VMMR3LazyLoad.asm
  2981                                 [global SSMR3HandleVersion:function hidden]
  2982                                 %line 638+0 /home/se170/VirtualBox-4.3.28/out/linux.amd64/debug/obj/VMMR3LazyImp/VMMR3LazyLoad.asm
  2983                                 SSMR3HandleVersion:
  2984                                 %line 639+1 /home/se170/VirtualBox-4.3.28/out/linux.amd64/debug/obj/VMMR3LazyImp/VMMR3LazyLoad.asm
  2985 00000820 FF25(F4FFFFFF)          jmp qword [g_pfnSSMR3HandleVersion wrt rip]
  2986                                 [global SSMR3HandleVersion_EndProc:function hidden]
  2987                                 %line 640+0 /home/se170/VirtualBox-4.3.28/out/linux.amd64/debug/obj/VMMR3LazyImp/VMMR3LazyLoad.asm
  2988                                 SSMR3HandleVersion_EndProc:
  2989                                 [size SSMR3HandleVersion SSMR3HandleVersion_EndProc - SSMR3HandleVersion]
  2990                                 [size SSMR3HandleVersion_EndProc 0]
  2991 00000826 CCCCCCCC                db 0xCC, 0xCC, 0xCC, 0xCC
  2992                                 %line 641+1 /home/se170/VirtualBox-4.3.28/out/linux.amd64/debug/obj/VMMR3LazyImp/VMMR3LazyLoad.asm
  2993                                 [global SSMR3Open:function hidden]
  2994                                 %line 641+0 /home/se170/VirtualBox-4.3.28/out/linux.amd64/debug/obj/VMMR3LazyImp/VMMR3LazyLoad.asm
  2995                                 SSMR3Open:
  2996                                 %line 642+1 /home/se170/VirtualBox-4.3.28/out/linux.amd64/debug/obj/VMMR3LazyImp/VMMR3LazyLoad.asm
  2997 0000082A FF25(F4FFFFFF)          jmp qword [g_pfnSSMR3Open wrt rip]
  2998                                 [global SSMR3Open_EndProc:function hidden]
  2999                                 %line 643+0 /home/se170/VirtualBox-4.3.28/out/linux.amd64/debug/obj/VMMR3LazyImp/VMMR3LazyLoad.asm
  3000                                 SSMR3Open_EndProc:
  3001                                 [size SSMR3Open SSMR3Open_EndProc - SSMR3Open]
  3002                                 [size SSMR3Open_EndProc 0]
  3003 00000830 CCCCCCCC                db 0xCC, 0xCC, 0xCC, 0xCC
  3004                                 %line 644+1 /home/se170/VirtualBox-4.3.28/out/linux.amd64/debug/obj/VMMR3LazyImp/VMMR3LazyLoad.asm
  3005                                 [global SSMR3PutBool:function hidden]
  3006                                 %line 644+0 /home/se170/VirtualBox-4.3.28/out/linux.amd64/debug/obj/VMMR3LazyImp/VMMR3LazyLoad.asm
  3007                                 SSMR3PutBool:
  3008                                 %line 645+1 /home/se170/VirtualBox-4.3.28/out/linux.amd64/debug/obj/VMMR3LazyImp/VMMR3LazyLoad.asm
  3009 00000834 FF25(F4FFFFFF)          jmp qword [g_pfnSSMR3PutBool wrt rip]
  3010                                 [global SSMR3PutBool_EndProc:function hidden]
  3011                                 %line 646+0 /home/se170/VirtualBox-4.3.28/out/linux.amd64/debug/obj/VMMR3LazyImp/VMMR3LazyLoad.asm
  3012                                 SSMR3PutBool_EndProc:
  3013                                 [size SSMR3PutBool SSMR3PutBool_EndProc - SSMR3PutBool]
  3014                                 [size SSMR3PutBool_EndProc 0]
  3015 0000083A CCCCCCCC                db 0xCC, 0xCC, 0xCC, 0xCC
  3016                                 %line 647+1 /home/se170/VirtualBox-4.3.28/out/linux.amd64/debug/obj/VMMR3LazyImp/VMMR3LazyLoad.asm
  3017                                 [global SSMR3PutGCPhys:function hidden]
  3018                                 %line 647+0 /home/se170/VirtualBox-4.3.28/out/linux.amd64/debug/obj/VMMR3LazyImp/VMMR3LazyLoad.asm
  3019                                 SSMR3PutGCPhys:
  3020                                 %line 648+1 /home/se170/VirtualBox-4.3.28/out/linux.amd64/debug/obj/VMMR3LazyImp/VMMR3LazyLoad.asm
  3021 0000083E FF25(F4FFFFFF)          jmp qword [g_pfnSSMR3PutGCPhys wrt rip]
  3022                                 [global SSMR3PutGCPhys_EndProc:function hidden]
  3023                                 %line 649+0 /home/se170/VirtualBox-4.3.28/out/linux.amd64/debug/obj/VMMR3LazyImp/VMMR3LazyLoad.asm
  3024                                 SSMR3PutGCPhys_EndProc:
  3025                                 [size SSMR3PutGCPhys SSMR3PutGCPhys_EndProc - SSMR3PutGCPhys]
  3026                                 [size SSMR3PutGCPhys_EndProc 0]
  3027 00000844 CCCCCCCC                db 0xCC, 0xCC, 0xCC, 0xCC
  3028                                 %line 650+1 /home/se170/VirtualBox-4.3.28/out/linux.amd64/debug/obj/VMMR3LazyImp/VMMR3LazyLoad.asm
  3029                                 [global SSMR3PutGCPhys32:function hidden]
  3030                                 %line 650+0 /home/se170/VirtualBox-4.3.28/out/linux.amd64/debug/obj/VMMR3LazyImp/VMMR3LazyLoad.asm
  3031                                 SSMR3PutGCPhys32:
  3032                                 %line 651+1 /home/se170/VirtualBox-4.3.28/out/linux.amd64/debug/obj/VMMR3LazyImp/VMMR3LazyLoad.asm
  3033 00000848 FF25(F4FFFFFF)          jmp qword [g_pfnSSMR3PutGCPhys32 wrt rip]
  3034                                 [global SSMR3PutGCPhys32_EndProc:function hidden]
  3035                                 %line 652+0 /home/se170/VirtualBox-4.3.28/out/linux.amd64/debug/obj/VMMR3LazyImp/VMMR3LazyLoad.asm
  3036                                 SSMR3PutGCPhys32_EndProc:
  3037                                 [size SSMR3PutGCPhys32 SSMR3PutGCPhys32_EndProc - SSMR3PutGCPhys32]
  3038                                 [size SSMR3PutGCPhys32_EndProc 0]
  3039 0000084E CCCCCCCC                db 0xCC, 0xCC, 0xCC, 0xCC
  3040                                 %line 653+1 /home/se170/VirtualBox-4.3.28/out/linux.amd64/debug/obj/VMMR3LazyImp/VMMR3LazyLoad.asm
  3041                                 [global SSMR3PutGCPhys64:function hidden]
  3042                                 %line 653+0 /home/se170/VirtualBox-4.3.28/out/linux.amd64/debug/obj/VMMR3LazyImp/VMMR3LazyLoad.asm
  3043                                 SSMR3PutGCPhys64:
  3044                                 %line 654+1 /home/se170/VirtualBox-4.3.28/out/linux.amd64/debug/obj/VMMR3LazyImp/VMMR3LazyLoad.asm
  3045 00000852 FF25(F4FFFFFF)          jmp qword [g_pfnSSMR3PutGCPhys64 wrt rip]
  3046                                 [global SSMR3PutGCPhys64_EndProc:function hidden]
  3047                                 %line 655+0 /home/se170/VirtualBox-4.3.28/out/linux.amd64/debug/obj/VMMR3LazyImp/VMMR3LazyLoad.asm
  3048                                 SSMR3PutGCPhys64_EndProc:
  3049                                 [size SSMR3PutGCPhys64 SSMR3PutGCPhys64_EndProc - SSMR3PutGCPhys64]
  3050                                 [size SSMR3PutGCPhys64_EndProc 0]
  3051 00000858 CCCCCCCC                db 0xCC, 0xCC, 0xCC, 0xCC
  3052                                 %line 656+1 /home/se170/VirtualBox-4.3.28/out/linux.amd64/debug/obj/VMMR3LazyImp/VMMR3LazyLoad.asm
  3053                                 [global SSMR3PutGCPtr:function hidden]
  3054                                 %line 656+0 /home/se170/VirtualBox-4.3.28/out/linux.amd64/debug/obj/VMMR3LazyImp/VMMR3LazyLoad.asm
  3055                                 SSMR3PutGCPtr:
  3056                                 %line 657+1 /home/se170/VirtualBox-4.3.28/out/linux.amd64/debug/obj/VMMR3LazyImp/VMMR3LazyLoad.asm
  3057 0000085C FF25(F4FFFFFF)          jmp qword [g_pfnSSMR3PutGCPtr wrt rip]
  3058                                 [global SSMR3PutGCPtr_EndProc:function hidden]
  3059                                 %line 658+0 /home/se170/VirtualBox-4.3.28/out/linux.amd64/debug/obj/VMMR3LazyImp/VMMR3LazyLoad.asm
  3060                                 SSMR3PutGCPtr_EndProc:
  3061                                 [size SSMR3PutGCPtr SSMR3PutGCPtr_EndProc - SSMR3PutGCPtr]
  3062                                 [size SSMR3PutGCPtr_EndProc 0]
  3063 00000862 CCCCCCCC                db 0xCC, 0xCC, 0xCC, 0xCC
  3064                                 %line 659+1 /home/se170/VirtualBox-4.3.28/out/linux.amd64/debug/obj/VMMR3LazyImp/VMMR3LazyLoad.asm
  3065                                 [global SSMR3PutGCUInt:function hidden]
  3066                                 %line 659+0 /home/se170/VirtualBox-4.3.28/out/linux.amd64/debug/obj/VMMR3LazyImp/VMMR3LazyLoad.asm
  3067                                 SSMR3PutGCUInt:
  3068                                 %line 660+1 /home/se170/VirtualBox-4.3.28/out/linux.amd64/debug/obj/VMMR3LazyImp/VMMR3LazyLoad.asm
  3069 00000866 FF25(F4FFFFFF)          jmp qword [g_pfnSSMR3PutGCUInt wrt rip]
  3070                                 [global SSMR3PutGCUInt_EndProc:function hidden]
  3071                                 %line 661+0 /home/se170/VirtualBox-4.3.28/out/linux.amd64/debug/obj/VMMR3LazyImp/VMMR3LazyLoad.asm
  3072                                 SSMR3PutGCUInt_EndProc:
  3073                                 [size SSMR3PutGCUInt SSMR3PutGCUInt_EndProc - SSMR3PutGCUInt]
  3074                                 [size SSMR3PutGCUInt_EndProc 0]
  3075 0000086C CCCCCCCC                db 0xCC, 0xCC, 0xCC, 0xCC
  3076                                 %line 662+1 /home/se170/VirtualBox-4.3.28/out/linux.amd64/debug/obj/VMMR3LazyImp/VMMR3LazyLoad.asm
  3077                                 [global SSMR3PutGCUIntPtr:function hidden]
  3078                                 %line 662+0 /home/se170/VirtualBox-4.3.28/out/linux.amd64/debug/obj/VMMR3LazyImp/VMMR3LazyLoad.asm
  3079                                 SSMR3PutGCUIntPtr:
  3080                                 %line 663+1 /home/se170/VirtualBox-4.3.28/out/linux.amd64/debug/obj/VMMR3LazyImp/VMMR3LazyLoad.asm
  3081 00000870 FF25(F4FFFFFF)          jmp qword [g_pfnSSMR3PutGCUIntPtr wrt rip]
  3082                                 [global SSMR3PutGCUIntPtr_EndProc:function hidden]
  3083                                 %line 664+0 /home/se170/VirtualBox-4.3.28/out/linux.amd64/debug/obj/VMMR3LazyImp/VMMR3LazyLoad.asm
  3084                                 SSMR3PutGCUIntPtr_EndProc:
  3085                                 [size SSMR3PutGCUIntPtr SSMR3PutGCUIntPtr_EndProc - SSMR3PutGCUIntPtr]
  3086                                 [size SSMR3PutGCUIntPtr_EndProc 0]
  3087 00000876 CCCCCCCC                db 0xCC, 0xCC, 0xCC, 0xCC
  3088                                 %line 665+1 /home/se170/VirtualBox-4.3.28/out/linux.amd64/debug/obj/VMMR3LazyImp/VMMR3LazyLoad.asm
  3089                                 [global SSMR3PutGCUIntReg:function hidden]
  3090                                 %line 665+0 /home/se170/VirtualBox-4.3.28/out/linux.amd64/debug/obj/VMMR3LazyImp/VMMR3LazyLoad.asm
  3091                                 SSMR3PutGCUIntReg:
  3092                                 %line 666+1 /home/se170/VirtualBox-4.3.28/out/linux.amd64/debug/obj/VMMR3LazyImp/VMMR3LazyLoad.asm
  3093 0000087A FF25(F4FFFFFF)          jmp qword [g_pfnSSMR3PutGCUIntReg wrt rip]
  3094                                 [global SSMR3PutGCUIntReg_EndProc:function hidden]
  3095                                 %line 667+0 /home/se170/VirtualBox-4.3.28/out/linux.amd64/debug/obj/VMMR3LazyImp/VMMR3LazyLoad.asm
  3096                                 SSMR3PutGCUIntReg_EndProc:
  3097                                 [size SSMR3PutGCUIntReg SSMR3PutGCUIntReg_EndProc - SSMR3PutGCUIntReg]
  3098                                 [size SSMR3PutGCUIntReg_EndProc 0]
  3099 00000880 CCCCCCCC                db 0xCC, 0xCC, 0xCC, 0xCC
  3100                                 %line 668+1 /home/se170/VirtualBox-4.3.28/out/linux.amd64/debug/obj/VMMR3LazyImp/VMMR3LazyLoad.asm
  3101                                 [global SSMR3PutIOPort:function hidden]
  3102                                 %line 668+0 /home/se170/VirtualBox-4.3.28/out/linux.amd64/debug/obj/VMMR3LazyImp/VMMR3LazyLoad.asm
  3103                                 SSMR3PutIOPort:
  3104                                 %line 669+1 /home/se170/VirtualBox-4.3.28/out/linux.amd64/debug/obj/VMMR3LazyImp/VMMR3LazyLoad.asm
  3105 00000884 FF25(F4FFFFFF)          jmp qword [g_pfnSSMR3PutIOPort wrt rip]
  3106                                 [global SSMR3PutIOPort_EndProc:function hidden]
  3107                                 %line 670+0 /home/se170/VirtualBox-4.3.28/out/linux.amd64/debug/obj/VMMR3LazyImp/VMMR3LazyLoad.asm
  3108                                 SSMR3PutIOPort_EndProc:
  3109                                 [size SSMR3PutIOPort SSMR3PutIOPort_EndProc - SSMR3PutIOPort]
  3110                                 [size SSMR3PutIOPort_EndProc 0]
  3111 0000088A CCCCCCCC                db 0xCC, 0xCC, 0xCC, 0xCC
  3112                                 %line 671+1 /home/se170/VirtualBox-4.3.28/out/linux.amd64/debug/obj/VMMR3LazyImp/VMMR3LazyLoad.asm
  3113                                 [global SSMR3PutMem:function hidden]
  3114                                 %line 671+0 /home/se170/VirtualBox-4.3.28/out/linux.amd64/debug/obj/VMMR3LazyImp/VMMR3LazyLoad.asm
  3115                                 SSMR3PutMem:
  3116                                 %line 672+1 /home/se170/VirtualBox-4.3.28/out/linux.amd64/debug/obj/VMMR3LazyImp/VMMR3LazyLoad.asm
  3117 0000088E FF25(F4FFFFFF)          jmp qword [g_pfnSSMR3PutMem wrt rip]
  3118                                 [global SSMR3PutMem_EndProc:function hidden]
  3119                                 %line 673+0 /home/se170/VirtualBox-4.3.28/out/linux.amd64/debug/obj/VMMR3LazyImp/VMMR3LazyLoad.asm
  3120                                 SSMR3PutMem_EndProc:
  3121                                 [size SSMR3PutMem SSMR3PutMem_EndProc - SSMR3PutMem]
  3122                                 [size SSMR3PutMem_EndProc 0]
  3123 00000894 CCCCCCCC                db 0xCC, 0xCC, 0xCC, 0xCC
  3124                                 %line 674+1 /home/se170/VirtualBox-4.3.28/out/linux.amd64/debug/obj/VMMR3LazyImp/VMMR3LazyLoad.asm
  3125                                 [global SSMR3PutRCPtr:function hidden]
  3126                                 %line 674+0 /home/se170/VirtualBox-4.3.28/out/linux.amd64/debug/obj/VMMR3LazyImp/VMMR3LazyLoad.asm
  3127                                 SSMR3PutRCPtr:
  3128                                 %line 675+1 /home/se170/VirtualBox-4.3.28/out/linux.amd64/debug/obj/VMMR3LazyImp/VMMR3LazyLoad.asm
  3129 00000898 FF25(F4FFFFFF)          jmp qword [g_pfnSSMR3PutRCPtr wrt rip]
  3130                                 [global SSMR3PutRCPtr_EndProc:function hidden]
  3131                                 %line 676+0 /home/se170/VirtualBox-4.3.28/out/linux.amd64/debug/obj/VMMR3LazyImp/VMMR3LazyLoad.asm
  3132                                 SSMR3PutRCPtr_EndProc:
  3133                                 [size SSMR3PutRCPtr SSMR3PutRCPtr_EndProc - SSMR3PutRCPtr]
  3134                                 [size SSMR3PutRCPtr_EndProc 0]
  3135 0000089E CCCCCCCC                db 0xCC, 0xCC, 0xCC, 0xCC
  3136                                 %line 677+1 /home/se170/VirtualBox-4.3.28/out/linux.amd64/debug/obj/VMMR3LazyImp/VMMR3LazyLoad.asm
  3137                                 [global SSMR3PutS128:function hidden]
  3138                                 %line 677+0 /home/se170/VirtualBox-4.3.28/out/linux.amd64/debug/obj/VMMR3LazyImp/VMMR3LazyLoad.asm
  3139                                 SSMR3PutS128:
  3140                                 %line 678+1 /home/se170/VirtualBox-4.3.28/out/linux.amd64/debug/obj/VMMR3LazyImp/VMMR3LazyLoad.asm
  3141 000008A2 FF25(F4FFFFFF)          jmp qword [g_pfnSSMR3PutS128 wrt rip]
  3142                                 [global SSMR3PutS128_EndProc:function hidden]
  3143                                 %line 679+0 /home/se170/VirtualBox-4.3.28/out/linux.amd64/debug/obj/VMMR3LazyImp/VMMR3LazyLoad.asm
  3144                                 SSMR3PutS128_EndProc:
  3145                                 [size SSMR3PutS128 SSMR3PutS128_EndProc - SSMR3PutS128]
  3146                                 [size SSMR3PutS128_EndProc 0]
  3147 000008A8 CCCCCCCC                db 0xCC, 0xCC, 0xCC, 0xCC
  3148                                 %line 680+1 /home/se170/VirtualBox-4.3.28/out/linux.amd64/debug/obj/VMMR3LazyImp/VMMR3LazyLoad.asm
  3149                                 [global SSMR3PutS16:function hidden]
  3150                                 %line 680+0 /home/se170/VirtualBox-4.3.28/out/linux.amd64/debug/obj/VMMR3LazyImp/VMMR3LazyLoad.asm
  3151                                 SSMR3PutS16:
  3152                                 %line 681+1 /home/se170/VirtualBox-4.3.28/out/linux.amd64/debug/obj/VMMR3LazyImp/VMMR3LazyLoad.asm
  3153 000008AC FF25(F4FFFFFF)          jmp qword [g_pfnSSMR3PutS16 wrt rip]
  3154                                 [global SSMR3PutS16_EndProc:function hidden]
  3155                                 %line 682+0 /home/se170/VirtualBox-4.3.28/out/linux.amd64/debug/obj/VMMR3LazyImp/VMMR3LazyLoad.asm
  3156                                 SSMR3PutS16_EndProc:
  3157                                 [size SSMR3PutS16 SSMR3PutS16_EndProc - SSMR3PutS16]
  3158                                 [size SSMR3PutS16_EndProc 0]
  3159 000008B2 CCCCCCCC                db 0xCC, 0xCC, 0xCC, 0xCC
  3160                                 %line 683+1 /home/se170/VirtualBox-4.3.28/out/linux.amd64/debug/obj/VMMR3LazyImp/VMMR3LazyLoad.asm
  3161                                 [global SSMR3PutS32:function hidden]
  3162                                 %line 683+0 /home/se170/VirtualBox-4.3.28/out/linux.amd64/debug/obj/VMMR3LazyImp/VMMR3LazyLoad.asm
  3163                                 SSMR3PutS32:
  3164                                 %line 684+1 /home/se170/VirtualBox-4.3.28/out/linux.amd64/debug/obj/VMMR3LazyImp/VMMR3LazyLoad.asm
  3165 000008B6 FF25(F4FFFFFF)          jmp qword [g_pfnSSMR3PutS32 wrt rip]
  3166                                 [global SSMR3PutS32_EndProc:function hidden]
  3167                                 %line 685+0 /home/se170/VirtualBox-4.3.28/out/linux.amd64/debug/obj/VMMR3LazyImp/VMMR3LazyLoad.asm
  3168                                 SSMR3PutS32_EndProc:
  3169                                 [size SSMR3PutS32 SSMR3PutS32_EndProc - SSMR3PutS32]
  3170                                 [size SSMR3PutS32_EndProc 0]
  3171 000008BC CCCCCCCC                db 0xCC, 0xCC, 0xCC, 0xCC
  3172                                 %line 686+1 /home/se170/VirtualBox-4.3.28/out/linux.amd64/debug/obj/VMMR3LazyImp/VMMR3LazyLoad.asm
  3173                                 [global SSMR3PutS64:function hidden]
  3174                                 %line 686+0 /home/se170/VirtualBox-4.3.28/out/linux.amd64/debug/obj/VMMR3LazyImp/VMMR3LazyLoad.asm
  3175                                 SSMR3PutS64:
  3176                                 %line 687+1 /home/se170/VirtualBox-4.3.28/out/linux.amd64/debug/obj/VMMR3LazyImp/VMMR3LazyLoad.asm
  3177 000008C0 FF25(F4FFFFFF)          jmp qword [g_pfnSSMR3PutS64 wrt rip]
  3178                                 [global SSMR3PutS64_EndProc:function hidden]
  3179                                 %line 688+0 /home/se170/VirtualBox-4.3.28/out/linux.amd64/debug/obj/VMMR3LazyImp/VMMR3LazyLoad.asm
  3180                                 SSMR3PutS64_EndProc:
  3181                                 [size SSMR3PutS64 SSMR3PutS64_EndProc - SSMR3PutS64]
  3182                                 [size SSMR3PutS64_EndProc 0]
  3183 000008C6 CCCCCCCC                db 0xCC, 0xCC, 0xCC, 0xCC
  3184                                 %line 689+1 /home/se170/VirtualBox-4.3.28/out/linux.amd64/debug/obj/VMMR3LazyImp/VMMR3LazyLoad.asm
  3185                                 [global SSMR3PutS8:function hidden]
  3186                                 %line 689+0 /home/se170/VirtualBox-4.3.28/out/linux.amd64/debug/obj/VMMR3LazyImp/VMMR3LazyLoad.asm
  3187                                 SSMR3PutS8:
  3188                                 %line 690+1 /home/se170/VirtualBox-4.3.28/out/linux.amd64/debug/obj/VMMR3LazyImp/VMMR3LazyLoad.asm
  3189 000008CA FF25(F4FFFFFF)          jmp qword [g_pfnSSMR3PutS8 wrt rip]
  3190                                 [global SSMR3PutS8_EndProc:function hidden]
  3191                                 %line 691+0 /home/se170/VirtualBox-4.3.28/out/linux.amd64/debug/obj/VMMR3LazyImp/VMMR3LazyLoad.asm
  3192                                 SSMR3PutS8_EndProc:
  3193                                 [size SSMR3PutS8 SSMR3PutS8_EndProc - SSMR3PutS8]
  3194                                 [size SSMR3PutS8_EndProc 0]
  3195 000008D0 CCCCCCCC                db 0xCC, 0xCC, 0xCC, 0xCC
  3196                                 %line 692+1 /home/se170/VirtualBox-4.3.28/out/linux.amd64/debug/obj/VMMR3LazyImp/VMMR3LazyLoad.asm
  3197                                 [global SSMR3PutSInt:function hidden]
  3198                                 %line 692+0 /home/se170/VirtualBox-4.3.28/out/linux.amd64/debug/obj/VMMR3LazyImp/VMMR3LazyLoad.asm
  3199                                 SSMR3PutSInt:
  3200                                 %line 693+1 /home/se170/VirtualBox-4.3.28/out/linux.amd64/debug/obj/VMMR3LazyImp/VMMR3LazyLoad.asm
  3201 000008D4 FF25(F4FFFFFF)          jmp qword [g_pfnSSMR3PutSInt wrt rip]
  3202                                 [global SSMR3PutSInt_EndProc:function hidden]
  3203                                 %line 694+0 /home/se170/VirtualBox-4.3.28/out/linux.amd64/debug/obj/VMMR3LazyImp/VMMR3LazyLoad.asm
  3204                                 SSMR3PutSInt_EndProc:
  3205                                 [size SSMR3PutSInt SSMR3PutSInt_EndProc - SSMR3PutSInt]
  3206                                 [size SSMR3PutSInt_EndProc 0]
  3207 000008DA CCCCCCCC                db 0xCC, 0xCC, 0xCC, 0xCC
  3208                                 %line 695+1 /home/se170/VirtualBox-4.3.28/out/linux.amd64/debug/obj/VMMR3LazyImp/VMMR3LazyLoad.asm
  3209                                 [global SSMR3PutSel:function hidden]
  3210                                 %line 695+0 /home/se170/VirtualBox-4.3.28/out/linux.amd64/debug/obj/VMMR3LazyImp/VMMR3LazyLoad.asm
  3211                                 SSMR3PutSel:
  3212                                 %line 696+1 /home/se170/VirtualBox-4.3.28/out/linux.amd64/debug/obj/VMMR3LazyImp/VMMR3LazyLoad.asm
  3213 000008DE FF25(F4FFFFFF)          jmp qword [g_pfnSSMR3PutSel wrt rip]
  3214                                 [global SSMR3PutSel_EndProc:function hidden]
  3215                                 %line 697+0 /home/se170/VirtualBox-4.3.28/out/linux.amd64/debug/obj/VMMR3LazyImp/VMMR3LazyLoad.asm
  3216                                 SSMR3PutSel_EndProc:
  3217                                 [size SSMR3PutSel SSMR3PutSel_EndProc - SSMR3PutSel]
  3218                                 [size SSMR3PutSel_EndProc 0]
  3219 000008E4 CCCCCCCC                db 0xCC, 0xCC, 0xCC, 0xCC
  3220                                 %line 698+1 /home/se170/VirtualBox-4.3.28/out/linux.amd64/debug/obj/VMMR3LazyImp/VMMR3LazyLoad.asm
  3221                                 [global SSMR3PutStrZ:function hidden]
  3222                                 %line 698+0 /home/se170/VirtualBox-4.3.28/out/linux.amd64/debug/obj/VMMR3LazyImp/VMMR3LazyLoad.asm
  3223                                 SSMR3PutStrZ:
  3224                                 %line 699+1 /home/se170/VirtualBox-4.3.28/out/linux.amd64/debug/obj/VMMR3LazyImp/VMMR3LazyLoad.asm
  3225 000008E8 FF25(F4FFFFFF)          jmp qword [g_pfnSSMR3PutStrZ wrt rip]
  3226                                 [global SSMR3PutStrZ_EndProc:function hidden]
  3227                                 %line 700+0 /home/se170/VirtualBox-4.3.28/out/linux.amd64/debug/obj/VMMR3LazyImp/VMMR3LazyLoad.asm
  3228                                 SSMR3PutStrZ_EndProc:
  3229                                 [size SSMR3PutStrZ SSMR3PutStrZ_EndProc - SSMR3PutStrZ]
  3230                                 [size SSMR3PutStrZ_EndProc 0]
  3231 000008EE CCCCCCCC                db 0xCC, 0xCC, 0xCC, 0xCC
  3232                                 %line 701+1 /home/se170/VirtualBox-4.3.28/out/linux.amd64/debug/obj/VMMR3LazyImp/VMMR3LazyLoad.asm
  3233                                 [global SSMR3PutStruct:function hidden]
  3234                                 %line 701+0 /home/se170/VirtualBox-4.3.28/out/linux.amd64/debug/obj/VMMR3LazyImp/VMMR3LazyLoad.asm
  3235                                 SSMR3PutStruct:
  3236                                 %line 702+1 /home/se170/VirtualBox-4.3.28/out/linux.amd64/debug/obj/VMMR3LazyImp/VMMR3LazyLoad.asm
  3237 000008F2 FF25(F4FFFFFF)          jmp qword [g_pfnSSMR3PutStruct wrt rip]
  3238                                 [global SSMR3PutStruct_EndProc:function hidden]
  3239                                 %line 703+0 /home/se170/VirtualBox-4.3.28/out/linux.amd64/debug/obj/VMMR3LazyImp/VMMR3LazyLoad.asm
  3240                                 SSMR3PutStruct_EndProc:
  3241                                 [size SSMR3PutStruct SSMR3PutStruct_EndProc - SSMR3PutStruct]
  3242                                 [size SSMR3PutStruct_EndProc 0]
  3243 000008F8 CCCCCCCC                db 0xCC, 0xCC, 0xCC, 0xCC
  3244                                 %line 704+1 /home/se170/VirtualBox-4.3.28/out/linux.amd64/debug/obj/VMMR3LazyImp/VMMR3LazyLoad.asm
  3245                                 [global SSMR3PutStructEx:function hidden]
  3246                                 %line 704+0 /home/se170/VirtualBox-4.3.28/out/linux.amd64/debug/obj/VMMR3LazyImp/VMMR3LazyLoad.asm
  3247                                 SSMR3PutStructEx:
  3248                                 %line 705+1 /home/se170/VirtualBox-4.3.28/out/linux.amd64/debug/obj/VMMR3LazyImp/VMMR3LazyLoad.asm
  3249 000008FC FF25(F4FFFFFF)          jmp qword [g_pfnSSMR3PutStructEx wrt rip]
  3250                                 [global SSMR3PutStructEx_EndProc:function hidden]
  3251                                 %line 706+0 /home/se170/VirtualBox-4.3.28/out/linux.amd64/debug/obj/VMMR3LazyImp/VMMR3LazyLoad.asm
  3252                                 SSMR3PutStructEx_EndProc:
  3253                                 [size SSMR3PutStructEx SSMR3PutStructEx_EndProc - SSMR3PutStructEx]
  3254                                 [size SSMR3PutStructEx_EndProc 0]
  3255 00000902 CCCCCCCC                db 0xCC, 0xCC, 0xCC, 0xCC
  3256                                 %line 707+1 /home/se170/VirtualBox-4.3.28/out/linux.amd64/debug/obj/VMMR3LazyImp/VMMR3LazyLoad.asm
  3257                                 [global SSMR3PutU128:function hidden]
  3258                                 %line 707+0 /home/se170/VirtualBox-4.3.28/out/linux.amd64/debug/obj/VMMR3LazyImp/VMMR3LazyLoad.asm
  3259                                 SSMR3PutU128:
  3260                                 %line 708+1 /home/se170/VirtualBox-4.3.28/out/linux.amd64/debug/obj/VMMR3LazyImp/VMMR3LazyLoad.asm
  3261 00000906 FF25(F4FFFFFF)          jmp qword [g_pfnSSMR3PutU128 wrt rip]
  3262                                 [global SSMR3PutU128_EndProc:function hidden]
  3263                                 %line 709+0 /home/se170/VirtualBox-4.3.28/out/linux.amd64/debug/obj/VMMR3LazyImp/VMMR3LazyLoad.asm
  3264                                 SSMR3PutU128_EndProc:
  3265                                 [size SSMR3PutU128 SSMR3PutU128_EndProc - SSMR3PutU128]
  3266                                 [size SSMR3PutU128_EndProc 0]
  3267 0000090C CCCCCCCC                db 0xCC, 0xCC, 0xCC, 0xCC
  3268                                 %line 710+1 /home/se170/VirtualBox-4.3.28/out/linux.amd64/debug/obj/VMMR3LazyImp/VMMR3LazyLoad.asm
  3269                                 [global SSMR3PutU16:function hidden]
  3270                                 %line 710+0 /home/se170/VirtualBox-4.3.28/out/linux.amd64/debug/obj/VMMR3LazyImp/VMMR3LazyLoad.asm
  3271                                 SSMR3PutU16:
  3272                                 %line 711+1 /home/se170/VirtualBox-4.3.28/out/linux.amd64/debug/obj/VMMR3LazyImp/VMMR3LazyLoad.asm
  3273 00000910 FF25(F4FFFFFF)          jmp qword [g_pfnSSMR3PutU16 wrt rip]
  3274                                 [global SSMR3PutU16_EndProc:function hidden]
  3275                                 %line 712+0 /home/se170/VirtualBox-4.3.28/out/linux.amd64/debug/obj/VMMR3LazyImp/VMMR3LazyLoad.asm
  3276                                 SSMR3PutU16_EndProc:
  3277                                 [size SSMR3PutU16 SSMR3PutU16_EndProc - SSMR3PutU16]
  3278                                 [size SSMR3PutU16_EndProc 0]
  3279 00000916 CCCCCCCC                db 0xCC, 0xCC, 0xCC, 0xCC
  3280                                 %line 713+1 /home/se170/VirtualBox-4.3.28/out/linux.amd64/debug/obj/VMMR3LazyImp/VMMR3LazyLoad.asm
  3281                                 [global SSMR3PutU32:function hidden]
  3282                                 %line 713+0 /home/se170/VirtualBox-4.3.28/out/linux.amd64/debug/obj/VMMR3LazyImp/VMMR3LazyLoad.asm
  3283                                 SSMR3PutU32:
  3284                                 %line 714+1 /home/se170/VirtualBox-4.3.28/out/linux.amd64/debug/obj/VMMR3LazyImp/VMMR3LazyLoad.asm
  3285 0000091A FF25(F4FFFFFF)          jmp qword [g_pfnSSMR3PutU32 wrt rip]
  3286                                 [global SSMR3PutU32_EndProc:function hidden]
  3287                                 %line 715+0 /home/se170/VirtualBox-4.3.28/out/linux.amd64/debug/obj/VMMR3LazyImp/VMMR3LazyLoad.asm
  3288                                 SSMR3PutU32_EndProc:
  3289                                 [size SSMR3PutU32 SSMR3PutU32_EndProc - SSMR3PutU32]
  3290                                 [size SSMR3PutU32_EndProc 0]
  3291 00000920 CCCCCCCC                db 0xCC, 0xCC, 0xCC, 0xCC
  3292                                 %line 716+1 /home/se170/VirtualBox-4.3.28/out/linux.amd64/debug/obj/VMMR3LazyImp/VMMR3LazyLoad.asm
  3293                                 [global SSMR3PutU64:function hidden]
  3294                                 %line 716+0 /home/se170/VirtualBox-4.3.28/out/linux.amd64/debug/obj/VMMR3LazyImp/VMMR3LazyLoad.asm
  3295                                 SSMR3PutU64:
  3296                                 %line 717+1 /home/se170/VirtualBox-4.3.28/out/linux.amd64/debug/obj/VMMR3LazyImp/VMMR3LazyLoad.asm
  3297 00000924 FF25(F4FFFFFF)          jmp qword [g_pfnSSMR3PutU64 wrt rip]
  3298                                 [global SSMR3PutU64_EndProc:function hidden]
  3299                                 %line 718+0 /home/se170/VirtualBox-4.3.28/out/linux.amd64/debug/obj/VMMR3LazyImp/VMMR3LazyLoad.asm
  3300                                 SSMR3PutU64_EndProc:
  3301                                 [size SSMR3PutU64 SSMR3PutU64_EndProc - SSMR3PutU64]
  3302                                 [size SSMR3PutU64_EndProc 0]
  3303 0000092A CCCCCCCC                db 0xCC, 0xCC, 0xCC, 0xCC
  3304                                 %line 719+1 /home/se170/VirtualBox-4.3.28/out/linux.amd64/debug/obj/VMMR3LazyImp/VMMR3LazyLoad.asm
  3305                                 [global SSMR3PutU8:function hidden]
  3306                                 %line 719+0 /home/se170/VirtualBox-4.3.28/out/linux.amd64/debug/obj/VMMR3LazyImp/VMMR3LazyLoad.asm
  3307                                 SSMR3PutU8:
  3308                                 %line 720+1 /home/se170/VirtualBox-4.3.28/out/linux.amd64/debug/obj/VMMR3LazyImp/VMMR3LazyLoad.asm
  3309 0000092E FF25(F4FFFFFF)          jmp qword [g_pfnSSMR3PutU8 wrt rip]
  3310                                 [global SSMR3PutU8_EndProc:function hidden]
  3311                                 %line 721+0 /home/se170/VirtualBox-4.3.28/out/linux.amd64/debug/obj/VMMR3LazyImp/VMMR3LazyLoad.asm
  3312                                 SSMR3PutU8_EndProc:
  3313                                 [size SSMR3PutU8 SSMR3PutU8_EndProc - SSMR3PutU8]
  3314                                 [size SSMR3PutU8_EndProc 0]
  3315 00000934 CCCCCCCC                db 0xCC, 0xCC, 0xCC, 0xCC
  3316                                 %line 722+1 /home/se170/VirtualBox-4.3.28/out/linux.amd64/debug/obj/VMMR3LazyImp/VMMR3LazyLoad.asm
  3317                                 [global SSMR3PutUInt:function hidden]
  3318                                 %line 722+0 /home/se170/VirtualBox-4.3.28/out/linux.amd64/debug/obj/VMMR3LazyImp/VMMR3LazyLoad.asm
  3319                                 SSMR3PutUInt:
  3320                                 %line 723+1 /home/se170/VirtualBox-4.3.28/out/linux.amd64/debug/obj/VMMR3LazyImp/VMMR3LazyLoad.asm
  3321 00000938 FF25(F4FFFFFF)          jmp qword [g_pfnSSMR3PutUInt wrt rip]
  3322                                 [global SSMR3PutUInt_EndProc:function hidden]
  3323                                 %line 724+0 /home/se170/VirtualBox-4.3.28/out/linux.amd64/debug/obj/VMMR3LazyImp/VMMR3LazyLoad.asm
  3324                                 SSMR3PutUInt_EndProc:
  3325                                 [size SSMR3PutUInt SSMR3PutUInt_EndProc - SSMR3PutUInt]
  3326                                 [size SSMR3PutUInt_EndProc 0]
  3327 0000093E CCCCCCCC                db 0xCC, 0xCC, 0xCC, 0xCC
  3328                                 %line 725+1 /home/se170/VirtualBox-4.3.28/out/linux.amd64/debug/obj/VMMR3LazyImp/VMMR3LazyLoad.asm
  3329                                 [global SSMR3Seek:function hidden]
  3330                                 %line 725+0 /home/se170/VirtualBox-4.3.28/out/linux.amd64/debug/obj/VMMR3LazyImp/VMMR3LazyLoad.asm
  3331                                 SSMR3Seek:
  3332                                 %line 726+1 /home/se170/VirtualBox-4.3.28/out/linux.amd64/debug/obj/VMMR3LazyImp/VMMR3LazyLoad.asm
  3333 00000942 FF25(F4FFFFFF)          jmp qword [g_pfnSSMR3Seek wrt rip]
  3334                                 [global SSMR3Seek_EndProc:function hidden]
  3335                                 %line 727+0 /home/se170/VirtualBox-4.3.28/out/linux.amd64/debug/obj/VMMR3LazyImp/VMMR3LazyLoad.asm
  3336                                 SSMR3Seek_EndProc:
  3337                                 [size SSMR3Seek SSMR3Seek_EndProc - SSMR3Seek]
  3338                                 [size SSMR3Seek_EndProc 0]
  3339 00000948 CCCCCCCC                db 0xCC, 0xCC, 0xCC, 0xCC
  3340                                 %line 728+1 /home/se170/VirtualBox-4.3.28/out/linux.amd64/debug/obj/VMMR3LazyImp/VMMR3LazyLoad.asm
  3341                                 [global SSMR3SetCfgError:function hidden]
  3342                                 %line 728+0 /home/se170/VirtualBox-4.3.28/out/linux.amd64/debug/obj/VMMR3LazyImp/VMMR3LazyLoad.asm
  3343                                 SSMR3SetCfgError:
  3344                                 %line 729+1 /home/se170/VirtualBox-4.3.28/out/linux.amd64/debug/obj/VMMR3LazyImp/VMMR3LazyLoad.asm
  3345 0000094C FF25(F4FFFFFF)          jmp qword [g_pfnSSMR3SetCfgError wrt rip]
  3346                                 [global SSMR3SetCfgError_EndProc:function hidden]
  3347                                 %line 730+0 /home/se170/VirtualBox-4.3.28/out/linux.amd64/debug/obj/VMMR3LazyImp/VMMR3LazyLoad.asm
  3348                                 SSMR3SetCfgError_EndProc:
  3349                                 [size SSMR3SetCfgError SSMR3SetCfgError_EndProc - SSMR3SetCfgError]
  3350                                 [size SSMR3SetCfgError_EndProc 0]
  3351 00000952 CCCCCCCC                db 0xCC, 0xCC, 0xCC, 0xCC
  3352                                 %line 731+1 /home/se170/VirtualBox-4.3.28/out/linux.amd64/debug/obj/VMMR3LazyImp/VMMR3LazyLoad.asm
  3353                                 [global SSMR3SetLoadError:function hidden]
  3354                                 %line 731+0 /home/se170/VirtualBox-4.3.28/out/linux.amd64/debug/obj/VMMR3LazyImp/VMMR3LazyLoad.asm
  3355                                 SSMR3SetLoadError:
  3356                                 %line 732+1 /home/se170/VirtualBox-4.3.28/out/linux.amd64/debug/obj/VMMR3LazyImp/VMMR3LazyLoad.asm
  3357 00000956 FF25(F4FFFFFF)          jmp qword [g_pfnSSMR3SetLoadError wrt rip]
  3358                                 [global SSMR3SetLoadError_EndProc:function hidden]
  3359                                 %line 733+0 /home/se170/VirtualBox-4.3.28/out/linux.amd64/debug/obj/VMMR3LazyImp/VMMR3LazyLoad.asm
  3360                                 SSMR3SetLoadError_EndProc:
  3361                                 [size SSMR3SetLoadError SSMR3SetLoadError_EndProc - SSMR3SetLoadError]
  3362                                 [size SSMR3SetLoadError_EndProc 0]
  3363 0000095C CCCCCCCC                db 0xCC, 0xCC, 0xCC, 0xCC
  3364                                 %line 734+1 /home/se170/VirtualBox-4.3.28/out/linux.amd64/debug/obj/VMMR3LazyImp/VMMR3LazyLoad.asm
  3365                                 [global SSMR3SetLoadErrorV:function hidden]
  3366                                 %line 734+0 /home/se170/VirtualBox-4.3.28/out/linux.amd64/debug/obj/VMMR3LazyImp/VMMR3LazyLoad.asm
  3367                                 SSMR3SetLoadErrorV:
  3368                                 %line 735+1 /home/se170/VirtualBox-4.3.28/out/linux.amd64/debug/obj/VMMR3LazyImp/VMMR3LazyLoad.asm
  3369 00000960 FF25(F4FFFFFF)          jmp qword [g_pfnSSMR3SetLoadErrorV wrt rip]
  3370                                 [global SSMR3SetLoadErrorV_EndProc:function hidden]
  3371                                 %line 736+0 /home/se170/VirtualBox-4.3.28/out/linux.amd64/debug/obj/VMMR3LazyImp/VMMR3LazyLoad.asm
  3372                                 SSMR3SetLoadErrorV_EndProc:
  3373                                 [size SSMR3SetLoadErrorV SSMR3SetLoadErrorV_EndProc - SSMR3SetLoadErrorV]
  3374                                 [size SSMR3SetLoadErrorV_EndProc 0]
  3375 00000966 CCCCCCCC                db 0xCC, 0xCC, 0xCC, 0xCC
  3376                                 %line 737+1 /home/se170/VirtualBox-4.3.28/out/linux.amd64/debug/obj/VMMR3LazyImp/VMMR3LazyLoad.asm
  3377                                 [global SSMR3Skip:function hidden]
  3378                                 %line 737+0 /home/se170/VirtualBox-4.3.28/out/linux.amd64/debug/obj/VMMR3LazyImp/VMMR3LazyLoad.asm
  3379                                 SSMR3Skip:
  3380                                 %line 738+1 /home/se170/VirtualBox-4.3.28/out/linux.amd64/debug/obj/VMMR3LazyImp/VMMR3LazyLoad.asm
  3381 0000096A FF25(F4FFFFFF)          jmp qword [g_pfnSSMR3Skip wrt rip]
  3382                                 [global SSMR3Skip_EndProc:function hidden]
  3383                                 %line 739+0 /home/se170/VirtualBox-4.3.28/out/linux.amd64/debug/obj/VMMR3LazyImp/VMMR3LazyLoad.asm
  3384                                 SSMR3Skip_EndProc:
  3385                                 [size SSMR3Skip SSMR3Skip_EndProc - SSMR3Skip]
  3386                                 [size SSMR3Skip_EndProc 0]
  3387 00000970 CCCCCCCC                db 0xCC, 0xCC, 0xCC, 0xCC
  3388                                 %line 740+1 /home/se170/VirtualBox-4.3.28/out/linux.amd64/debug/obj/VMMR3LazyImp/VMMR3LazyLoad.asm
  3389                                 [global SSMR3SkipToEndOfUnit:function hidden]
  3390                                 %line 740+0 /home/se170/VirtualBox-4.3.28/out/linux.amd64/debug/obj/VMMR3LazyImp/VMMR3LazyLoad.asm
  3391                                 SSMR3SkipToEndOfUnit:
  3392                                 %line 741+1 /home/se170/VirtualBox-4.3.28/out/linux.amd64/debug/obj/VMMR3LazyImp/VMMR3LazyLoad.asm
  3393 00000974 FF25(F4FFFFFF)          jmp qword [g_pfnSSMR3SkipToEndOfUnit wrt rip]
  3394                                 [global SSMR3SkipToEndOfUnit_EndProc:function hidden]
  3395                                 %line 742+0 /home/se170/VirtualBox-4.3.28/out/linux.amd64/debug/obj/VMMR3LazyImp/VMMR3LazyLoad.asm
  3396                                 SSMR3SkipToEndOfUnit_EndProc:
  3397                                 [size SSMR3SkipToEndOfUnit SSMR3SkipToEndOfUnit_EndProc - SSMR3SkipToEndOfUnit]
  3398                                 [size SSMR3SkipToEndOfUnit_EndProc 0]
  3399 0000097A CCCCCCCC                db 0xCC, 0xCC, 0xCC, 0xCC
  3400                                 %line 743+1 /home/se170/VirtualBox-4.3.28/out/linux.amd64/debug/obj/VMMR3LazyImp/VMMR3LazyLoad.asm
  3401                                 [global SSMR3ValidateFile:function hidden]
  3402                                 %line 743+0 /home/se170/VirtualBox-4.3.28/out/linux.amd64/debug/obj/VMMR3LazyImp/VMMR3LazyLoad.asm
  3403                                 SSMR3ValidateFile:
  3404                                 %line 744+1 /home/se170/VirtualBox-4.3.28/out/linux.amd64/debug/obj/VMMR3LazyImp/VMMR3LazyLoad.asm
  3405 0000097E FF25(F4FFFFFF)          jmp qword [g_pfnSSMR3ValidateFile wrt rip]
  3406                                 [global SSMR3ValidateFile_EndProc:function hidden]
  3407                                 %line 745+0 /home/se170/VirtualBox-4.3.28/out/linux.amd64/debug/obj/VMMR3LazyImp/VMMR3LazyLoad.asm
  3408                                 SSMR3ValidateFile_EndProc:
  3409                                 [size SSMR3ValidateFile SSMR3ValidateFile_EndProc - SSMR3ValidateFile]
  3410                                 [size SSMR3ValidateFile_EndProc 0]
  3411 00000984 CCCCCCCC                db 0xCC, 0xCC, 0xCC, 0xCC
  3412                                 %line 746+1 /home/se170/VirtualBox-4.3.28/out/linux.amd64/debug/obj/VMMR3LazyImp/VMMR3LazyLoad.asm
  3413                                 [global SSMR3Cancel:function hidden]
  3414                                 %line 746+0 /home/se170/VirtualBox-4.3.28/out/linux.amd64/debug/obj/VMMR3LazyImp/VMMR3LazyLoad.asm
  3415                                 SSMR3Cancel:
  3416                                 %line 747+1 /home/se170/VirtualBox-4.3.28/out/linux.amd64/debug/obj/VMMR3LazyImp/VMMR3LazyLoad.asm
  3417 00000988 FF25(F4FFFFFF)          jmp qword [g_pfnSSMR3Cancel wrt rip]
  3418                                 [global SSMR3Cancel_EndProc:function hidden]
  3419                                 %line 748+0 /home/se170/VirtualBox-4.3.28/out/linux.amd64/debug/obj/VMMR3LazyImp/VMMR3LazyLoad.asm
  3420                                 SSMR3Cancel_EndProc:
  3421                                 [size SSMR3Cancel SSMR3Cancel_EndProc - SSMR3Cancel]
  3422                                 [size SSMR3Cancel_EndProc 0]
  3423 0000098E CCCCCCCC                db 0xCC, 0xCC, 0xCC, 0xCC
  3424                                 %line 749+1 /home/se170/VirtualBox-4.3.28/out/linux.amd64/debug/obj/VMMR3LazyImp/VMMR3LazyLoad.asm
  3425                                 [global SSMR3RegisterExternal:function hidden]
  3426                                 %line 749+0 /home/se170/VirtualBox-4.3.28/out/linux.amd64/debug/obj/VMMR3LazyImp/VMMR3LazyLoad.asm
  3427                                 SSMR3RegisterExternal:
  3428                                 %line 750+1 /home/se170/VirtualBox-4.3.28/out/linux.amd64/debug/obj/VMMR3LazyImp/VMMR3LazyLoad.asm
  3429 00000992 FF25(F4FFFFFF)          jmp qword [g_pfnSSMR3RegisterExternal wrt rip]
  3430                                 [global SSMR3RegisterExternal_EndProc:function hidden]
  3431                                 %line 751+0 /home/se170/VirtualBox-4.3.28/out/linux.amd64/debug/obj/VMMR3LazyImp/VMMR3LazyLoad.asm
  3432                                 SSMR3RegisterExternal_EndProc:
  3433                                 [size SSMR3RegisterExternal SSMR3RegisterExternal_EndProc - SSMR3RegisterExternal]
  3434                                 [size SSMR3RegisterExternal_EndProc 0]
  3435 00000998 CCCCCCCC                db 0xCC, 0xCC, 0xCC, 0xCC
  3436                                 %line 752+1 /home/se170/VirtualBox-4.3.28/out/linux.amd64/debug/obj/VMMR3LazyImp/VMMR3LazyLoad.asm
  3437                                 [global STAMR3Dump:function hidden]
  3438                                 %line 752+0 /home/se170/VirtualBox-4.3.28/out/linux.amd64/debug/obj/VMMR3LazyImp/VMMR3LazyLoad.asm
  3439                                 STAMR3Dump:
  3440                                 %line 753+1 /home/se170/VirtualBox-4.3.28/out/linux.amd64/debug/obj/VMMR3LazyImp/VMMR3LazyLoad.asm
  3441 0000099C FF25(F4FFFFFF)          jmp qword [g_pfnSTAMR3Dump wrt rip]
  3442                                 [global STAMR3Dump_EndProc:function hidden]
  3443                                 %line 754+0 /home/se170/VirtualBox-4.3.28/out/linux.amd64/debug/obj/VMMR3LazyImp/VMMR3LazyLoad.asm
  3444                                 STAMR3Dump_EndProc:
  3445                                 [size STAMR3Dump STAMR3Dump_EndProc - STAMR3Dump]
  3446                                 [size STAMR3Dump_EndProc 0]
  3447 000009A2 CCCCCCCC                db 0xCC, 0xCC, 0xCC, 0xCC
  3448                                 %line 755+1 /home/se170/VirtualBox-4.3.28/out/linux.amd64/debug/obj/VMMR3LazyImp/VMMR3LazyLoad.asm
  3449                                 [global STAMR3Enum:function hidden]
  3450                                 %line 755+0 /home/se170/VirtualBox-4.3.28/out/linux.amd64/debug/obj/VMMR3LazyImp/VMMR3LazyLoad.asm
  3451                                 STAMR3Enum:
  3452                                 %line 756+1 /home/se170/VirtualBox-4.3.28/out/linux.amd64/debug/obj/VMMR3LazyImp/VMMR3LazyLoad.asm
  3453 000009A6 FF25(F4FFFFFF)          jmp qword [g_pfnSTAMR3Enum wrt rip]
  3454                                 [global STAMR3Enum_EndProc:function hidden]
  3455                                 %line 757+0 /home/se170/VirtualBox-4.3.28/out/linux.amd64/debug/obj/VMMR3LazyImp/VMMR3LazyLoad.asm
  3456                                 STAMR3Enum_EndProc:
  3457                                 [size STAMR3Enum STAMR3Enum_EndProc - STAMR3Enum]
  3458                                 [size STAMR3Enum_EndProc 0]
  3459 000009AC CCCCCCCC                db 0xCC, 0xCC, 0xCC, 0xCC
  3460                                 %line 758+1 /home/se170/VirtualBox-4.3.28/out/linux.amd64/debug/obj/VMMR3LazyImp/VMMR3LazyLoad.asm
  3461                                 [global STAMR3Reset:function hidden]
  3462                                 %line 758+0 /home/se170/VirtualBox-4.3.28/out/linux.amd64/debug/obj/VMMR3LazyImp/VMMR3LazyLoad.asm
  3463                                 STAMR3Reset:
  3464                                 %line 759+1 /home/se170/VirtualBox-4.3.28/out/linux.amd64/debug/obj/VMMR3LazyImp/VMMR3LazyLoad.asm
  3465 000009B0 FF25(F4FFFFFF)          jmp qword [g_pfnSTAMR3Reset wrt rip]
  3466                                 [global STAMR3Reset_EndProc:function hidden]
  3467                                 %line 760+0 /home/se170/VirtualBox-4.3.28/out/linux.amd64/debug/obj/VMMR3LazyImp/VMMR3LazyLoad.asm
  3468                                 STAMR3Reset_EndProc:
  3469                                 [size STAMR3Reset STAMR3Reset_EndProc - STAMR3Reset]
  3470                                 [size STAMR3Reset_EndProc 0]
  3471 000009B6 CCCCCCCC                db 0xCC, 0xCC, 0xCC, 0xCC
  3472                                 %line 761+1 /home/se170/VirtualBox-4.3.28/out/linux.amd64/debug/obj/VMMR3LazyImp/VMMR3LazyLoad.asm
  3473                                 [global STAMR3Snapshot:function hidden]
  3474                                 %line 761+0 /home/se170/VirtualBox-4.3.28/out/linux.amd64/debug/obj/VMMR3LazyImp/VMMR3LazyLoad.asm
  3475                                 STAMR3Snapshot:
  3476                                 %line 762+1 /home/se170/VirtualBox-4.3.28/out/linux.amd64/debug/obj/VMMR3LazyImp/VMMR3LazyLoad.asm
  3477 000009BA FF25(F4FFFFFF)          jmp qword [g_pfnSTAMR3Snapshot wrt rip]
  3478                                 [global STAMR3Snapshot_EndProc:function hidden]
  3479                                 %line 763+0 /home/se170/VirtualBox-4.3.28/out/linux.amd64/debug/obj/VMMR3LazyImp/VMMR3LazyLoad.asm
  3480                                 STAMR3Snapshot_EndProc:
  3481                                 [size STAMR3Snapshot STAMR3Snapshot_EndProc - STAMR3Snapshot]
  3482                                 [size STAMR3Snapshot_EndProc 0]
  3483 000009C0 CCCCCCCC                db 0xCC, 0xCC, 0xCC, 0xCC
  3484                                 %line 764+1 /home/se170/VirtualBox-4.3.28/out/linux.amd64/debug/obj/VMMR3LazyImp/VMMR3LazyLoad.asm
  3485                                 [global STAMR3SnapshotFree:function hidden]
  3486                                 %line 764+0 /home/se170/VirtualBox-4.3.28/out/linux.amd64/debug/obj/VMMR3LazyImp/VMMR3LazyLoad.asm
  3487                                 STAMR3SnapshotFree:
  3488                                 %line 765+1 /home/se170/VirtualBox-4.3.28/out/linux.amd64/debug/obj/VMMR3LazyImp/VMMR3LazyLoad.asm
  3489 000009C4 FF25(F4FFFFFF)          jmp qword [g_pfnSTAMR3SnapshotFree wrt rip]
  3490                                 [global STAMR3SnapshotFree_EndProc:function hidden]
  3491                                 %line 766+0 /home/se170/VirtualBox-4.3.28/out/linux.amd64/debug/obj/VMMR3LazyImp/VMMR3LazyLoad.asm
  3492                                 STAMR3SnapshotFree_EndProc:
  3493                                 [size STAMR3SnapshotFree STAMR3SnapshotFree_EndProc - STAMR3SnapshotFree]
  3494                                 [size STAMR3SnapshotFree_EndProc 0]
  3495 000009CA CCCCCCCC                db 0xCC, 0xCC, 0xCC, 0xCC
  3496                                 %line 767+1 /home/se170/VirtualBox-4.3.28/out/linux.amd64/debug/obj/VMMR3LazyImp/VMMR3LazyLoad.asm
  3497                                 [global STAMR3GetUnit:function hidden]
  3498                                 %line 767+0 /home/se170/VirtualBox-4.3.28/out/linux.amd64/debug/obj/VMMR3LazyImp/VMMR3LazyLoad.asm
  3499                                 STAMR3GetUnit:
  3500                                 %line 768+1 /home/se170/VirtualBox-4.3.28/out/linux.amd64/debug/obj/VMMR3LazyImp/VMMR3LazyLoad.asm
  3501 000009CE FF25(F4FFFFFF)          jmp qword [g_pfnSTAMR3GetUnit wrt rip]
  3502                                 [global STAMR3GetUnit_EndProc:function hidden]
  3503                                 %line 769+0 /home/se170/VirtualBox-4.3.28/out/linux.amd64/debug/obj/VMMR3LazyImp/VMMR3LazyLoad.asm
  3504                                 STAMR3GetUnit_EndProc:
  3505                                 [size STAMR3GetUnit STAMR3GetUnit_EndProc - STAMR3GetUnit]
  3506                                 [size STAMR3GetUnit_EndProc 0]
  3507 000009D4 CCCCCCCC                db 0xCC, 0xCC, 0xCC, 0xCC
  3508                                 %line 770+1 /home/se170/VirtualBox-4.3.28/out/linux.amd64/debug/obj/VMMR3LazyImp/VMMR3LazyLoad.asm
  3509                                 [global TMR3TimerSetCritSect:function hidden]
  3510                                 %line 770+0 /home/se170/VirtualBox-4.3.28/out/linux.amd64/debug/obj/VMMR3LazyImp/VMMR3LazyLoad.asm
  3511                                 TMR3TimerSetCritSect:
  3512                                 %line 771+1 /home/se170/VirtualBox-4.3.28/out/linux.amd64/debug/obj/VMMR3LazyImp/VMMR3LazyLoad.asm
  3513 000009D8 FF25(F4FFFFFF)          jmp qword [g_pfnTMR3TimerSetCritSect wrt rip]
  3514                                 [global TMR3TimerSetCritSect_EndProc:function hidden]
  3515                                 %line 772+0 /home/se170/VirtualBox-4.3.28/out/linux.amd64/debug/obj/VMMR3LazyImp/VMMR3LazyLoad.asm
  3516                                 TMR3TimerSetCritSect_EndProc:
  3517                                 [size TMR3TimerSetCritSect TMR3TimerSetCritSect_EndProc - TMR3TimerSetCritSect]
  3518                                 [size TMR3TimerSetCritSect_EndProc 0]
  3519 000009DE CCCCCCCC                db 0xCC, 0xCC, 0xCC, 0xCC
  3520                                 %line 773+1 /home/se170/VirtualBox-4.3.28/out/linux.amd64/debug/obj/VMMR3LazyImp/VMMR3LazyLoad.asm
  3521                                 [global TMR3TimerLoad:function hidden]
  3522                                 %line 773+0 /home/se170/VirtualBox-4.3.28/out/linux.amd64/debug/obj/VMMR3LazyImp/VMMR3LazyLoad.asm
  3523                                 TMR3TimerLoad:
  3524                                 %line 774+1 /home/se170/VirtualBox-4.3.28/out/linux.amd64/debug/obj/VMMR3LazyImp/VMMR3LazyLoad.asm
  3525 000009E2 FF25(F4FFFFFF)          jmp qword [g_pfnTMR3TimerLoad wrt rip]
  3526                                 [global TMR3TimerLoad_EndProc:function hidden]
  3527                                 %line 775+0 /home/se170/VirtualBox-4.3.28/out/linux.amd64/debug/obj/VMMR3LazyImp/VMMR3LazyLoad.asm
  3528                                 TMR3TimerLoad_EndProc:
  3529                                 [size TMR3TimerLoad TMR3TimerLoad_EndProc - TMR3TimerLoad]
  3530                                 [size TMR3TimerLoad_EndProc 0]
  3531 000009E8 CCCCCCCC                db 0xCC, 0xCC, 0xCC, 0xCC
  3532                                 %line 776+1 /home/se170/VirtualBox-4.3.28/out/linux.amd64/debug/obj/VMMR3LazyImp/VMMR3LazyLoad.asm
  3533                                 [global TMR3TimerSave:function hidden]
  3534                                 %line 776+0 /home/se170/VirtualBox-4.3.28/out/linux.amd64/debug/obj/VMMR3LazyImp/VMMR3LazyLoad.asm
  3535                                 TMR3TimerSave:
  3536                                 %line 777+1 /home/se170/VirtualBox-4.3.28/out/linux.amd64/debug/obj/VMMR3LazyImp/VMMR3LazyLoad.asm
  3537 000009EC FF25(F4FFFFFF)          jmp qword [g_pfnTMR3TimerSave wrt rip]
  3538                                 [global TMR3TimerSave_EndProc:function hidden]
  3539                                 %line 778+0 /home/se170/VirtualBox-4.3.28/out/linux.amd64/debug/obj/VMMR3LazyImp/VMMR3LazyLoad.asm
  3540                                 TMR3TimerSave_EndProc:
  3541                                 [size TMR3TimerSave TMR3TimerSave_EndProc - TMR3TimerSave]
  3542                                 [size TMR3TimerSave_EndProc 0]
  3543 000009F2 CCCCCCCC                db 0xCC, 0xCC, 0xCC, 0xCC
  3544                                 %line 779+1 /home/se170/VirtualBox-4.3.28/out/linux.amd64/debug/obj/VMMR3LazyImp/VMMR3LazyLoad.asm
  3545                                 [global TMR3TimerDestroy:function hidden]
  3546                                 %line 779+0 /home/se170/VirtualBox-4.3.28/out/linux.amd64/debug/obj/VMMR3LazyImp/VMMR3LazyLoad.asm
  3547                                 TMR3TimerDestroy:
  3548                                 %line 780+1 /home/se170/VirtualBox-4.3.28/out/linux.amd64/debug/obj/VMMR3LazyImp/VMMR3LazyLoad.asm
  3549 000009F6 FF25(F4FFFFFF)          jmp qword [g_pfnTMR3TimerDestroy wrt rip]
  3550                                 [global TMR3TimerDestroy_EndProc:function hidden]
  3551                                 %line 781+0 /home/se170/VirtualBox-4.3.28/out/linux.amd64/debug/obj/VMMR3LazyImp/VMMR3LazyLoad.asm
  3552                                 TMR3TimerDestroy_EndProc:
  3553                                 [size TMR3TimerDestroy TMR3TimerDestroy_EndProc - TMR3TimerDestroy]
  3554                                 [size TMR3TimerDestroy_EndProc 0]
  3555 000009FC CCCCCCCC                db 0xCC, 0xCC, 0xCC, 0xCC
  3556                                 %line 782+1 /home/se170/VirtualBox-4.3.28/out/linux.amd64/debug/obj/VMMR3LazyImp/VMMR3LazyLoad.asm
  3557                                 [global TMTimerFromMicro:function hidden]
  3558                                 %line 782+0 /home/se170/VirtualBox-4.3.28/out/linux.amd64/debug/obj/VMMR3LazyImp/VMMR3LazyLoad.asm
  3559                                 TMTimerFromMicro:
  3560                                 %line 783+1 /home/se170/VirtualBox-4.3.28/out/linux.amd64/debug/obj/VMMR3LazyImp/VMMR3LazyLoad.asm
  3561 00000A00 FF25(F4FFFFFF)          jmp qword [g_pfnTMTimerFromMicro wrt rip]
  3562                                 [global TMTimerFromMicro_EndProc:function hidden]
  3563                                 %line 784+0 /home/se170/VirtualBox-4.3.28/out/linux.amd64/debug/obj/VMMR3LazyImp/VMMR3LazyLoad.asm
  3564                                 TMTimerFromMicro_EndProc:
  3565                                 [size TMTimerFromMicro TMTimerFromMicro_EndProc - TMTimerFromMicro]
  3566                                 [size TMTimerFromMicro_EndProc 0]
  3567 00000A06 CCCCCCCC                db 0xCC, 0xCC, 0xCC, 0xCC
  3568                                 %line 785+1 /home/se170/VirtualBox-4.3.28/out/linux.amd64/debug/obj/VMMR3LazyImp/VMMR3LazyLoad.asm
  3569                                 [global TMTimerFromMilli:function hidden]
  3570                                 %line 785+0 /home/se170/VirtualBox-4.3.28/out/linux.amd64/debug/obj/VMMR3LazyImp/VMMR3LazyLoad.asm
  3571                                 TMTimerFromMilli:
  3572                                 %line 786+1 /home/se170/VirtualBox-4.3.28/out/linux.amd64/debug/obj/VMMR3LazyImp/VMMR3LazyLoad.asm
  3573 00000A0A FF25(F4FFFFFF)          jmp qword [g_pfnTMTimerFromMilli wrt rip]
  3574                                 [global TMTimerFromMilli_EndProc:function hidden]
  3575                                 %line 787+0 /home/se170/VirtualBox-4.3.28/out/linux.amd64/debug/obj/VMMR3LazyImp/VMMR3LazyLoad.asm
  3576                                 TMTimerFromMilli_EndProc:
  3577                                 [size TMTimerFromMilli TMTimerFromMilli_EndProc - TMTimerFromMilli]
  3578                                 [size TMTimerFromMilli_EndProc 0]
  3579 00000A10 CCCCCCCC                db 0xCC, 0xCC, 0xCC, 0xCC
  3580                                 %line 788+1 /home/se170/VirtualBox-4.3.28/out/linux.amd64/debug/obj/VMMR3LazyImp/VMMR3LazyLoad.asm
  3581                                 [global TMTimerFromNano:function hidden]
  3582                                 %line 788+0 /home/se170/VirtualBox-4.3.28/out/linux.amd64/debug/obj/VMMR3LazyImp/VMMR3LazyLoad.asm
  3583                                 TMTimerFromNano:
  3584                                 %line 789+1 /home/se170/VirtualBox-4.3.28/out/linux.amd64/debug/obj/VMMR3LazyImp/VMMR3LazyLoad.asm
  3585 00000A14 FF25(F4FFFFFF)          jmp qword [g_pfnTMTimerFromNano wrt rip]
  3586                                 [global TMTimerFromNano_EndProc:function hidden]
  3587                                 %line 790+0 /home/se170/VirtualBox-4.3.28/out/linux.amd64/debug/obj/VMMR3LazyImp/VMMR3LazyLoad.asm
  3588                                 TMTimerFromNano_EndProc:
  3589                                 [size TMTimerFromNano TMTimerFromNano_EndProc - TMTimerFromNano]
  3590                                 [size TMTimerFromNano_EndProc 0]
  3591 00000A1A CCCCCCCC                db 0xCC, 0xCC, 0xCC, 0xCC
  3592                                 %line 791+1 /home/se170/VirtualBox-4.3.28/out/linux.amd64/debug/obj/VMMR3LazyImp/VMMR3LazyLoad.asm
  3593                                 [global TMTimerGet:function hidden]
  3594                                 %line 791+0 /home/se170/VirtualBox-4.3.28/out/linux.amd64/debug/obj/VMMR3LazyImp/VMMR3LazyLoad.asm
  3595                                 TMTimerGet:
  3596                                 %line 792+1 /home/se170/VirtualBox-4.3.28/out/linux.amd64/debug/obj/VMMR3LazyImp/VMMR3LazyLoad.asm
  3597 00000A1E FF25(F4FFFFFF)          jmp qword [g_pfnTMTimerGet wrt rip]
  3598                                 [global TMTimerGet_EndProc:function hidden]
  3599                                 %line 793+0 /home/se170/VirtualBox-4.3.28/out/linux.amd64/debug/obj/VMMR3LazyImp/VMMR3LazyLoad.asm
  3600                                 TMTimerGet_EndProc:
  3601                                 [size TMTimerGet TMTimerGet_EndProc - TMTimerGet]
  3602                                 [size TMTimerGet_EndProc 0]
  3603 00000A24 CCCCCCCC                db 0xCC, 0xCC, 0xCC, 0xCC
  3604                                 %line 794+1 /home/se170/VirtualBox-4.3.28/out/linux.amd64/debug/obj/VMMR3LazyImp/VMMR3LazyLoad.asm
  3605                                 [global TMTimerGetFreq:function hidden]
  3606                                 %line 794+0 /home/se170/VirtualBox-4.3.28/out/linux.amd64/debug/obj/VMMR3LazyImp/VMMR3LazyLoad.asm
  3607                                 TMTimerGetFreq:
  3608                                 %line 795+1 /home/se170/VirtualBox-4.3.28/out/linux.amd64/debug/obj/VMMR3LazyImp/VMMR3LazyLoad.asm
  3609 00000A28 FF25(F4FFFFFF)          jmp qword [g_pfnTMTimerGetFreq wrt rip]
  3610                                 [global TMTimerGetFreq_EndProc:function hidden]
  3611                                 %line 796+0 /home/se170/VirtualBox-4.3.28/out/linux.amd64/debug/obj/VMMR3LazyImp/VMMR3LazyLoad.asm
  3612                                 TMTimerGetFreq_EndProc:
  3613                                 [size TMTimerGetFreq TMTimerGetFreq_EndProc - TMTimerGetFreq]
  3614                                 [size TMTimerGetFreq_EndProc 0]
  3615 00000A2E CCCCCCCC                db 0xCC, 0xCC, 0xCC, 0xCC
  3616                                 %line 797+1 /home/se170/VirtualBox-4.3.28/out/linux.amd64/debug/obj/VMMR3LazyImp/VMMR3LazyLoad.asm
  3617                                 [global TMTimerGetMicro:function hidden]
  3618                                 %line 797+0 /home/se170/VirtualBox-4.3.28/out/linux.amd64/debug/obj/VMMR3LazyImp/VMMR3LazyLoad.asm
  3619                                 TMTimerGetMicro:
  3620                                 %line 798+1 /home/se170/VirtualBox-4.3.28/out/linux.amd64/debug/obj/VMMR3LazyImp/VMMR3LazyLoad.asm
  3621 00000A32 FF25(F4FFFFFF)          jmp qword [g_pfnTMTimerGetMicro wrt rip]
  3622                                 [global TMTimerGetMicro_EndProc:function hidden]
  3623                                 %line 799+0 /home/se170/VirtualBox-4.3.28/out/linux.amd64/debug/obj/VMMR3LazyImp/VMMR3LazyLoad.asm
  3624                                 TMTimerGetMicro_EndProc:
  3625                                 [size TMTimerGetMicro TMTimerGetMicro_EndProc - TMTimerGetMicro]
  3626                                 [size TMTimerGetMicro_EndProc 0]
  3627 00000A38 CCCCCCCC                db 0xCC, 0xCC, 0xCC, 0xCC
  3628                                 %line 800+1 /home/se170/VirtualBox-4.3.28/out/linux.amd64/debug/obj/VMMR3LazyImp/VMMR3LazyLoad.asm
  3629                                 [global TMTimerGetMilli:function hidden]
  3630                                 %line 800+0 /home/se170/VirtualBox-4.3.28/out/linux.amd64/debug/obj/VMMR3LazyImp/VMMR3LazyLoad.asm
  3631                                 TMTimerGetMilli:
  3632                                 %line 801+1 /home/se170/VirtualBox-4.3.28/out/linux.amd64/debug/obj/VMMR3LazyImp/VMMR3LazyLoad.asm
  3633 00000A3C FF25(F4FFFFFF)          jmp qword [g_pfnTMTimerGetMilli wrt rip]
  3634                                 [global TMTimerGetMilli_EndProc:function hidden]
  3635                                 %line 802+0 /home/se170/VirtualBox-4.3.28/out/linux.amd64/debug/obj/VMMR3LazyImp/VMMR3LazyLoad.asm
  3636                                 TMTimerGetMilli_EndProc:
  3637                                 [size TMTimerGetMilli TMTimerGetMilli_EndProc - TMTimerGetMilli]
  3638                                 [size TMTimerGetMilli_EndProc 0]
  3639 00000A42 CCCCCCCC                db 0xCC, 0xCC, 0xCC, 0xCC
  3640                                 %line 803+1 /home/se170/VirtualBox-4.3.28/out/linux.amd64/debug/obj/VMMR3LazyImp/VMMR3LazyLoad.asm
  3641                                 [global TMTimerGetNano:function hidden]
  3642                                 %line 803+0 /home/se170/VirtualBox-4.3.28/out/linux.amd64/debug/obj/VMMR3LazyImp/VMMR3LazyLoad.asm
  3643                                 TMTimerGetNano:
  3644                                 %line 804+1 /home/se170/VirtualBox-4.3.28/out/linux.amd64/debug/obj/VMMR3LazyImp/VMMR3LazyLoad.asm
  3645 00000A46 FF25(F4FFFFFF)          jmp qword [g_pfnTMTimerGetNano wrt rip]
  3646                                 [global TMTimerGetNano_EndProc:function hidden]
  3647                                 %line 805+0 /home/se170/VirtualBox-4.3.28/out/linux.amd64/debug/obj/VMMR3LazyImp/VMMR3LazyLoad.asm
  3648                                 TMTimerGetNano_EndProc:
  3649                                 [size TMTimerGetNano TMTimerGetNano_EndProc - TMTimerGetNano]
  3650                                 [size TMTimerGetNano_EndProc 0]
  3651 00000A4C CCCCCCCC                db 0xCC, 0xCC, 0xCC, 0xCC
  3652                                 %line 806+1 /home/se170/VirtualBox-4.3.28/out/linux.amd64/debug/obj/VMMR3LazyImp/VMMR3LazyLoad.asm
  3653                                 [global TMTimerIsActive:function hidden]
  3654                                 %line 806+0 /home/se170/VirtualBox-4.3.28/out/linux.amd64/debug/obj/VMMR3LazyImp/VMMR3LazyLoad.asm
  3655                                 TMTimerIsActive:
  3656                                 %line 807+1 /home/se170/VirtualBox-4.3.28/out/linux.amd64/debug/obj/VMMR3LazyImp/VMMR3LazyLoad.asm
  3657 00000A50 FF25(F4FFFFFF)          jmp qword [g_pfnTMTimerIsActive wrt rip]
  3658                                 [global TMTimerIsActive_EndProc:function hidden]
  3659                                 %line 808+0 /home/se170/VirtualBox-4.3.28/out/linux.amd64/debug/obj/VMMR3LazyImp/VMMR3LazyLoad.asm
  3660                                 TMTimerIsActive_EndProc:
  3661                                 [size TMTimerIsActive TMTimerIsActive_EndProc - TMTimerIsActive]
  3662                                 [size TMTimerIsActive_EndProc 0]
  3663 00000A56 CCCCCCCC                db 0xCC, 0xCC, 0xCC, 0xCC
  3664                                 %line 809+1 /home/se170/VirtualBox-4.3.28/out/linux.amd64/debug/obj/VMMR3LazyImp/VMMR3LazyLoad.asm
  3665                                 [global TMTimerIsLockOwner:function hidden]
  3666                                 %line 809+0 /home/se170/VirtualBox-4.3.28/out/linux.amd64/debug/obj/VMMR3LazyImp/VMMR3LazyLoad.asm
  3667                                 TMTimerIsLockOwner:
  3668                                 %line 810+1 /home/se170/VirtualBox-4.3.28/out/linux.amd64/debug/obj/VMMR3LazyImp/VMMR3LazyLoad.asm
  3669 00000A5A FF25(F4FFFFFF)          jmp qword [g_pfnTMTimerIsLockOwner wrt rip]
  3670                                 [global TMTimerIsLockOwner_EndProc:function hidden]
  3671                                 %line 811+0 /home/se170/VirtualBox-4.3.28/out/linux.amd64/debug/obj/VMMR3LazyImp/VMMR3LazyLoad.asm
  3672                                 TMTimerIsLockOwner_EndProc:
  3673                                 [size TMTimerIsLockOwner TMTimerIsLockOwner_EndProc - TMTimerIsLockOwner]
  3674                                 [size TMTimerIsLockOwner_EndProc 0]
  3675 00000A60 CCCCCCCC                db 0xCC, 0xCC, 0xCC, 0xCC
  3676                                 %line 812+1 /home/se170/VirtualBox-4.3.28/out/linux.amd64/debug/obj/VMMR3LazyImp/VMMR3LazyLoad.asm
  3677                                 [global TMTimerLock:function hidden]
  3678                                 %line 812+0 /home/se170/VirtualBox-4.3.28/out/linux.amd64/debug/obj/VMMR3LazyImp/VMMR3LazyLoad.asm
  3679                                 TMTimerLock:
  3680                                 %line 813+1 /home/se170/VirtualBox-4.3.28/out/linux.amd64/debug/obj/VMMR3LazyImp/VMMR3LazyLoad.asm
  3681 00000A64 FF25(F4FFFFFF)          jmp qword [g_pfnTMTimerLock wrt rip]
  3682                                 [global TMTimerLock_EndProc:function hidden]
  3683                                 %line 814+0 /home/se170/VirtualBox-4.3.28/out/linux.amd64/debug/obj/VMMR3LazyImp/VMMR3LazyLoad.asm
  3684                                 TMTimerLock_EndProc:
  3685                                 [size TMTimerLock TMTimerLock_EndProc - TMTimerLock]
  3686                                 [size TMTimerLock_EndProc 0]
  3687 00000A6A CCCCCCCC                db 0xCC, 0xCC, 0xCC, 0xCC
  3688                                 %line 815+1 /home/se170/VirtualBox-4.3.28/out/linux.amd64/debug/obj/VMMR3LazyImp/VMMR3LazyLoad.asm
  3689                                 [global TMTimerR0Ptr:function hidden]
  3690                                 %line 815+0 /home/se170/VirtualBox-4.3.28/out/linux.amd64/debug/obj/VMMR3LazyImp/VMMR3LazyLoad.asm
  3691                                 TMTimerR0Ptr:
  3692                                 %line 816+1 /home/se170/VirtualBox-4.3.28/out/linux.amd64/debug/obj/VMMR3LazyImp/VMMR3LazyLoad.asm
  3693 00000A6E FF25(F4FFFFFF)          jmp qword [g_pfnTMTimerR0Ptr wrt rip]
  3694                                 [global TMTimerR0Ptr_EndProc:function hidden]
  3695                                 %line 817+0 /home/se170/VirtualBox-4.3.28/out/linux.amd64/debug/obj/VMMR3LazyImp/VMMR3LazyLoad.asm
  3696                                 TMTimerR0Ptr_EndProc:
  3697                                 [size TMTimerR0Ptr TMTimerR0Ptr_EndProc - TMTimerR0Ptr]
  3698                                 [size TMTimerR0Ptr_EndProc 0]
  3699 00000A74 CCCCCCCC                db 0xCC, 0xCC, 0xCC, 0xCC
  3700                                 %line 818+1 /home/se170/VirtualBox-4.3.28/out/linux.amd64/debug/obj/VMMR3LazyImp/VMMR3LazyLoad.asm
  3701                                 [global TMTimerR3Ptr:function hidden]
  3702                                 %line 818+0 /home/se170/VirtualBox-4.3.28/out/linux.amd64/debug/obj/VMMR3LazyImp/VMMR3LazyLoad.asm
  3703                                 TMTimerR3Ptr:
  3704                                 %line 819+1 /home/se170/VirtualBox-4.3.28/out/linux.amd64/debug/obj/VMMR3LazyImp/VMMR3LazyLoad.asm
  3705 00000A78 FF25(F4FFFFFF)          jmp qword [g_pfnTMTimerR3Ptr wrt rip]
  3706                                 [global TMTimerR3Ptr_EndProc:function hidden]
  3707                                 %line 820+0 /home/se170/VirtualBox-4.3.28/out/linux.amd64/debug/obj/VMMR3LazyImp/VMMR3LazyLoad.asm
  3708                                 TMTimerR3Ptr_EndProc:
  3709                                 [size TMTimerR3Ptr TMTimerR3Ptr_EndProc - TMTimerR3Ptr]
  3710                                 [size TMTimerR3Ptr_EndProc 0]
  3711 00000A7E CCCCCCCC                db 0xCC, 0xCC, 0xCC, 0xCC
  3712                                 %line 821+1 /home/se170/VirtualBox-4.3.28/out/linux.amd64/debug/obj/VMMR3LazyImp/VMMR3LazyLoad.asm
  3713                                 [global TMTimerRCPtr:function hidden]
  3714                                 %line 821+0 /home/se170/VirtualBox-4.3.28/out/linux.amd64/debug/obj/VMMR3LazyImp/VMMR3LazyLoad.asm
  3715                                 TMTimerRCPtr:
  3716                                 %line 822+1 /home/se170/VirtualBox-4.3.28/out/linux.amd64/debug/obj/VMMR3LazyImp/VMMR3LazyLoad.asm
  3717 00000A82 FF25(F4FFFFFF)          jmp qword [g_pfnTMTimerRCPtr wrt rip]
  3718                                 [global TMTimerRCPtr_EndProc:function hidden]
  3719                                 %line 823+0 /home/se170/VirtualBox-4.3.28/out/linux.amd64/debug/obj/VMMR3LazyImp/VMMR3LazyLoad.asm
  3720                                 TMTimerRCPtr_EndProc:
  3721                                 [size TMTimerRCPtr TMTimerRCPtr_EndProc - TMTimerRCPtr]
  3722                                 [size TMTimerRCPtr_EndProc 0]
  3723 00000A88 CCCCCCCC                db 0xCC, 0xCC, 0xCC, 0xCC
  3724                                 %line 824+1 /home/se170/VirtualBox-4.3.28/out/linux.amd64/debug/obj/VMMR3LazyImp/VMMR3LazyLoad.asm
  3725                                 [global TMTimerSet:function hidden]
  3726                                 %line 824+0 /home/se170/VirtualBox-4.3.28/out/linux.amd64/debug/obj/VMMR3LazyImp/VMMR3LazyLoad.asm
  3727                                 TMTimerSet:
  3728                                 %line 825+1 /home/se170/VirtualBox-4.3.28/out/linux.amd64/debug/obj/VMMR3LazyImp/VMMR3LazyLoad.asm
  3729 00000A8C FF25(F4FFFFFF)          jmp qword [g_pfnTMTimerSet wrt rip]
  3730                                 [global TMTimerSet_EndProc:function hidden]
  3731                                 %line 826+0 /home/se170/VirtualBox-4.3.28/out/linux.amd64/debug/obj/VMMR3LazyImp/VMMR3LazyLoad.asm
  3732                                 TMTimerSet_EndProc:
  3733                                 [size TMTimerSet TMTimerSet_EndProc - TMTimerSet]
  3734                                 [size TMTimerSet_EndProc 0]
  3735 00000A92 CCCCCCCC                db 0xCC, 0xCC, 0xCC, 0xCC
  3736                                 %line 827+1 /home/se170/VirtualBox-4.3.28/out/linux.amd64/debug/obj/VMMR3LazyImp/VMMR3LazyLoad.asm
  3737                                 [global TMTimerSetFrequencyHint:function hidden]
  3738                                 %line 827+0 /home/se170/VirtualBox-4.3.28/out/linux.amd64/debug/obj/VMMR3LazyImp/VMMR3LazyLoad.asm
  3739                                 TMTimerSetFrequencyHint:
  3740                                 %line 828+1 /home/se170/VirtualBox-4.3.28/out/linux.amd64/debug/obj/VMMR3LazyImp/VMMR3LazyLoad.asm
  3741 00000A96 FF25(F4FFFFFF)          jmp qword [g_pfnTMTimerSetFrequencyHint wrt rip]
  3742                                 [global TMTimerSetFrequencyHint_EndProc:function hidden]
  3743                                 %line 829+0 /home/se170/VirtualBox-4.3.28/out/linux.amd64/debug/obj/VMMR3LazyImp/VMMR3LazyLoad.asm
  3744                                 TMTimerSetFrequencyHint_EndProc:
  3745                                 [size TMTimerSetFrequencyHint TMTimerSetFrequencyHint_EndProc - TMTimerSetFrequencyHint]
  3746                                 [size TMTimerSetFrequencyHint_EndProc 0]
  3747 00000A9C CCCCCCCC                db 0xCC, 0xCC, 0xCC, 0xCC
  3748                                 %line 830+1 /home/se170/VirtualBox-4.3.28/out/linux.amd64/debug/obj/VMMR3LazyImp/VMMR3LazyLoad.asm
  3749                                 [global TMTimerSetMicro:function hidden]
  3750                                 %line 830+0 /home/se170/VirtualBox-4.3.28/out/linux.amd64/debug/obj/VMMR3LazyImp/VMMR3LazyLoad.asm
  3751                                 TMTimerSetMicro:
  3752                                 %line 831+1 /home/se170/VirtualBox-4.3.28/out/linux.amd64/debug/obj/VMMR3LazyImp/VMMR3LazyLoad.asm
  3753 00000AA0 FF25(F4FFFFFF)          jmp qword [g_pfnTMTimerSetMicro wrt rip]
  3754                                 [global TMTimerSetMicro_EndProc:function hidden]
  3755                                 %line 832+0 /home/se170/VirtualBox-4.3.28/out/linux.amd64/debug/obj/VMMR3LazyImp/VMMR3LazyLoad.asm
  3756                                 TMTimerSetMicro_EndProc:
  3757                                 [size TMTimerSetMicro TMTimerSetMicro_EndProc - TMTimerSetMicro]
  3758                                 [size TMTimerSetMicro_EndProc 0]
  3759 00000AA6 CCCCCCCC                db 0xCC, 0xCC, 0xCC, 0xCC
  3760                                 %line 833+1 /home/se170/VirtualBox-4.3.28/out/linux.amd64/debug/obj/VMMR3LazyImp/VMMR3LazyLoad.asm
  3761                                 [global TMTimerSetMillies:function hidden]
  3762                                 %line 833+0 /home/se170/VirtualBox-4.3.28/out/linux.amd64/debug/obj/VMMR3LazyImp/VMMR3LazyLoad.asm
  3763                                 TMTimerSetMillies:
  3764                                 %line 834+1 /home/se170/VirtualBox-4.3.28/out/linux.amd64/debug/obj/VMMR3LazyImp/VMMR3LazyLoad.asm
  3765 00000AAA FF25(F4FFFFFF)          jmp qword [g_pfnTMTimerSetMillies wrt rip]
  3766                                 [global TMTimerSetMillies_EndProc:function hidden]
  3767                                 %line 835+0 /home/se170/VirtualBox-4.3.28/out/linux.amd64/debug/obj/VMMR3LazyImp/VMMR3LazyLoad.asm
  3768                                 TMTimerSetMillies_EndProc:
  3769                                 [size TMTimerSetMillies TMTimerSetMillies_EndProc - TMTimerSetMillies]
  3770                                 [size TMTimerSetMillies_EndProc 0]
  3771 00000AB0 CCCCCCCC                db 0xCC, 0xCC, 0xCC, 0xCC
  3772                                 %line 836+1 /home/se170/VirtualBox-4.3.28/out/linux.amd64/debug/obj/VMMR3LazyImp/VMMR3LazyLoad.asm
  3773                                 [global TMTimerSetNano:function hidden]
  3774                                 %line 836+0 /home/se170/VirtualBox-4.3.28/out/linux.amd64/debug/obj/VMMR3LazyImp/VMMR3LazyLoad.asm
  3775                                 TMTimerSetNano:
  3776                                 %line 837+1 /home/se170/VirtualBox-4.3.28/out/linux.amd64/debug/obj/VMMR3LazyImp/VMMR3LazyLoad.asm
  3777 00000AB4 FF25(F4FFFFFF)          jmp qword [g_pfnTMTimerSetNano wrt rip]
  3778                                 [global TMTimerSetNano_EndProc:function hidden]
  3779                                 %line 838+0 /home/se170/VirtualBox-4.3.28/out/linux.amd64/debug/obj/VMMR3LazyImp/VMMR3LazyLoad.asm
  3780                                 TMTimerSetNano_EndProc:
  3781                                 [size TMTimerSetNano TMTimerSetNano_EndProc - TMTimerSetNano]
  3782                                 [size TMTimerSetNano_EndProc 0]
  3783 00000ABA CCCCCCCC                db 0xCC, 0xCC, 0xCC, 0xCC
  3784                                 %line 839+1 /home/se170/VirtualBox-4.3.28/out/linux.amd64/debug/obj/VMMR3LazyImp/VMMR3LazyLoad.asm
  3785                                 [global TMTimerSetRelative:function hidden]
  3786                                 %line 839+0 /home/se170/VirtualBox-4.3.28/out/linux.amd64/debug/obj/VMMR3LazyImp/VMMR3LazyLoad.asm
  3787                                 TMTimerSetRelative:
  3788                                 %line 840+1 /home/se170/VirtualBox-4.3.28/out/linux.amd64/debug/obj/VMMR3LazyImp/VMMR3LazyLoad.asm
  3789 00000ABE FF25(F4FFFFFF)          jmp qword [g_pfnTMTimerSetRelative wrt rip]
  3790                                 [global TMTimerSetRelative_EndProc:function hidden]
  3791                                 %line 841+0 /home/se170/VirtualBox-4.3.28/out/linux.amd64/debug/obj/VMMR3LazyImp/VMMR3LazyLoad.asm
  3792                                 TMTimerSetRelative_EndProc:
  3793                                 [size TMTimerSetRelative TMTimerSetRelative_EndProc - TMTimerSetRelative]
  3794                                 [size TMTimerSetRelative_EndProc 0]
  3795 00000AC4 CCCCCCCC                db 0xCC, 0xCC, 0xCC, 0xCC
  3796                                 %line 842+1 /home/se170/VirtualBox-4.3.28/out/linux.amd64/debug/obj/VMMR3LazyImp/VMMR3LazyLoad.asm
  3797                                 [global TMTimerStop:function hidden]
  3798                                 %line 842+0 /home/se170/VirtualBox-4.3.28/out/linux.amd64/debug/obj/VMMR3LazyImp/VMMR3LazyLoad.asm
  3799                                 TMTimerStop:
  3800                                 %line 843+1 /home/se170/VirtualBox-4.3.28/out/linux.amd64/debug/obj/VMMR3LazyImp/VMMR3LazyLoad.asm
  3801 00000AC8 FF25(F4FFFFFF)          jmp qword [g_pfnTMTimerStop wrt rip]
  3802                                 [global TMTimerStop_EndProc:function hidden]
  3803                                 %line 844+0 /home/se170/VirtualBox-4.3.28/out/linux.amd64/debug/obj/VMMR3LazyImp/VMMR3LazyLoad.asm
  3804                                 TMTimerStop_EndProc:
  3805                                 [size TMTimerStop TMTimerStop_EndProc - TMTimerStop]
  3806                                 [size TMTimerStop_EndProc 0]
  3807 00000ACE CCCCCCCC                db 0xCC, 0xCC, 0xCC, 0xCC
  3808                                 %line 845+1 /home/se170/VirtualBox-4.3.28/out/linux.amd64/debug/obj/VMMR3LazyImp/VMMR3LazyLoad.asm
  3809                                 [global TMTimerToMicro:function hidden]
  3810                                 %line 845+0 /home/se170/VirtualBox-4.3.28/out/linux.amd64/debug/obj/VMMR3LazyImp/VMMR3LazyLoad.asm
  3811                                 TMTimerToMicro:
  3812                                 %line 846+1 /home/se170/VirtualBox-4.3.28/out/linux.amd64/debug/obj/VMMR3LazyImp/VMMR3LazyLoad.asm
  3813 00000AD2 FF25(F4FFFFFF)          jmp qword [g_pfnTMTimerToMicro wrt rip]
  3814                                 [global TMTimerToMicro_EndProc:function hidden]
  3815                                 %line 847+0 /home/se170/VirtualBox-4.3.28/out/linux.amd64/debug/obj/VMMR3LazyImp/VMMR3LazyLoad.asm
  3816                                 TMTimerToMicro_EndProc:
  3817                                 [size TMTimerToMicro TMTimerToMicro_EndProc - TMTimerToMicro]
  3818                                 [size TMTimerToMicro_EndProc 0]
  3819 00000AD8 CCCCCCCC                db 0xCC, 0xCC, 0xCC, 0xCC
  3820                                 %line 848+1 /home/se170/VirtualBox-4.3.28/out/linux.amd64/debug/obj/VMMR3LazyImp/VMMR3LazyLoad.asm
  3821                                 [global TMTimerToMilli:function hidden]
  3822                                 %line 848+0 /home/se170/VirtualBox-4.3.28/out/linux.amd64/debug/obj/VMMR3LazyImp/VMMR3LazyLoad.asm
  3823                                 TMTimerToMilli:
  3824                                 %line 849+1 /home/se170/VirtualBox-4.3.28/out/linux.amd64/debug/obj/VMMR3LazyImp/VMMR3LazyLoad.asm
  3825 00000ADC FF25(F4FFFFFF)          jmp qword [g_pfnTMTimerToMilli wrt rip]
  3826                                 [global TMTimerToMilli_EndProc:function hidden]
  3827                                 %line 850+0 /home/se170/VirtualBox-4.3.28/out/linux.amd64/debug/obj/VMMR3LazyImp/VMMR3LazyLoad.asm
  3828                                 TMTimerToMilli_EndProc:
  3829                                 [size TMTimerToMilli TMTimerToMilli_EndProc - TMTimerToMilli]
  3830                                 [size TMTimerToMilli_EndProc 0]
  3831 00000AE2 CCCCCCCC                db 0xCC, 0xCC, 0xCC, 0xCC
  3832                                 %line 851+1 /home/se170/VirtualBox-4.3.28/out/linux.amd64/debug/obj/VMMR3LazyImp/VMMR3LazyLoad.asm
  3833                                 [global TMTimerToNano:function hidden]
  3834                                 %line 851+0 /home/se170/VirtualBox-4.3.28/out/linux.amd64/debug/obj/VMMR3LazyImp/VMMR3LazyLoad.asm
  3835                                 TMTimerToNano:
  3836                                 %line 852+1 /home/se170/VirtualBox-4.3.28/out/linux.amd64/debug/obj/VMMR3LazyImp/VMMR3LazyLoad.asm
  3837 00000AE6 FF25(F4FFFFFF)          jmp qword [g_pfnTMTimerToNano wrt rip]
  3838                                 [global TMTimerToNano_EndProc:function hidden]
  3839                                 %line 853+0 /home/se170/VirtualBox-4.3.28/out/linux.amd64/debug/obj/VMMR3LazyImp/VMMR3LazyLoad.asm
  3840                                 TMTimerToNano_EndProc:
  3841                                 [size TMTimerToNano TMTimerToNano_EndProc - TMTimerToNano]
  3842                                 [size TMTimerToNano_EndProc 0]
  3843 00000AEC CCCCCCCC                db 0xCC, 0xCC, 0xCC, 0xCC
  3844                                 %line 854+1 /home/se170/VirtualBox-4.3.28/out/linux.amd64/debug/obj/VMMR3LazyImp/VMMR3LazyLoad.asm
  3845                                 [global TMTimerUnlock:function hidden]
  3846                                 %line 854+0 /home/se170/VirtualBox-4.3.28/out/linux.amd64/debug/obj/VMMR3LazyImp/VMMR3LazyLoad.asm
  3847                                 TMTimerUnlock:
  3848                                 %line 855+1 /home/se170/VirtualBox-4.3.28/out/linux.amd64/debug/obj/VMMR3LazyImp/VMMR3LazyLoad.asm
  3849 00000AF0 FF25(F4FFFFFF)          jmp qword [g_pfnTMTimerUnlock wrt rip]
  3850                                 [global TMTimerUnlock_EndProc:function hidden]
  3851                                 %line 856+0 /home/se170/VirtualBox-4.3.28/out/linux.amd64/debug/obj/VMMR3LazyImp/VMMR3LazyLoad.asm
  3852                                 TMTimerUnlock_EndProc:
  3853                                 [size TMTimerUnlock TMTimerUnlock_EndProc - TMTimerUnlock]
  3854                                 [size TMTimerUnlock_EndProc 0]
  3855 00000AF6 CCCCCCCC                db 0xCC, 0xCC, 0xCC, 0xCC
  3856                                 %line 857+1 /home/se170/VirtualBox-4.3.28/out/linux.amd64/debug/obj/VMMR3LazyImp/VMMR3LazyLoad.asm
  3857                                 [global TMR3GetWarpDrive:function hidden]
  3858                                 %line 857+0 /home/se170/VirtualBox-4.3.28/out/linux.amd64/debug/obj/VMMR3LazyImp/VMMR3LazyLoad.asm
  3859                                 TMR3GetWarpDrive:
  3860                                 %line 858+1 /home/se170/VirtualBox-4.3.28/out/linux.amd64/debug/obj/VMMR3LazyImp/VMMR3LazyLoad.asm
  3861 00000AFA FF25(F4FFFFFF)          jmp qword [g_pfnTMR3GetWarpDrive wrt rip]
  3862                                 [global TMR3GetWarpDrive_EndProc:function hidden]
  3863                                 %line 859+0 /home/se170/VirtualBox-4.3.28/out/linux.amd64/debug/obj/VMMR3LazyImp/VMMR3LazyLoad.asm
  3864                                 TMR3GetWarpDrive_EndProc:
  3865                                 [size TMR3GetWarpDrive TMR3GetWarpDrive_EndProc - TMR3GetWarpDrive]
  3866                                 [size TMR3GetWarpDrive_EndProc 0]
  3867 00000B00 CCCCCCCC                db 0xCC, 0xCC, 0xCC, 0xCC
  3868                                 %line 860+1 /home/se170/VirtualBox-4.3.28/out/linux.amd64/debug/obj/VMMR3LazyImp/VMMR3LazyLoad.asm
  3869                                 [global TMR3SetWarpDrive:function hidden]
  3870                                 %line 860+0 /home/se170/VirtualBox-4.3.28/out/linux.amd64/debug/obj/VMMR3LazyImp/VMMR3LazyLoad.asm
  3871                                 TMR3SetWarpDrive:
  3872                                 %line 861+1 /home/se170/VirtualBox-4.3.28/out/linux.amd64/debug/obj/VMMR3LazyImp/VMMR3LazyLoad.asm
  3873 00000B04 FF25(F4FFFFFF)          jmp qword [g_pfnTMR3SetWarpDrive wrt rip]
  3874                                 [global TMR3SetWarpDrive_EndProc:function hidden]
  3875                                 %line 862+0 /home/se170/VirtualBox-4.3.28/out/linux.amd64/debug/obj/VMMR3LazyImp/VMMR3LazyLoad.asm
  3876                                 TMR3SetWarpDrive_EndProc:
  3877                                 [size TMR3SetWarpDrive TMR3SetWarpDrive_EndProc - TMR3SetWarpDrive]
  3878                                 [size TMR3SetWarpDrive_EndProc 0]
  3879 00000B0A CCCCCCCC                db 0xCC, 0xCC, 0xCC, 0xCC
  3880                                 %line 863+1 /home/se170/VirtualBox-4.3.28/out/linux.amd64/debug/obj/VMMR3LazyImp/VMMR3LazyLoad.asm
  3881                                 [global VMMGetCpu:function hidden]
  3882                                 %line 863+0 /home/se170/VirtualBox-4.3.28/out/linux.amd64/debug/obj/VMMR3LazyImp/VMMR3LazyLoad.asm
  3883                                 VMMGetCpu:
  3884                                 %line 864+1 /home/se170/VirtualBox-4.3.28/out/linux.amd64/debug/obj/VMMR3LazyImp/VMMR3LazyLoad.asm
  3885 00000B0E FF25(F4FFFFFF)          jmp qword [g_pfnVMMGetCpu wrt rip]
  3886                                 [global VMMGetCpu_EndProc:function hidden]
  3887                                 %line 865+0 /home/se170/VirtualBox-4.3.28/out/linux.amd64/debug/obj/VMMR3LazyImp/VMMR3LazyLoad.asm
  3888                                 VMMGetCpu_EndProc:
  3889                                 [size VMMGetCpu VMMGetCpu_EndProc - VMMGetCpu]
  3890                                 [size VMMGetCpu_EndProc 0]
  3891 00000B14 CCCCCCCC                db 0xCC, 0xCC, 0xCC, 0xCC
  3892                                 %line 866+1 /home/se170/VirtualBox-4.3.28/out/linux.amd64/debug/obj/VMMR3LazyImp/VMMR3LazyLoad.asm
  3893                                 [global VMMGetSvnRev:function hidden]
  3894                                 %line 866+0 /home/se170/VirtualBox-4.3.28/out/linux.amd64/debug/obj/VMMR3LazyImp/VMMR3LazyLoad.asm
  3895                                 VMMGetSvnRev:
  3896                                 %line 867+1 /home/se170/VirtualBox-4.3.28/out/linux.amd64/debug/obj/VMMR3LazyImp/VMMR3LazyLoad.asm
  3897 00000B18 FF25(F4FFFFFF)          jmp qword [g_pfnVMMGetSvnRev wrt rip]
  3898                                 [global VMMGetSvnRev_EndProc:function hidden]
  3899                                 %line 868+0 /home/se170/VirtualBox-4.3.28/out/linux.amd64/debug/obj/VMMR3LazyImp/VMMR3LazyLoad.asm
  3900                                 VMMGetSvnRev_EndProc:
  3901                                 [size VMMGetSvnRev VMMGetSvnRev_EndProc - VMMGetSvnRev]
  3902                                 [size VMMGetSvnRev_EndProc 0]
  3903 00000B1E CCCCCCCC                db 0xCC, 0xCC, 0xCC, 0xCC
  3904                                 %line 869+1 /home/se170/VirtualBox-4.3.28/out/linux.amd64/debug/obj/VMMR3LazyImp/VMMR3LazyLoad.asm
  3905                                 [global VMSetError:function hidden]
  3906                                 %line 869+0 /home/se170/VirtualBox-4.3.28/out/linux.amd64/debug/obj/VMMR3LazyImp/VMMR3LazyLoad.asm
  3907                                 VMSetError:
  3908                                 %line 870+1 /home/se170/VirtualBox-4.3.28/out/linux.amd64/debug/obj/VMMR3LazyImp/VMMR3LazyLoad.asm
  3909 00000B22 FF25(F4FFFFFF)          jmp qword [g_pfnVMSetError wrt rip]
  3910                                 [global VMSetError_EndProc:function hidden]
  3911                                 %line 871+0 /home/se170/VirtualBox-4.3.28/out/linux.amd64/debug/obj/VMMR3LazyImp/VMMR3LazyLoad.asm
  3912                                 VMSetError_EndProc:
  3913                                 [size VMSetError VMSetError_EndProc - VMSetError]
  3914                                 [size VMSetError_EndProc 0]
  3915 00000B28 CCCCCCCC                db 0xCC, 0xCC, 0xCC, 0xCC
  3916                                 %line 872+1 /home/se170/VirtualBox-4.3.28/out/linux.amd64/debug/obj/VMMR3LazyImp/VMMR3LazyLoad.asm
  3917                                 [global VMSetErrorV:function hidden]
  3918                                 %line 872+0 /home/se170/VirtualBox-4.3.28/out/linux.amd64/debug/obj/VMMR3LazyImp/VMMR3LazyLoad.asm
  3919                                 VMSetErrorV:
  3920                                 %line 873+1 /home/se170/VirtualBox-4.3.28/out/linux.amd64/debug/obj/VMMR3LazyImp/VMMR3LazyLoad.asm
  3921 00000B2C FF25(F4FFFFFF)          jmp qword [g_pfnVMSetErrorV wrt rip]
  3922                                 [global VMSetErrorV_EndProc:function hidden]
  3923                                 %line 874+0 /home/se170/VirtualBox-4.3.28/out/linux.amd64/debug/obj/VMMR3LazyImp/VMMR3LazyLoad.asm
  3924                                 VMSetErrorV_EndProc:
  3925                                 [size VMSetErrorV VMSetErrorV_EndProc - VMSetErrorV]
  3926                                 [size VMSetErrorV_EndProc 0]
  3927 00000B32 CCCCCCCC                db 0xCC, 0xCC, 0xCC, 0xCC
  3928                                 %line 875+1 /home/se170/VirtualBox-4.3.28/out/linux.amd64/debug/obj/VMMR3LazyImp/VMMR3LazyLoad.asm
  3929                                 [global VMR3AtErrorDeregister:function hidden]
  3930                                 %line 875+0 /home/se170/VirtualBox-4.3.28/out/linux.amd64/debug/obj/VMMR3LazyImp/VMMR3LazyLoad.asm
  3931                                 VMR3AtErrorDeregister:
  3932                                 %line 876+1 /home/se170/VirtualBox-4.3.28/out/linux.amd64/debug/obj/VMMR3LazyImp/VMMR3LazyLoad.asm
  3933 00000B36 FF25(F4FFFFFF)          jmp qword [g_pfnVMR3AtErrorDeregister wrt rip]
  3934                                 [global VMR3AtErrorDeregister_EndProc:function hidden]
  3935                                 %line 877+0 /home/se170/VirtualBox-4.3.28/out/linux.amd64/debug/obj/VMMR3LazyImp/VMMR3LazyLoad.asm
  3936                                 VMR3AtErrorDeregister_EndProc:
  3937                                 [size VMR3AtErrorDeregister VMR3AtErrorDeregister_EndProc - VMR3AtErrorDeregister]
  3938                                 [size VMR3AtErrorDeregister_EndProc 0]
  3939 00000B3C CCCCCCCC                db 0xCC, 0xCC, 0xCC, 0xCC
  3940                                 %line 878+1 /home/se170/VirtualBox-4.3.28/out/linux.amd64/debug/obj/VMMR3LazyImp/VMMR3LazyLoad.asm
  3941                                 [global VMR3AtErrorRegister:function hidden]
  3942                                 %line 878+0 /home/se170/VirtualBox-4.3.28/out/linux.amd64/debug/obj/VMMR3LazyImp/VMMR3LazyLoad.asm
  3943                                 VMR3AtErrorRegister:
  3944                                 %line 879+1 /home/se170/VirtualBox-4.3.28/out/linux.amd64/debug/obj/VMMR3LazyImp/VMMR3LazyLoad.asm
  3945 00000B40 FF25(F4FFFFFF)          jmp qword [g_pfnVMR3AtErrorRegister wrt rip]
  3946                                 [global VMR3AtErrorRegister_EndProc:function hidden]
  3947                                 %line 880+0 /home/se170/VirtualBox-4.3.28/out/linux.amd64/debug/obj/VMMR3LazyImp/VMMR3LazyLoad.asm
  3948                                 VMR3AtErrorRegister_EndProc:
  3949                                 [size VMR3AtErrorRegister VMR3AtErrorRegister_EndProc - VMR3AtErrorRegister]
  3950                                 [size VMR3AtErrorRegister_EndProc 0]
  3951 00000B46 CCCCCCCC                db 0xCC, 0xCC, 0xCC, 0xCC
  3952                                 %line 881+1 /home/se170/VirtualBox-4.3.28/out/linux.amd64/debug/obj/VMMR3LazyImp/VMMR3LazyLoad.asm
  3953                                 [global VMR3AtRuntimeErrorRegister:function hidden]
  3954                                 %line 881+0 /home/se170/VirtualBox-4.3.28/out/linux.amd64/debug/obj/VMMR3LazyImp/VMMR3LazyLoad.asm
  3955                                 VMR3AtRuntimeErrorRegister:
  3956                                 %line 882+1 /home/se170/VirtualBox-4.3.28/out/linux.amd64/debug/obj/VMMR3LazyImp/VMMR3LazyLoad.asm
  3957 00000B4A FF25(F4FFFFFF)          jmp qword [g_pfnVMR3AtRuntimeErrorRegister wrt rip]
  3958                                 [global VMR3AtRuntimeErrorRegister_EndProc:function hidden]
  3959                                 %line 883+0 /home/se170/VirtualBox-4.3.28/out/linux.amd64/debug/obj/VMMR3LazyImp/VMMR3LazyLoad.asm
  3960                                 VMR3AtRuntimeErrorRegister_EndProc:
  3961                                 [size VMR3AtRuntimeErrorRegister VMR3AtRuntimeErrorRegister_EndProc - VMR3AtRuntimeErrorRegister]
  3962                                 [size VMR3AtRuntimeErrorRegister_EndProc 0]
  3963 00000B50 CCCCCCCC                db 0xCC, 0xCC, 0xCC, 0xCC
  3964                                 %line 884+1 /home/se170/VirtualBox-4.3.28/out/linux.amd64/debug/obj/VMMR3LazyImp/VMMR3LazyLoad.asm
  3965                                 [global VMR3AtStateRegister:function hidden]
  3966                                 %line 884+0 /home/se170/VirtualBox-4.3.28/out/linux.amd64/debug/obj/VMMR3LazyImp/VMMR3LazyLoad.asm
  3967                                 VMR3AtStateRegister:
  3968                                 %line 885+1 /home/se170/VirtualBox-4.3.28/out/linux.amd64/debug/obj/VMMR3LazyImp/VMMR3LazyLoad.asm
  3969 00000B54 FF25(F4FFFFFF)          jmp qword [g_pfnVMR3AtStateRegister wrt rip]
  3970                                 [global VMR3AtStateRegister_EndProc:function hidden]
  3971                                 %line 886+0 /home/se170/VirtualBox-4.3.28/out/linux.amd64/debug/obj/VMMR3LazyImp/VMMR3LazyLoad.asm
  3972                                 VMR3AtStateRegister_EndProc:
  3973                                 [size VMR3AtStateRegister VMR3AtStateRegister_EndProc - VMR3AtStateRegister]
  3974                                 [size VMR3AtStateRegister_EndProc 0]
  3975 00000B5A CCCCCCCC                db 0xCC, 0xCC, 0xCC, 0xCC
  3976                                 %line 887+1 /home/se170/VirtualBox-4.3.28/out/linux.amd64/debug/obj/VMMR3LazyImp/VMMR3LazyLoad.asm
  3977                                 [global VMR3Create:function hidden]
  3978                                 %line 887+0 /home/se170/VirtualBox-4.3.28/out/linux.amd64/debug/obj/VMMR3LazyImp/VMMR3LazyLoad.asm
  3979                                 VMR3Create:
  3980                                 %line 888+1 /home/se170/VirtualBox-4.3.28/out/linux.amd64/debug/obj/VMMR3LazyImp/VMMR3LazyLoad.asm
  3981 00000B5E FF25(F4FFFFFF)          jmp qword [g_pfnVMR3Create wrt rip]
  3982                                 [global VMR3Create_EndProc:function hidden]
  3983                                 %line 889+0 /home/se170/VirtualBox-4.3.28/out/linux.amd64/debug/obj/VMMR3LazyImp/VMMR3LazyLoad.asm
  3984                                 VMR3Create_EndProc:
  3985                                 [size VMR3Create VMR3Create_EndProc - VMR3Create]
  3986                                 [size VMR3Create_EndProc 0]
  3987 00000B64 CCCCCCCC                db 0xCC, 0xCC, 0xCC, 0xCC
  3988                                 %line 890+1 /home/se170/VirtualBox-4.3.28/out/linux.amd64/debug/obj/VMMR3LazyImp/VMMR3LazyLoad.asm
  3989                                 [global VMR3Destroy:function hidden]
  3990                                 %line 890+0 /home/se170/VirtualBox-4.3.28/out/linux.amd64/debug/obj/VMMR3LazyImp/VMMR3LazyLoad.asm
  3991                                 VMR3Destroy:
  3992                                 %line 891+1 /home/se170/VirtualBox-4.3.28/out/linux.amd64/debug/obj/VMMR3LazyImp/VMMR3LazyLoad.asm
  3993 00000B68 FF25(F4FFFFFF)          jmp qword [g_pfnVMR3Destroy wrt rip]
  3994                                 [global VMR3Destroy_EndProc:function hidden]
  3995                                 %line 892+0 /home/se170/VirtualBox-4.3.28/out/linux.amd64/debug/obj/VMMR3LazyImp/VMMR3LazyLoad.asm
  3996                                 VMR3Destroy_EndProc:
  3997                                 [size VMR3Destroy VMR3Destroy_EndProc - VMR3Destroy]
  3998                                 [size VMR3Destroy_EndProc 0]
  3999 00000B6E CCCCCCCC                db 0xCC, 0xCC, 0xCC, 0xCC
  4000                                 %line 893+1 /home/se170/VirtualBox-4.3.28/out/linux.amd64/debug/obj/VMMR3LazyImp/VMMR3LazyLoad.asm
  4001                                 [global VMR3GetCpuCoreAndPackageIdFromCpuId:function hidden]
  4002                                 %line 893+0 /home/se170/VirtualBox-4.3.28/out/linux.amd64/debug/obj/VMMR3LazyImp/VMMR3LazyLoad.asm
  4003                                 VMR3GetCpuCoreAndPackageIdFromCpuId:
  4004                                 %line 894+1 /home/se170/VirtualBox-4.3.28/out/linux.amd64/debug/obj/VMMR3LazyImp/VMMR3LazyLoad.asm
  4005 00000B72 FF25(F4FFFFFF)          jmp qword [g_pfnVMR3GetCpuCoreAndPackageIdFromCpuId wrt rip]
  4006                                 [global VMR3GetCpuCoreAndPackageIdFromCpuId_EndProc:function hidden]
  4007                                 %line 895+0 /home/se170/VirtualBox-4.3.28/out/linux.amd64/debug/obj/VMMR3LazyImp/VMMR3LazyLoad.asm
  4008                                 VMR3GetCpuCoreAndPackageIdFromCpuId_EndProc:
  4009                                 [size VMR3GetCpuCoreAndPackageIdFromCpuId VMR3GetCpuCoreAndPackageIdFromCpuId_EndProc - VMR3GetCpuCoreAndPackageIdFromCpuId]
  4010                                 [size VMR3GetCpuCoreAndPackageIdFromCpuId_EndProc 0]
  4011 00000B78 CCCCCCCC                db 0xCC, 0xCC, 0xCC, 0xCC
  4012                                 %line 896+1 /home/se170/VirtualBox-4.3.28/out/linux.amd64/debug/obj/VMMR3LazyImp/VMMR3LazyLoad.asm
  4013                                 [global VMR3GetStateName:function hidden]
  4014                                 %line 896+0 /home/se170/VirtualBox-4.3.28/out/linux.amd64/debug/obj/VMMR3LazyImp/VMMR3LazyLoad.asm
  4015                                 VMR3GetStateName:
  4016                                 %line 897+1 /home/se170/VirtualBox-4.3.28/out/linux.amd64/debug/obj/VMMR3LazyImp/VMMR3LazyLoad.asm
  4017 00000B7C FF25(F4FFFFFF)          jmp qword [g_pfnVMR3GetStateName wrt rip]
  4018                                 [global VMR3GetStateName_EndProc:function hidden]
  4019                                 %line 898+0 /home/se170/VirtualBox-4.3.28/out/linux.amd64/debug/obj/VMMR3LazyImp/VMMR3LazyLoad.asm
  4020                                 VMR3GetStateName_EndProc:
  4021                                 [size VMR3GetStateName VMR3GetStateName_EndProc - VMR3GetStateName]
  4022                                 [size VMR3GetStateName_EndProc 0]
  4023 00000B82 CCCCCCCC                db 0xCC, 0xCC, 0xCC, 0xCC
  4024                                 %line 899+1 /home/se170/VirtualBox-4.3.28/out/linux.amd64/debug/obj/VMMR3LazyImp/VMMR3LazyLoad.asm
  4025                                 [global VMR3GetStateU:function hidden]
  4026                                 %line 899+0 /home/se170/VirtualBox-4.3.28/out/linux.amd64/debug/obj/VMMR3LazyImp/VMMR3LazyLoad.asm
  4027                                 VMR3GetStateU:
  4028                                 %line 900+1 /home/se170/VirtualBox-4.3.28/out/linux.amd64/debug/obj/VMMR3LazyImp/VMMR3LazyLoad.asm
  4029 00000B86 FF25(F4FFFFFF)          jmp qword [g_pfnVMR3GetStateU wrt rip]
  4030                                 [global VMR3GetStateU_EndProc:function hidden]
  4031                                 %line 901+0 /home/se170/VirtualBox-4.3.28/out/linux.amd64/debug/obj/VMMR3LazyImp/VMMR3LazyLoad.asm
  4032                                 VMR3GetStateU_EndProc:
  4033                                 [size VMR3GetStateU VMR3GetStateU_EndProc - VMR3GetStateU]
  4034                                 [size VMR3GetStateU_EndProc 0]
  4035 00000B8C CCCCCCCC                db 0xCC, 0xCC, 0xCC, 0xCC
  4036                                 %line 902+1 /home/se170/VirtualBox-4.3.28/out/linux.amd64/debug/obj/VMMR3LazyImp/VMMR3LazyLoad.asm
  4037                                 [global VMR3GetVM:function hidden]
  4038                                 %line 902+0 /home/se170/VirtualBox-4.3.28/out/linux.amd64/debug/obj/VMMR3LazyImp/VMMR3LazyLoad.asm
  4039                                 VMR3GetVM:
  4040                                 %line 903+1 /home/se170/VirtualBox-4.3.28/out/linux.amd64/debug/obj/VMMR3LazyImp/VMMR3LazyLoad.asm
  4041 00000B90 FF25(F4FFFFFF)          jmp qword [g_pfnVMR3GetVM wrt rip]
  4042                                 [global VMR3GetVM_EndProc:function hidden]
  4043                                 %line 904+0 /home/se170/VirtualBox-4.3.28/out/linux.amd64/debug/obj/VMMR3LazyImp/VMMR3LazyLoad.asm
  4044                                 VMR3GetVM_EndProc:
  4045                                 [size VMR3GetVM VMR3GetVM_EndProc - VMR3GetVM]
  4046                                 [size VMR3GetVM_EndProc 0]
  4047 00000B96 CCCCCCCC                db 0xCC, 0xCC, 0xCC, 0xCC
  4048                                 %line 905+1 /home/se170/VirtualBox-4.3.28/out/linux.amd64/debug/obj/VMMR3LazyImp/VMMR3LazyLoad.asm
  4049                                 [global VMR3HotPlugCpu:function hidden]
  4050                                 %line 905+0 /home/se170/VirtualBox-4.3.28/out/linux.amd64/debug/obj/VMMR3LazyImp/VMMR3LazyLoad.asm
  4051                                 VMR3HotPlugCpu:
  4052                                 %line 906+1 /home/se170/VirtualBox-4.3.28/out/linux.amd64/debug/obj/VMMR3LazyImp/VMMR3LazyLoad.asm
  4053 00000B9A FF25(F4FFFFFF)          jmp qword [g_pfnVMR3HotPlugCpu wrt rip]
  4054                                 [global VMR3HotPlugCpu_EndProc:function hidden]
  4055                                 %line 907+0 /home/se170/VirtualBox-4.3.28/out/linux.amd64/debug/obj/VMMR3LazyImp/VMMR3LazyLoad.asm
  4056                                 VMR3HotPlugCpu_EndProc:
  4057                                 [size VMR3HotPlugCpu VMR3HotPlugCpu_EndProc - VMR3HotPlugCpu]
  4058                                 [size VMR3HotPlugCpu_EndProc 0]
  4059 00000BA0 CCCCCCCC                db 0xCC, 0xCC, 0xCC, 0xCC
  4060                                 %line 908+1 /home/se170/VirtualBox-4.3.28/out/linux.amd64/debug/obj/VMMR3LazyImp/VMMR3LazyLoad.asm
  4061                                 [global VMR3HotUnplugCpu:function hidden]
  4062                                 %line 908+0 /home/se170/VirtualBox-4.3.28/out/linux.amd64/debug/obj/VMMR3LazyImp/VMMR3LazyLoad.asm
  4063                                 VMR3HotUnplugCpu:
  4064                                 %line 909+1 /home/se170/VirtualBox-4.3.28/out/linux.amd64/debug/obj/VMMR3LazyImp/VMMR3LazyLoad.asm
  4065 00000BA4 FF25(F4FFFFFF)          jmp qword [g_pfnVMR3HotUnplugCpu wrt rip]
  4066                                 [global VMR3HotUnplugCpu_EndProc:function hidden]
  4067                                 %line 910+0 /home/se170/VirtualBox-4.3.28/out/linux.amd64/debug/obj/VMMR3LazyImp/VMMR3LazyLoad.asm
  4068                                 VMR3HotUnplugCpu_EndProc:
  4069                                 [size VMR3HotUnplugCpu VMR3HotUnplugCpu_EndProc - VMR3HotUnplugCpu]
  4070                                 [size VMR3HotUnplugCpu_EndProc 0]
  4071 00000BAA CCCCCCCC                db 0xCC, 0xCC, 0xCC, 0xCC
  4072                                 %line 911+1 /home/se170/VirtualBox-4.3.28/out/linux.amd64/debug/obj/VMMR3LazyImp/VMMR3LazyLoad.asm
  4073                                 [global VMR3LoadFromFile:function hidden]
  4074                                 %line 911+0 /home/se170/VirtualBox-4.3.28/out/linux.amd64/debug/obj/VMMR3LazyImp/VMMR3LazyLoad.asm
  4075                                 VMR3LoadFromFile:
  4076                                 %line 912+1 /home/se170/VirtualBox-4.3.28/out/linux.amd64/debug/obj/VMMR3LazyImp/VMMR3LazyLoad.asm
  4077 00000BAE FF25(F4FFFFFF)          jmp qword [g_pfnVMR3LoadFromFile wrt rip]
  4078                                 [global VMR3LoadFromFile_EndProc:function hidden]
  4079                                 %line 913+0 /home/se170/VirtualBox-4.3.28/out/linux.amd64/debug/obj/VMMR3LazyImp/VMMR3LazyLoad.asm
  4080                                 VMR3LoadFromFile_EndProc:
  4081                                 [size VMR3LoadFromFile VMR3LoadFromFile_EndProc - VMR3LoadFromFile]
  4082                                 [size VMR3LoadFromFile_EndProc 0]
  4083 00000BB4 CCCCCCCC                db 0xCC, 0xCC, 0xCC, 0xCC
  4084                                 %line 914+1 /home/se170/VirtualBox-4.3.28/out/linux.amd64/debug/obj/VMMR3LazyImp/VMMR3LazyLoad.asm
  4085                                 [global VMR3LoadFromStream:function hidden]
  4086                                 %line 914+0 /home/se170/VirtualBox-4.3.28/out/linux.amd64/debug/obj/VMMR3LazyImp/VMMR3LazyLoad.asm
  4087                                 VMR3LoadFromStream:
  4088                                 %line 915+1 /home/se170/VirtualBox-4.3.28/out/linux.amd64/debug/obj/VMMR3LazyImp/VMMR3LazyLoad.asm
  4089 00000BB8 FF25(F4FFFFFF)          jmp qword [g_pfnVMR3LoadFromStream wrt rip]
  4090                                 [global VMR3LoadFromStream_EndProc:function hidden]
  4091                                 %line 916+0 /home/se170/VirtualBox-4.3.28/out/linux.amd64/debug/obj/VMMR3LazyImp/VMMR3LazyLoad.asm
  4092                                 VMR3LoadFromStream_EndProc:
  4093                                 [size VMR3LoadFromStream VMR3LoadFromStream_EndProc - VMR3LoadFromStream]
  4094                                 [size VMR3LoadFromStream_EndProc 0]
  4095 00000BBE CCCCCCCC                db 0xCC, 0xCC, 0xCC, 0xCC
  4096                                 %line 917+1 /home/se170/VirtualBox-4.3.28/out/linux.amd64/debug/obj/VMMR3LazyImp/VMMR3LazyLoad.asm
  4097                                 [global VMR3PowerOff:function hidden]
  4098                                 %line 917+0 /home/se170/VirtualBox-4.3.28/out/linux.amd64/debug/obj/VMMR3LazyImp/VMMR3LazyLoad.asm
  4099                                 VMR3PowerOff:
  4100                                 %line 918+1 /home/se170/VirtualBox-4.3.28/out/linux.amd64/debug/obj/VMMR3LazyImp/VMMR3LazyLoad.asm
  4101 00000BC2 FF25(F4FFFFFF)          jmp qword [g_pfnVMR3PowerOff wrt rip]
  4102                                 [global VMR3PowerOff_EndProc:function hidden]
  4103                                 %line 919+0 /home/se170/VirtualBox-4.3.28/out/linux.amd64/debug/obj/VMMR3LazyImp/VMMR3LazyLoad.asm
  4104                                 VMR3PowerOff_EndProc:
  4105                                 [size VMR3PowerOff VMR3PowerOff_EndProc - VMR3PowerOff]
  4106                                 [size VMR3PowerOff_EndProc 0]
  4107 00000BC8 CCCCCCCC                db 0xCC, 0xCC, 0xCC, 0xCC
  4108                                 %line 920+1 /home/se170/VirtualBox-4.3.28/out/linux.amd64/debug/obj/VMMR3LazyImp/VMMR3LazyLoad.asm
  4109                                 [global VMR3PowerOn:function hidden]
  4110                                 %line 920+0 /home/se170/VirtualBox-4.3.28/out/linux.amd64/debug/obj/VMMR3LazyImp/VMMR3LazyLoad.asm
  4111                                 VMR3PowerOn:
  4112                                 %line 921+1 /home/se170/VirtualBox-4.3.28/out/linux.amd64/debug/obj/VMMR3LazyImp/VMMR3LazyLoad.asm
  4113 00000BCC FF25(F4FFFFFF)          jmp qword [g_pfnVMR3PowerOn wrt rip]
  4114                                 [global VMR3PowerOn_EndProc:function hidden]
  4115                                 %line 922+0 /home/se170/VirtualBox-4.3.28/out/linux.amd64/debug/obj/VMMR3LazyImp/VMMR3LazyLoad.asm
  4116                                 VMR3PowerOn_EndProc:
  4117                                 [size VMR3PowerOn VMR3PowerOn_EndProc - VMR3PowerOn]
  4118                                 [size VMR3PowerOn_EndProc 0]
  4119 00000BD2 CCCCCCCC                db 0xCC, 0xCC, 0xCC, 0xCC
  4120                                 %line 923+1 /home/se170/VirtualBox-4.3.28/out/linux.amd64/debug/obj/VMMR3LazyImp/VMMR3LazyLoad.asm
  4121                                 [global VMR3ReleaseUVM:function hidden]
  4122                                 %line 923+0 /home/se170/VirtualBox-4.3.28/out/linux.amd64/debug/obj/VMMR3LazyImp/VMMR3LazyLoad.asm
  4123                                 VMR3ReleaseUVM:
  4124                                 %line 924+1 /home/se170/VirtualBox-4.3.28/out/linux.amd64/debug/obj/VMMR3LazyImp/VMMR3LazyLoad.asm
  4125 00000BD6 FF25(F4FFFFFF)          jmp qword [g_pfnVMR3ReleaseUVM wrt rip]
  4126                                 [global VMR3ReleaseUVM_EndProc:function hidden]
  4127                                 %line 925+0 /home/se170/VirtualBox-4.3.28/out/linux.amd64/debug/obj/VMMR3LazyImp/VMMR3LazyLoad.asm
  4128                                 VMR3ReleaseUVM_EndProc:
  4129                                 [size VMR3ReleaseUVM VMR3ReleaseUVM_EndProc - VMR3ReleaseUVM]
  4130                                 [size VMR3ReleaseUVM_EndProc 0]
  4131 00000BDC CCCCCCCC                db 0xCC, 0xCC, 0xCC, 0xCC
  4132                                 %line 926+1 /home/se170/VirtualBox-4.3.28/out/linux.amd64/debug/obj/VMMR3LazyImp/VMMR3LazyLoad.asm
  4133                                 [global VMR3ReqCallNoWaitU:function hidden]
  4134                                 %line 926+0 /home/se170/VirtualBox-4.3.28/out/linux.amd64/debug/obj/VMMR3LazyImp/VMMR3LazyLoad.asm
  4135                                 VMR3ReqCallNoWaitU:
  4136                                 %line 927+1 /home/se170/VirtualBox-4.3.28/out/linux.amd64/debug/obj/VMMR3LazyImp/VMMR3LazyLoad.asm
  4137 00000BE0 FF25(F4FFFFFF)          jmp qword [g_pfnVMR3ReqCallNoWaitU wrt rip]
  4138                                 [global VMR3ReqCallNoWaitU_EndProc:function hidden]
  4139                                 %line 928+0 /home/se170/VirtualBox-4.3.28/out/linux.amd64/debug/obj/VMMR3LazyImp/VMMR3LazyLoad.asm
  4140                                 VMR3ReqCallNoWaitU_EndProc:
  4141                                 [size VMR3ReqCallNoWaitU VMR3ReqCallNoWaitU_EndProc - VMR3ReqCallNoWaitU]
  4142                                 [size VMR3ReqCallNoWaitU_EndProc 0]
  4143 00000BE6 CCCCCCCC                db 0xCC, 0xCC, 0xCC, 0xCC
  4144                                 %line 929+1 /home/se170/VirtualBox-4.3.28/out/linux.amd64/debug/obj/VMMR3LazyImp/VMMR3LazyLoad.asm
  4145                                 [global VMR3ReqCallU:function hidden]
  4146                                 %line 929+0 /home/se170/VirtualBox-4.3.28/out/linux.amd64/debug/obj/VMMR3LazyImp/VMMR3LazyLoad.asm
  4147                                 VMR3ReqCallU:
  4148                                 %line 930+1 /home/se170/VirtualBox-4.3.28/out/linux.amd64/debug/obj/VMMR3LazyImp/VMMR3LazyLoad.asm
  4149 00000BEA FF25(F4FFFFFF)          jmp qword [g_pfnVMR3ReqCallU wrt rip]
  4150                                 [global VMR3ReqCallU_EndProc:function hidden]
  4151                                 %line 931+0 /home/se170/VirtualBox-4.3.28/out/linux.amd64/debug/obj/VMMR3LazyImp/VMMR3LazyLoad.asm
  4152                                 VMR3ReqCallU_EndProc:
  4153                                 [size VMR3ReqCallU VMR3ReqCallU_EndProc - VMR3ReqCallU]
  4154                                 [size VMR3ReqCallU_EndProc 0]
  4155 00000BF0 CCCCCCCC                db 0xCC, 0xCC, 0xCC, 0xCC
  4156                                 %line 932+1 /home/se170/VirtualBox-4.3.28/out/linux.amd64/debug/obj/VMMR3LazyImp/VMMR3LazyLoad.asm
  4157                                 [global VMR3ReqCallVoidWaitU:function hidden]
  4158                                 %line 932+0 /home/se170/VirtualBox-4.3.28/out/linux.amd64/debug/obj/VMMR3LazyImp/VMMR3LazyLoad.asm
  4159                                 VMR3ReqCallVoidWaitU:
  4160                                 %line 933+1 /home/se170/VirtualBox-4.3.28/out/linux.amd64/debug/obj/VMMR3LazyImp/VMMR3LazyLoad.asm
  4161 00000BF4 FF25(F4FFFFFF)          jmp qword [g_pfnVMR3ReqCallVoidWaitU wrt rip]
  4162                                 [global VMR3ReqCallVoidWaitU_EndProc:function hidden]
  4163                                 %line 934+0 /home/se170/VirtualBox-4.3.28/out/linux.amd64/debug/obj/VMMR3LazyImp/VMMR3LazyLoad.asm
  4164                                 VMR3ReqCallVoidWaitU_EndProc:
  4165                                 [size VMR3ReqCallVoidWaitU VMR3ReqCallVoidWaitU_EndProc - VMR3ReqCallVoidWaitU]
  4166                                 [size VMR3ReqCallVoidWaitU_EndProc 0]
  4167 00000BFA CCCCCCCC                db 0xCC, 0xCC, 0xCC, 0xCC
  4168                                 %line 935+1 /home/se170/VirtualBox-4.3.28/out/linux.amd64/debug/obj/VMMR3LazyImp/VMMR3LazyLoad.asm
  4169                                 [global VMR3ReqCallWaitU:function hidden]
  4170                                 %line 935+0 /home/se170/VirtualBox-4.3.28/out/linux.amd64/debug/obj/VMMR3LazyImp/VMMR3LazyLoad.asm
  4171                                 VMR3ReqCallWaitU:
  4172                                 %line 936+1 /home/se170/VirtualBox-4.3.28/out/linux.amd64/debug/obj/VMMR3LazyImp/VMMR3LazyLoad.asm
  4173 00000BFE FF25(F4FFFFFF)          jmp qword [g_pfnVMR3ReqCallWaitU wrt rip]
  4174                                 [global VMR3ReqCallWaitU_EndProc:function hidden]
  4175                                 %line 937+0 /home/se170/VirtualBox-4.3.28/out/linux.amd64/debug/obj/VMMR3LazyImp/VMMR3LazyLoad.asm
  4176                                 VMR3ReqCallWaitU_EndProc:
  4177                                 [size VMR3ReqCallWaitU VMR3ReqCallWaitU_EndProc - VMR3ReqCallWaitU]
  4178                                 [size VMR3ReqCallWaitU_EndProc 0]
  4179 00000C04 CCCCCCCC                db 0xCC, 0xCC, 0xCC, 0xCC
  4180                                 %line 938+1 /home/se170/VirtualBox-4.3.28/out/linux.amd64/debug/obj/VMMR3LazyImp/VMMR3LazyLoad.asm
  4181                                 [global VMR3ReqFree:function hidden]
  4182                                 %line 938+0 /home/se170/VirtualBox-4.3.28/out/linux.amd64/debug/obj/VMMR3LazyImp/VMMR3LazyLoad.asm
  4183                                 VMR3ReqFree:
  4184                                 %line 939+1 /home/se170/VirtualBox-4.3.28/out/linux.amd64/debug/obj/VMMR3LazyImp/VMMR3LazyLoad.asm
  4185 00000C08 FF25(F4FFFFFF)          jmp qword [g_pfnVMR3ReqFree wrt rip]
  4186                                 [global VMR3ReqFree_EndProc:function hidden]
  4187                                 %line 940+0 /home/se170/VirtualBox-4.3.28/out/linux.amd64/debug/obj/VMMR3LazyImp/VMMR3LazyLoad.asm
  4188                                 VMR3ReqFree_EndProc:
  4189                                 [size VMR3ReqFree VMR3ReqFree_EndProc - VMR3ReqFree]
  4190                                 [size VMR3ReqFree_EndProc 0]
  4191 00000C0E CCCCCCCC                db 0xCC, 0xCC, 0xCC, 0xCC
  4192                                 %line 941+1 /home/se170/VirtualBox-4.3.28/out/linux.amd64/debug/obj/VMMR3LazyImp/VMMR3LazyLoad.asm
  4193                                 [global VMR3ReqPriorityCallWaitU:function hidden]
  4194                                 %line 941+0 /home/se170/VirtualBox-4.3.28/out/linux.amd64/debug/obj/VMMR3LazyImp/VMMR3LazyLoad.asm
  4195                                 VMR3ReqPriorityCallWaitU:
  4196                                 %line 942+1 /home/se170/VirtualBox-4.3.28/out/linux.amd64/debug/obj/VMMR3LazyImp/VMMR3LazyLoad.asm
  4197 00000C12 FF25(F4FFFFFF)          jmp qword [g_pfnVMR3ReqPriorityCallWaitU wrt rip]
  4198                                 [global VMR3ReqPriorityCallWaitU_EndProc:function hidden]
  4199                                 %line 943+0 /home/se170/VirtualBox-4.3.28/out/linux.amd64/debug/obj/VMMR3LazyImp/VMMR3LazyLoad.asm
  4200                                 VMR3ReqPriorityCallWaitU_EndProc:
  4201                                 [size VMR3ReqPriorityCallWaitU VMR3ReqPriorityCallWaitU_EndProc - VMR3ReqPriorityCallWaitU]
  4202                                 [size VMR3ReqPriorityCallWaitU_EndProc 0]
  4203 00000C18 CCCCCCCC                db 0xCC, 0xCC, 0xCC, 0xCC
  4204                                 %line 944+1 /home/se170/VirtualBox-4.3.28/out/linux.amd64/debug/obj/VMMR3LazyImp/VMMR3LazyLoad.asm
  4205                                 [global VMR3ReqWait:function hidden]
  4206                                 %line 944+0 /home/se170/VirtualBox-4.3.28/out/linux.amd64/debug/obj/VMMR3LazyImp/VMMR3LazyLoad.asm
  4207                                 VMR3ReqWait:
  4208                                 %line 945+1 /home/se170/VirtualBox-4.3.28/out/linux.amd64/debug/obj/VMMR3LazyImp/VMMR3LazyLoad.asm
  4209 00000C1C FF25(F4FFFFFF)          jmp qword [g_pfnVMR3ReqWait wrt rip]
  4210                                 [global VMR3ReqWait_EndProc:function hidden]
  4211                                 %line 946+0 /home/se170/VirtualBox-4.3.28/out/linux.amd64/debug/obj/VMMR3LazyImp/VMMR3LazyLoad.asm
  4212                                 VMR3ReqWait_EndProc:
  4213                                 [size VMR3ReqWait VMR3ReqWait_EndProc - VMR3ReqWait]
  4214                                 [size VMR3ReqWait_EndProc 0]
  4215 00000C22 CCCCCCCC                db 0xCC, 0xCC, 0xCC, 0xCC
  4216                                 %line 947+1 /home/se170/VirtualBox-4.3.28/out/linux.amd64/debug/obj/VMMR3LazyImp/VMMR3LazyLoad.asm
  4217                                 [global VMR3Reset:function hidden]
  4218                                 %line 947+0 /home/se170/VirtualBox-4.3.28/out/linux.amd64/debug/obj/VMMR3LazyImp/VMMR3LazyLoad.asm
  4219                                 VMR3Reset:
  4220                                 %line 948+1 /home/se170/VirtualBox-4.3.28/out/linux.amd64/debug/obj/VMMR3LazyImp/VMMR3LazyLoad.asm
  4221 00000C26 FF25(F4FFFFFF)          jmp qword [g_pfnVMR3Reset wrt rip]
  4222                                 [global VMR3Reset_EndProc:function hidden]
  4223                                 %line 949+0 /home/se170/VirtualBox-4.3.28/out/linux.amd64/debug/obj/VMMR3LazyImp/VMMR3LazyLoad.asm
  4224                                 VMR3Reset_EndProc:
  4225                                 [size VMR3Reset VMR3Reset_EndProc - VMR3Reset]
  4226                                 [size VMR3Reset_EndProc 0]
  4227 00000C2C CCCCCCCC                db 0xCC, 0xCC, 0xCC, 0xCC
  4228                                 %line 950+1 /home/se170/VirtualBox-4.3.28/out/linux.amd64/debug/obj/VMMR3LazyImp/VMMR3LazyLoad.asm
  4229                                 [global VMR3Resume:function hidden]
  4230                                 %line 950+0 /home/se170/VirtualBox-4.3.28/out/linux.amd64/debug/obj/VMMR3LazyImp/VMMR3LazyLoad.asm
  4231                                 VMR3Resume:
  4232                                 %line 951+1 /home/se170/VirtualBox-4.3.28/out/linux.amd64/debug/obj/VMMR3LazyImp/VMMR3LazyLoad.asm
  4233 00000C30 FF25(F4FFFFFF)          jmp qword [g_pfnVMR3Resume wrt rip]
  4234                                 [global VMR3Resume_EndProc:function hidden]
  4235                                 %line 952+0 /home/se170/VirtualBox-4.3.28/out/linux.amd64/debug/obj/VMMR3LazyImp/VMMR3LazyLoad.asm
  4236                                 VMR3Resume_EndProc:
  4237                                 [size VMR3Resume VMR3Resume_EndProc - VMR3Resume]
  4238                                 [size VMR3Resume_EndProc 0]
  4239 00000C36 CCCCCCCC                db 0xCC, 0xCC, 0xCC, 0xCC
  4240                                 %line 953+1 /home/se170/VirtualBox-4.3.28/out/linux.amd64/debug/obj/VMMR3LazyImp/VMMR3LazyLoad.asm
  4241                                 [global VMR3RetainUVM:function hidden]
  4242                                 %line 953+0 /home/se170/VirtualBox-4.3.28/out/linux.amd64/debug/obj/VMMR3LazyImp/VMMR3LazyLoad.asm
  4243                                 VMR3RetainUVM:
  4244                                 %line 954+1 /home/se170/VirtualBox-4.3.28/out/linux.amd64/debug/obj/VMMR3LazyImp/VMMR3LazyLoad.asm
  4245 00000C3A FF25(F4FFFFFF)          jmp qword [g_pfnVMR3RetainUVM wrt rip]
  4246                                 [global VMR3RetainUVM_EndProc:function hidden]
  4247                                 %line 955+0 /home/se170/VirtualBox-4.3.28/out/linux.amd64/debug/obj/VMMR3LazyImp/VMMR3LazyLoad.asm
  4248                                 VMR3RetainUVM_EndProc:
  4249                                 [size VMR3RetainUVM VMR3RetainUVM_EndProc - VMR3RetainUVM]
  4250                                 [size VMR3RetainUVM_EndProc 0]
  4251 00000C40 CCCCCCCC                db 0xCC, 0xCC, 0xCC, 0xCC
  4252                                 %line 956+1 /home/se170/VirtualBox-4.3.28/out/linux.amd64/debug/obj/VMMR3LazyImp/VMMR3LazyLoad.asm
  4253                                 [global VMR3Save:function hidden]
  4254                                 %line 956+0 /home/se170/VirtualBox-4.3.28/out/linux.amd64/debug/obj/VMMR3LazyImp/VMMR3LazyLoad.asm
  4255                                 VMR3Save:
  4256                                 %line 957+1 /home/se170/VirtualBox-4.3.28/out/linux.amd64/debug/obj/VMMR3LazyImp/VMMR3LazyLoad.asm
  4257 00000C44 FF25(F4FFFFFF)          jmp qword [g_pfnVMR3Save wrt rip]
  4258                                 [global VMR3Save_EndProc:function hidden]
  4259                                 %line 958+0 /home/se170/VirtualBox-4.3.28/out/linux.amd64/debug/obj/VMMR3LazyImp/VMMR3LazyLoad.asm
  4260                                 VMR3Save_EndProc:
  4261                                 [size VMR3Save VMR3Save_EndProc - VMR3Save]
  4262                                 [size VMR3Save_EndProc 0]
  4263 00000C4A CCCCCCCC                db 0xCC, 0xCC, 0xCC, 0xCC
  4264                                 %line 959+1 /home/se170/VirtualBox-4.3.28/out/linux.amd64/debug/obj/VMMR3LazyImp/VMMR3LazyLoad.asm
  4265                                 [global VMR3SetCpuExecutionCap:function hidden]
  4266                                 %line 959+0 /home/se170/VirtualBox-4.3.28/out/linux.amd64/debug/obj/VMMR3LazyImp/VMMR3LazyLoad.asm
  4267                                 VMR3SetCpuExecutionCap:
  4268                                 %line 960+1 /home/se170/VirtualBox-4.3.28/out/linux.amd64/debug/obj/VMMR3LazyImp/VMMR3LazyLoad.asm
  4269 00000C4E FF25(F4FFFFFF)          jmp qword [g_pfnVMR3SetCpuExecutionCap wrt rip]
  4270                                 [global VMR3SetCpuExecutionCap_EndProc:function hidden]
  4271                                 %line 961+0 /home/se170/VirtualBox-4.3.28/out/linux.amd64/debug/obj/VMMR3LazyImp/VMMR3LazyLoad.asm
  4272                                 VMR3SetCpuExecutionCap_EndProc:
  4273                                 [size VMR3SetCpuExecutionCap VMR3SetCpuExecutionCap_EndProc - VMR3SetCpuExecutionCap]
  4274                                 [size VMR3SetCpuExecutionCap_EndProc 0]
  4275 00000C54 CCCCCCCC                db 0xCC, 0xCC, 0xCC, 0xCC
  4276                                 %line 962+1 /home/se170/VirtualBox-4.3.28/out/linux.amd64/debug/obj/VMMR3LazyImp/VMMR3LazyLoad.asm
  4277                                 [global VMR3SetError:function hidden]
  4278                                 %line 962+0 /home/se170/VirtualBox-4.3.28/out/linux.amd64/debug/obj/VMMR3LazyImp/VMMR3LazyLoad.asm
  4279                                 VMR3SetError:
  4280                                 %line 963+1 /home/se170/VirtualBox-4.3.28/out/linux.amd64/debug/obj/VMMR3LazyImp/VMMR3LazyLoad.asm
  4281 00000C58 FF25(F4FFFFFF)          jmp qword [g_pfnVMR3SetError wrt rip]
  4282                                 [global VMR3SetError_EndProc:function hidden]
  4283                                 %line 964+0 /home/se170/VirtualBox-4.3.28/out/linux.amd64/debug/obj/VMMR3LazyImp/VMMR3LazyLoad.asm
  4284                                 VMR3SetError_EndProc:
  4285                                 [size VMR3SetError VMR3SetError_EndProc - VMR3SetError]
  4286                                 [size VMR3SetError_EndProc 0]
  4287 00000C5E CCCCCCCC                db 0xCC, 0xCC, 0xCC, 0xCC
  4288                                 %line 965+1 /home/se170/VirtualBox-4.3.28/out/linux.amd64/debug/obj/VMMR3LazyImp/VMMR3LazyLoad.asm
  4289                                 [global VMR3SetPowerOffInsteadOfReset:function hidden]
  4290                                 %line 965+0 /home/se170/VirtualBox-4.3.28/out/linux.amd64/debug/obj/VMMR3LazyImp/VMMR3LazyLoad.asm
  4291                                 VMR3SetPowerOffInsteadOfReset:
  4292                                 %line 966+1 /home/se170/VirtualBox-4.3.28/out/linux.amd64/debug/obj/VMMR3LazyImp/VMMR3LazyLoad.asm
  4293 00000C62 FF25(F4FFFFFF)          jmp qword [g_pfnVMR3SetPowerOffInsteadOfReset wrt rip]
  4294                                 [global VMR3SetPowerOffInsteadOfReset_EndProc:function hidden]
  4295                                 %line 967+0 /home/se170/VirtualBox-4.3.28/out/linux.amd64/debug/obj/VMMR3LazyImp/VMMR3LazyLoad.asm
  4296                                 VMR3SetPowerOffInsteadOfReset_EndProc:
  4297                                 [size VMR3SetPowerOffInsteadOfReset VMR3SetPowerOffInsteadOfReset_EndProc - VMR3SetPowerOffInsteadOfReset]
  4298                                 [size VMR3SetPowerOffInsteadOfReset_EndProc 0]
  4299 00000C68 CCCCCCCC                db 0xCC, 0xCC, 0xCC, 0xCC
  4300                                 %line 968+1 /home/se170/VirtualBox-4.3.28/out/linux.amd64/debug/obj/VMMR3LazyImp/VMMR3LazyLoad.asm
  4301                                 [global VMR3Suspend:function hidden]
  4302                                 %line 968+0 /home/se170/VirtualBox-4.3.28/out/linux.amd64/debug/obj/VMMR3LazyImp/VMMR3LazyLoad.asm
  4303                                 VMR3Suspend:
  4304                                 %line 969+1 /home/se170/VirtualBox-4.3.28/out/linux.amd64/debug/obj/VMMR3LazyImp/VMMR3LazyLoad.asm
  4305 00000C6C FF25(F4FFFFFF)          jmp qword [g_pfnVMR3Suspend wrt rip]
  4306                                 [global VMR3Suspend_EndProc:function hidden]
  4307                                 %line 970+0 /home/se170/VirtualBox-4.3.28/out/linux.amd64/debug/obj/VMMR3LazyImp/VMMR3LazyLoad.asm
  4308                                 VMR3Suspend_EndProc:
  4309                                 [size VMR3Suspend VMR3Suspend_EndProc - VMR3Suspend]
  4310                                 [size VMR3Suspend_EndProc 0]
  4311 00000C72 CCCCCCCC                db 0xCC, 0xCC, 0xCC, 0xCC
  4312                                 %line 971+1 /home/se170/VirtualBox-4.3.28/out/linux.amd64/debug/obj/VMMR3LazyImp/VMMR3LazyLoad.asm
  4313                                 [global VMR3Teleport:function hidden]
  4314                                 %line 971+0 /home/se170/VirtualBox-4.3.28/out/linux.amd64/debug/obj/VMMR3LazyImp/VMMR3LazyLoad.asm
  4315                                 VMR3Teleport:
  4316                                 %line 972+1 /home/se170/VirtualBox-4.3.28/out/linux.amd64/debug/obj/VMMR3LazyImp/VMMR3LazyLoad.asm
  4317 00000C76 FF25(F4FFFFFF)          jmp qword [g_pfnVMR3Teleport wrt rip]
  4318                                 [global VMR3Teleport_EndProc:function hidden]
  4319                                 %line 973+0 /home/se170/VirtualBox-4.3.28/out/linux.amd64/debug/obj/VMMR3LazyImp/VMMR3LazyLoad.asm
  4320                                 VMR3Teleport_EndProc:
  4321                                 [size VMR3Teleport VMR3Teleport_EndProc - VMR3Teleport]
  4322                                 [size VMR3Teleport_EndProc 0]
  4323 00000C7C CCCCCCCC                db 0xCC, 0xCC, 0xCC, 0xCC
  4324                                 %line 974+1 /home/se170/VirtualBox-4.3.28/out/linux.amd64/debug/obj/VMMR3LazyImp/VMMR3LazyLoad.asm
  4325                                 [global VMR3AtStateDeregister:function hidden]
  4326                                 %line 974+0 /home/se170/VirtualBox-4.3.28/out/linux.amd64/debug/obj/VMMR3LazyImp/VMMR3LazyLoad.asm
  4327                                 VMR3AtStateDeregister:
  4328                                 %line 975+1 /home/se170/VirtualBox-4.3.28/out/linux.amd64/debug/obj/VMMR3LazyImp/VMMR3LazyLoad.asm
  4329 00000C80 FF25(F4FFFFFF)          jmp qword [g_pfnVMR3AtStateDeregister wrt rip]
  4330                                 [global VMR3AtStateDeregister_EndProc:function hidden]
  4331                                 %line 976+0 /home/se170/VirtualBox-4.3.28/out/linux.amd64/debug/obj/VMMR3LazyImp/VMMR3LazyLoad.asm
  4332                                 VMR3AtStateDeregister_EndProc:
  4333                                 [size VMR3AtStateDeregister VMR3AtStateDeregister_EndProc - VMR3AtStateDeregister]
  4334                                 [size VMR3AtStateDeregister_EndProc 0]
  4335 00000C86 CCCCCCCC                db 0xCC, 0xCC, 0xCC, 0xCC
  4336                                 %line 977+1 /home/se170/VirtualBox-4.3.28/out/linux.amd64/debug/obj/VMMR3LazyImp/VMMR3LazyLoad.asm
  4337                                 [global VMR3GetUVM:function hidden]
  4338                                 %line 977+0 /home/se170/VirtualBox-4.3.28/out/linux.amd64/debug/obj/VMMR3LazyImp/VMMR3LazyLoad.asm
  4339                                 VMR3GetUVM:
  4340                                 %line 978+1 /home/se170/VirtualBox-4.3.28/out/linux.amd64/debug/obj/VMMR3LazyImp/VMMR3LazyLoad.asm
  4341 00000C8A FF25(F4FFFFFF)          jmp qword [g_pfnVMR3GetUVM wrt rip]
  4342                                 [global VMR3GetUVM_EndProc:function hidden]
  4343                                 %line 979+0 /home/se170/VirtualBox-4.3.28/out/linux.amd64/debug/obj/VMMR3LazyImp/VMMR3LazyLoad.asm
  4344                                 VMR3GetUVM_EndProc:
  4345                                 [size VMR3GetUVM VMR3GetUVM_EndProc - VMR3GetUVM]
  4346                                 [size VMR3GetUVM_EndProc 0]
  4347 00000C90 CCCCCCCC                db 0xCC, 0xCC, 0xCC, 0xCC
  4348                                 %line 980+1 /home/se170/VirtualBox-4.3.28/out/linux.amd64/debug/obj/VMMR3LazyImp/VMMR3LazyLoad.asm
  4349                                 
  4350                                 
  4351                                 
  4352                                 
  4353                                 
  4354                                 [section .data]
  4355                                 g_apfnImports:
  4356                                 %line 991+1 /home/se170/VirtualBox-4.3.28/out/linux.amd64/debug/obj/VMMR3LazyImp/VMMR3LazyLoad.asm
  4357 00000000 [0000000000000000]     g_pfnCFGMR3GetRoot dq ___LazyLoad___CFGMR3GetRoot
  4358                                 %line 996+1 /home/se170/VirtualBox-4.3.28/out/linux.amd64/debug/obj/VMMR3LazyImp/VMMR3LazyLoad.asm
  4359 00000008 [0000000000000000]     g_pfnCFGMR3GetFirstChild dq ___LazyLoad___CFGMR3GetFirstChild
  4360                                 %line 1001+1 /home/se170/VirtualBox-4.3.28/out/linux.amd64/debug/obj/VMMR3LazyImp/VMMR3LazyLoad.asm
  4361 00000010 [0000000000000000]     g_pfnCFGMR3GetNextChild dq ___LazyLoad___CFGMR3GetNextChild
  4362                                 %line 1006+1 /home/se170/VirtualBox-4.3.28/out/linux.amd64/debug/obj/VMMR3LazyImp/VMMR3LazyLoad.asm
  4363 00000018 [0000000000000000]     g_pfnCFGMR3GetNameLen dq ___LazyLoad___CFGMR3GetNameLen
  4364                                 %line 1011+1 /home/se170/VirtualBox-4.3.28/out/linux.amd64/debug/obj/VMMR3LazyImp/VMMR3LazyLoad.asm
  4365 00000020 [0000000000000000]     g_pfnCFGMR3GetFirstValue dq ___LazyLoad___CFGMR3GetFirstValue
  4366                                 %line 1016+1 /home/se170/VirtualBox-4.3.28/out/linux.amd64/debug/obj/VMMR3LazyImp/VMMR3LazyLoad.asm
  4367 00000028 [0000000000000000]     g_pfnCFGMR3GetNextValue dq ___LazyLoad___CFGMR3GetNextValue
  4368                                 %line 1021+1 /home/se170/VirtualBox-4.3.28/out/linux.amd64/debug/obj/VMMR3LazyImp/VMMR3LazyLoad.asm
  4369 00000030 [0000000000000000]     g_pfnCFGMR3GetValueNameLen dq ___LazyLoad___CFGMR3GetValueNameLen
  4370                                 %line 1026+1 /home/se170/VirtualBox-4.3.28/out/linux.amd64/debug/obj/VMMR3LazyImp/VMMR3LazyLoad.asm
  4371 00000038 [0000000000000000]     g_pfnCFGMR3GetValueType dq ___LazyLoad___CFGMR3GetValueType
  4372                                 %line 1031+1 /home/se170/VirtualBox-4.3.28/out/linux.amd64/debug/obj/VMMR3LazyImp/VMMR3LazyLoad.asm
  4373 00000040 [0000000000000000]     g_pfnCFGMR3Dump dq ___LazyLoad___CFGMR3Dump
  4374                                 %line 1036+1 /home/se170/VirtualBox-4.3.28/out/linux.amd64/debug/obj/VMMR3LazyImp/VMMR3LazyLoad.asm
  4375 00000048 [0000000000000000]     g_pfnCFGMR3CreateTree dq ___LazyLoad___CFGMR3CreateTree
  4376                                 %line 1041+1 /home/se170/VirtualBox-4.3.28/out/linux.amd64/debug/obj/VMMR3LazyImp/VMMR3LazyLoad.asm
  4377 00000050 [0000000000000000]     g_pfnCFGMR3DestroyTree dq ___LazyLoad___CFGMR3DestroyTree
  4378                                 %line 1046+1 /home/se170/VirtualBox-4.3.28/out/linux.amd64/debug/obj/VMMR3LazyImp/VMMR3LazyLoad.asm
  4379 00000058 [0000000000000000]     g_pfnCFGMR3GetValueName dq ___LazyLoad___CFGMR3GetValueName
  4380                                 %line 1051+1 /home/se170/VirtualBox-4.3.28/out/linux.amd64/debug/obj/VMMR3LazyImp/VMMR3LazyLoad.asm
  4381 00000060 [0000000000000000]     g_pfnCFGMR3GetName dq ___LazyLoad___CFGMR3GetName
  4382                                 %line 1056+1 /home/se170/VirtualBox-4.3.28/out/linux.amd64/debug/obj/VMMR3LazyImp/VMMR3LazyLoad.asm
  4383 00000068 [0000000000000000]     g_pfnCFGMR3RemoveNode dq ___LazyLoad___CFGMR3RemoveNode
  4384                                 %line 1061+1 /home/se170/VirtualBox-4.3.28/out/linux.amd64/debug/obj/VMMR3LazyImp/VMMR3LazyLoad.asm
  4385 00000070 [0000000000000000]     g_pfnCFGMR3InsertBytes dq ___LazyLoad___CFGMR3InsertBytes
  4386                                 %line 1066+1 /home/se170/VirtualBox-4.3.28/out/linux.amd64/debug/obj/VMMR3LazyImp/VMMR3LazyLoad.asm
  4387 00000078 [0000000000000000]     g_pfnCFGMR3InsertStringFV dq ___LazyLoad___CFGMR3InsertStringFV
  4388                                 %line 1071+1 /home/se170/VirtualBox-4.3.28/out/linux.amd64/debug/obj/VMMR3LazyImp/VMMR3LazyLoad.asm
  4389 00000080 [0000000000000000]     g_pfnCFGMR3InsertStringF dq ___LazyLoad___CFGMR3InsertStringF
  4390                                 %line 1076+1 /home/se170/VirtualBox-4.3.28/out/linux.amd64/debug/obj/VMMR3LazyImp/VMMR3LazyLoad.asm
  4391 00000088 [0000000000000000]     g_pfnCFGMR3InsertStringN dq ___LazyLoad___CFGMR3InsertStringN
  4392                                 %line 1081+1 /home/se170/VirtualBox-4.3.28/out/linux.amd64/debug/obj/VMMR3LazyImp/VMMR3LazyLoad.asm
  4393 00000090 [0000000000000000]     g_pfnCFGMR3InsertString dq ___LazyLoad___CFGMR3InsertString
  4394                                 %line 1086+1 /home/se170/VirtualBox-4.3.28/out/linux.amd64/debug/obj/VMMR3LazyImp/VMMR3LazyLoad.asm
  4395 00000098 [0000000000000000]     g_pfnCFGMR3InsertStringW dq ___LazyLoad___CFGMR3InsertStringW
  4396                                 %line 1091+1 /home/se170/VirtualBox-4.3.28/out/linux.amd64/debug/obj/VMMR3LazyImp/VMMR3LazyLoad.asm
  4397 000000A0 [0000000000000000]     g_pfnCFGMR3InsertInteger dq ___LazyLoad___CFGMR3InsertInteger
  4398                                 %line 1096+1 /home/se170/VirtualBox-4.3.28/out/linux.amd64/debug/obj/VMMR3LazyImp/VMMR3LazyLoad.asm
  4399 000000A8 [0000000000000000]     g_pfnCFGMR3QueryStringAllocDef dq ___LazyLoad___CFGMR3QueryStringAllocDef
  4400                                 %line 1101+1 /home/se170/VirtualBox-4.3.28/out/linux.amd64/debug/obj/VMMR3LazyImp/VMMR3LazyLoad.asm
  4401 000000B0 [0000000000000000]     g_pfnCFGMR3RemoveValue dq ___LazyLoad___CFGMR3RemoveValue
  4402                                 %line 1106+1 /home/se170/VirtualBox-4.3.28/out/linux.amd64/debug/obj/VMMR3LazyImp/VMMR3LazyLoad.asm
  4403 000000B8 [0000000000000000]     g_pfnCFGMR3QueryIntegerDef dq ___LazyLoad___CFGMR3QueryIntegerDef
  4404                                 %line 1111+1 /home/se170/VirtualBox-4.3.28/out/linux.amd64/debug/obj/VMMR3LazyImp/VMMR3LazyLoad.asm
  4405 000000C0 [0000000000000000]     g_pfnCFGMR3QueryGCPtrSDef dq ___LazyLoad___CFGMR3QueryGCPtrSDef
  4406                                 %line 1116+1 /home/se170/VirtualBox-4.3.28/out/linux.amd64/debug/obj/VMMR3LazyImp/VMMR3LazyLoad.asm
  4407 000000C8 [0000000000000000]     g_pfnCFGMR3QueryGCPtrUDef dq ___LazyLoad___CFGMR3QueryGCPtrUDef
  4408                                 %line 1121+1 /home/se170/VirtualBox-4.3.28/out/linux.amd64/debug/obj/VMMR3LazyImp/VMMR3LazyLoad.asm
  4409 000000D0 [0000000000000000]     g_pfnCFGMR3QueryGCPtrDef dq ___LazyLoad___CFGMR3QueryGCPtrDef
  4410                                 %line 1126+1 /home/se170/VirtualBox-4.3.28/out/linux.amd64/debug/obj/VMMR3LazyImp/VMMR3LazyLoad.asm
  4411 000000D8 [0000000000000000]     g_pfnCFGMR3QueryPtrDef dq ___LazyLoad___CFGMR3QueryPtrDef
  4412                                 %line 1131+1 /home/se170/VirtualBox-4.3.28/out/linux.amd64/debug/obj/VMMR3LazyImp/VMMR3LazyLoad.asm
  4413 000000E0 [0000000000000000]     g_pfnCFGMR3QueryBoolDef dq ___LazyLoad___CFGMR3QueryBoolDef
  4414                                 %line 1136+1 /home/se170/VirtualBox-4.3.28/out/linux.amd64/debug/obj/VMMR3LazyImp/VMMR3LazyLoad.asm
  4415 000000E8 [0000000000000000]     g_pfnCFGMR3QueryS8Def dq ___LazyLoad___CFGMR3QueryS8Def
  4416                                 %line 1141+1 /home/se170/VirtualBox-4.3.28/out/linux.amd64/debug/obj/VMMR3LazyImp/VMMR3LazyLoad.asm
  4417 000000F0 [0000000000000000]     g_pfnCFGMR3QueryU8Def dq ___LazyLoad___CFGMR3QueryU8Def
  4418                                 %line 1146+1 /home/se170/VirtualBox-4.3.28/out/linux.amd64/debug/obj/VMMR3LazyImp/VMMR3LazyLoad.asm
  4419 000000F8 [0000000000000000]     g_pfnCFGMR3QueryS16Def dq ___LazyLoad___CFGMR3QueryS16Def
  4420                                 %line 1151+1 /home/se170/VirtualBox-4.3.28/out/linux.amd64/debug/obj/VMMR3LazyImp/VMMR3LazyLoad.asm
  4421 00000100 [0000000000000000]     g_pfnCFGMR3QueryU16Def dq ___LazyLoad___CFGMR3QueryU16Def
  4422                                 %line 1156+1 /home/se170/VirtualBox-4.3.28/out/linux.amd64/debug/obj/VMMR3LazyImp/VMMR3LazyLoad.asm
  4423 00000108 [0000000000000000]     g_pfnCFGMR3QueryPortDef dq ___LazyLoad___CFGMR3QueryPortDef
  4424                                 %line 1161+1 /home/se170/VirtualBox-4.3.28/out/linux.amd64/debug/obj/VMMR3LazyImp/VMMR3LazyLoad.asm
  4425 00000110 [0000000000000000]     g_pfnCFGMR3QueryS32Def dq ___LazyLoad___CFGMR3QueryS32Def
  4426                                 %line 1166+1 /home/se170/VirtualBox-4.3.28/out/linux.amd64/debug/obj/VMMR3LazyImp/VMMR3LazyLoad.asm
  4427 00000118 [0000000000000000]     g_pfnCFGMR3QuerySIntDef dq ___LazyLoad___CFGMR3QuerySIntDef
  4428                                 %line 1171+1 /home/se170/VirtualBox-4.3.28/out/linux.amd64/debug/obj/VMMR3LazyImp/VMMR3LazyLoad.asm
  4429 00000120 [0000000000000000]     g_pfnCFGMR3QueryU32Def dq ___LazyLoad___CFGMR3QueryU32Def
  4430                                 %line 1176+1 /home/se170/VirtualBox-4.3.28/out/linux.amd64/debug/obj/VMMR3LazyImp/VMMR3LazyLoad.asm
  4431 00000128 [0000000000000000]     g_pfnCFGMR3QueryUIntDef dq ___LazyLoad___CFGMR3QueryUIntDef
  4432                                 %line 1181+1 /home/se170/VirtualBox-4.3.28/out/linux.amd64/debug/obj/VMMR3LazyImp/VMMR3LazyLoad.asm
  4433 00000130 [0000000000000000]     g_pfnCFGMR3QueryS64Def dq ___LazyLoad___CFGMR3QueryS64Def
  4434                                 %line 1186+1 /home/se170/VirtualBox-4.3.28/out/linux.amd64/debug/obj/VMMR3LazyImp/VMMR3LazyLoad.asm
  4435 00000138 [0000000000000000]     g_pfnCFGMR3QueryU64Def dq ___LazyLoad___CFGMR3QueryU64Def
  4436                                 %line 1191+1 /home/se170/VirtualBox-4.3.28/out/linux.amd64/debug/obj/VMMR3LazyImp/VMMR3LazyLoad.asm
  4437 00000140 [0000000000000000]     g_pfnCFGMR3QueryInteger dq ___LazyLoad___CFGMR3QueryInteger
  4438                                 %line 1196+1 /home/se170/VirtualBox-4.3.28/out/linux.amd64/debug/obj/VMMR3LazyImp/VMMR3LazyLoad.asm
  4439 00000148 [0000000000000000]     g_pfnCFGMR3QueryGCPtrS dq ___LazyLoad___CFGMR3QueryGCPtrS
  4440                                 %line 1201+1 /home/se170/VirtualBox-4.3.28/out/linux.amd64/debug/obj/VMMR3LazyImp/VMMR3LazyLoad.asm
  4441 00000150 [0000000000000000]     g_pfnCFGMR3QueryGCPtrU dq ___LazyLoad___CFGMR3QueryGCPtrU
  4442                                 %line 1206+1 /home/se170/VirtualBox-4.3.28/out/linux.amd64/debug/obj/VMMR3LazyImp/VMMR3LazyLoad.asm
  4443 00000158 [0000000000000000]     g_pfnCFGMR3QueryGCPtr dq ___LazyLoad___CFGMR3QueryGCPtr
  4444                                 %line 1211+1 /home/se170/VirtualBox-4.3.28/out/linux.amd64/debug/obj/VMMR3LazyImp/VMMR3LazyLoad.asm
  4445 00000160 [0000000000000000]     g_pfnCFGMR3QueryPtr dq ___LazyLoad___CFGMR3QueryPtr
  4446                                 %line 1216+1 /home/se170/VirtualBox-4.3.28/out/linux.amd64/debug/obj/VMMR3LazyImp/VMMR3LazyLoad.asm
  4447 00000168 [0000000000000000]     g_pfnCFGMR3QueryBool dq ___LazyLoad___CFGMR3QueryBool
  4448                                 %line 1221+1 /home/se170/VirtualBox-4.3.28/out/linux.amd64/debug/obj/VMMR3LazyImp/VMMR3LazyLoad.asm
  4449 00000170 [0000000000000000]     g_pfnCFGMR3QueryS8 dq ___LazyLoad___CFGMR3QueryS8
  4450                                 %line 1226+1 /home/se170/VirtualBox-4.3.28/out/linux.amd64/debug/obj/VMMR3LazyImp/VMMR3LazyLoad.asm
  4451 00000178 [0000000000000000]     g_pfnCFGMR3QueryU8 dq ___LazyLoad___CFGMR3QueryU8
  4452                                 %line 1231+1 /home/se170/VirtualBox-4.3.28/out/linux.amd64/debug/obj/VMMR3LazyImp/VMMR3LazyLoad.asm
  4453 00000180 [0000000000000000]     g_pfnCFGMR3QueryS16 dq ___LazyLoad___CFGMR3QueryS16
  4454                                 %line 1236+1 /home/se170/VirtualBox-4.3.28/out/linux.amd64/debug/obj/VMMR3LazyImp/VMMR3LazyLoad.asm
  4455 00000188 [0000000000000000]     g_pfnCFGMR3QueryU16 dq ___LazyLoad___CFGMR3QueryU16
  4456                                 %line 1241+1 /home/se170/VirtualBox-4.3.28/out/linux.amd64/debug/obj/VMMR3LazyImp/VMMR3LazyLoad.asm
  4457 00000190 [0000000000000000]     g_pfnCFGMR3QueryPort dq ___LazyLoad___CFGMR3QueryPort
  4458                                 %line 1246+1 /home/se170/VirtualBox-4.3.28/out/linux.amd64/debug/obj/VMMR3LazyImp/VMMR3LazyLoad.asm
  4459 00000198 [0000000000000000]     g_pfnCFGMR3QueryS32 dq ___LazyLoad___CFGMR3QueryS32
  4460                                 %line 1251+1 /home/se170/VirtualBox-4.3.28/out/linux.amd64/debug/obj/VMMR3LazyImp/VMMR3LazyLoad.asm
  4461 000001A0 [0000000000000000]     g_pfnCFGMR3QuerySInt dq ___LazyLoad___CFGMR3QuerySInt
  4462                                 %line 1256+1 /home/se170/VirtualBox-4.3.28/out/linux.amd64/debug/obj/VMMR3LazyImp/VMMR3LazyLoad.asm
  4463 000001A8 [0000000000000000]     g_pfnCFGMR3QueryU32 dq ___LazyLoad___CFGMR3QueryU32
  4464                                 %line 1261+1 /home/se170/VirtualBox-4.3.28/out/linux.amd64/debug/obj/VMMR3LazyImp/VMMR3LazyLoad.asm
  4465 000001B0 [0000000000000000]     g_pfnCFGMR3QueryUInt dq ___LazyLoad___CFGMR3QueryUInt
  4466                                 %line 1266+1 /home/se170/VirtualBox-4.3.28/out/linux.amd64/debug/obj/VMMR3LazyImp/VMMR3LazyLoad.asm
  4467 000001B8 [0000000000000000]     g_pfnCFGMR3QueryS64 dq ___LazyLoad___CFGMR3QueryS64
  4468                                 %line 1271+1 /home/se170/VirtualBox-4.3.28/out/linux.amd64/debug/obj/VMMR3LazyImp/VMMR3LazyLoad.asm
  4469 000001C0 [0000000000000000]     g_pfnCFGMR3QueryU64 dq ___LazyLoad___CFGMR3QueryU64
  4470                                 %line 1276+1 /home/se170/VirtualBox-4.3.28/out/linux.amd64/debug/obj/VMMR3LazyImp/VMMR3LazyLoad.asm
  4471 000001C8 [0000000000000000]     g_pfnCFGMR3QuerySize dq ___LazyLoad___CFGMR3QuerySize
  4472                                 %line 1281+1 /home/se170/VirtualBox-4.3.28/out/linux.amd64/debug/obj/VMMR3LazyImp/VMMR3LazyLoad.asm
  4473 000001D0 [0000000000000000]     g_pfnCFGMR3QueryType dq ___LazyLoad___CFGMR3QueryType
  4474                                 %line 1286+1 /home/se170/VirtualBox-4.3.28/out/linux.amd64/debug/obj/VMMR3LazyImp/VMMR3LazyLoad.asm
  4475 000001D8 [0000000000000000]     g_pfnCFGMR3AreValuesValid dq ___LazyLoad___CFGMR3AreValuesValid
  4476                                 %line 1291+1 /home/se170/VirtualBox-4.3.28/out/linux.amd64/debug/obj/VMMR3LazyImp/VMMR3LazyLoad.asm
  4477 000001E0 [0000000000000000]     g_pfnCFGMR3AreChildrenValid dq ___LazyLoad___CFGMR3AreChildrenValid
  4478                                 %line 1296+1 /home/se170/VirtualBox-4.3.28/out/linux.amd64/debug/obj/VMMR3LazyImp/VMMR3LazyLoad.asm
  4479 000001E8 [0000000000000000]     g_pfnCFGMR3GetChildFV dq ___LazyLoad___CFGMR3GetChildFV
  4480                                 %line 1301+1 /home/se170/VirtualBox-4.3.28/out/linux.amd64/debug/obj/VMMR3LazyImp/VMMR3LazyLoad.asm
  4481 000001F0 [0000000000000000]     g_pfnCFGMR3GetChildF dq ___LazyLoad___CFGMR3GetChildF
  4482                                 %line 1306+1 /home/se170/VirtualBox-4.3.28/out/linux.amd64/debug/obj/VMMR3LazyImp/VMMR3LazyLoad.asm
  4483 000001F8 [0000000000000000]     g_pfnCFGMR3GetChild dq ___LazyLoad___CFGMR3GetChild
  4484                                 %line 1311+1 /home/se170/VirtualBox-4.3.28/out/linux.amd64/debug/obj/VMMR3LazyImp/VMMR3LazyLoad.asm
  4485 00000200 [0000000000000000]     g_pfnCFGMR3InsertNode dq ___LazyLoad___CFGMR3InsertNode
  4486                                 %line 1316+1 /home/se170/VirtualBox-4.3.28/out/linux.amd64/debug/obj/VMMR3LazyImp/VMMR3LazyLoad.asm
  4487 00000208 [0000000000000000]     g_pfnCFGMR3InsertNodeFV dq ___LazyLoad___CFGMR3InsertNodeFV
  4488                                 %line 1321+1 /home/se170/VirtualBox-4.3.28/out/linux.amd64/debug/obj/VMMR3LazyImp/VMMR3LazyLoad.asm
  4489 00000210 [0000000000000000]     g_pfnCFGMR3InsertNodeF dq ___LazyLoad___CFGMR3InsertNodeF
  4490                                 %line 1326+1 /home/se170/VirtualBox-4.3.28/out/linux.amd64/debug/obj/VMMR3LazyImp/VMMR3LazyLoad.asm
  4491 00000218 [0000000000000000]     g_pfnCFGMR3InsertSubTree dq ___LazyLoad___CFGMR3InsertSubTree
  4492                                 %line 1331+1 /home/se170/VirtualBox-4.3.28/out/linux.amd64/debug/obj/VMMR3LazyImp/VMMR3LazyLoad.asm
  4493 00000220 [0000000000000000]     g_pfnCFGMR3ValidateConfig dq ___LazyLoad___CFGMR3ValidateConfig
  4494                                 %line 1336+1 /home/se170/VirtualBox-4.3.28/out/linux.amd64/debug/obj/VMMR3LazyImp/VMMR3LazyLoad.asm
  4495 00000228 [0000000000000000]     g_pfnCFGMR3QueryBytes dq ___LazyLoad___CFGMR3QueryBytes
  4496                                 %line 1341+1 /home/se170/VirtualBox-4.3.28/out/linux.amd64/debug/obj/VMMR3LazyImp/VMMR3LazyLoad.asm
  4497 00000230 [0000000000000000]     g_pfnCFGMR3QueryStringDef dq ___LazyLoad___CFGMR3QueryStringDef
  4498                                 %line 1346+1 /home/se170/VirtualBox-4.3.28/out/linux.amd64/debug/obj/VMMR3LazyImp/VMMR3LazyLoad.asm
  4499 00000238 [0000000000000000]     g_pfnCFGMR3QueryString dq ___LazyLoad___CFGMR3QueryString
  4500                                 %line 1351+1 /home/se170/VirtualBox-4.3.28/out/linux.amd64/debug/obj/VMMR3LazyImp/VMMR3LazyLoad.asm
  4501 00000240 [0000000000000000]     g_pfnCFGMR3QueryStringAlloc dq ___LazyLoad___CFGMR3QueryStringAlloc
  4502                                 %line 1356+1 /home/se170/VirtualBox-4.3.28/out/linux.amd64/debug/obj/VMMR3LazyImp/VMMR3LazyLoad.asm
  4503 00000248 [0000000000000000]     g_pfnCFGMR3GetParent dq ___LazyLoad___CFGMR3GetParent
  4504                                 %line 1361+1 /home/se170/VirtualBox-4.3.28/out/linux.amd64/debug/obj/VMMR3LazyImp/VMMR3LazyLoad.asm
  4505 00000250 [0000000000000000]     g_pfnCFGMR3GetRootU dq ___LazyLoad___CFGMR3GetRootU
  4506                                 %line 1366+1 /home/se170/VirtualBox-4.3.28/out/linux.amd64/debug/obj/VMMR3LazyImp/VMMR3LazyLoad.asm
  4507 00000258 [0000000000000000]     g_pfnCSAMR3IsEnabled dq ___LazyLoad___CSAMR3IsEnabled
  4508                                 %line 1371+1 /home/se170/VirtualBox-4.3.28/out/linux.amd64/debug/obj/VMMR3LazyImp/VMMR3LazyLoad.asm
  4509 00000260 [0000000000000000]     g_pfnCSAMR3SetScanningEnabled dq ___LazyLoad___CSAMR3SetScanningEnabled
  4510                                 %line 1376+1 /home/se170/VirtualBox-4.3.28/out/linux.amd64/debug/obj/VMMR3LazyImp/VMMR3LazyLoad.asm
  4511 00000268 [0000000000000000]     g_pfnDBGCCreate dq ___LazyLoad___DBGCCreate
  4512                                 %line 1381+1 /home/se170/VirtualBox-4.3.28/out/linux.amd64/debug/obj/VMMR3LazyImp/VMMR3LazyLoad.asm
  4513 00000270 [0000000000000000]     g_pfnDBGFR3CoreWrite dq ___LazyLoad___DBGFR3CoreWrite
  4514                                 %line 1386+1 /home/se170/VirtualBox-4.3.28/out/linux.amd64/debug/obj/VMMR3LazyImp/VMMR3LazyLoad.asm
  4515 00000278 [0000000000000000]     g_pfnDBGFR3Info dq ___LazyLoad___DBGFR3Info
  4516                                 %line 1391+1 /home/se170/VirtualBox-4.3.28/out/linux.amd64/debug/obj/VMMR3LazyImp/VMMR3LazyLoad.asm
  4517 00000280 [0000000000000000]     g_pfnDBGFR3InfoRegisterExternal dq ___LazyLoad___DBGFR3InfoRegisterExternal
  4518                                 %line 1396+1 /home/se170/VirtualBox-4.3.28/out/linux.amd64/debug/obj/VMMR3LazyImp/VMMR3LazyLoad.asm
  4519 00000288 [0000000000000000]     g_pfnDBGFR3InjectNMI dq ___LazyLoad___DBGFR3InjectNMI
  4520                                 %line 1401+1 /home/se170/VirtualBox-4.3.28/out/linux.amd64/debug/obj/VMMR3LazyImp/VMMR3LazyLoad.asm
  4521 00000290 [0000000000000000]     g_pfnDBGFR3LogModifyDestinations dq ___LazyLoad___DBGFR3LogModifyDestinations
  4522                                 %line 1406+1 /home/se170/VirtualBox-4.3.28/out/linux.amd64/debug/obj/VMMR3LazyImp/VMMR3LazyLoad.asm
  4523 00000298 [0000000000000000]     g_pfnDBGFR3LogModifyFlags dq ___LazyLoad___DBGFR3LogModifyFlags
  4524                                 %line 1411+1 /home/se170/VirtualBox-4.3.28/out/linux.amd64/debug/obj/VMMR3LazyImp/VMMR3LazyLoad.asm
  4525 000002A0 [0000000000000000]     g_pfnDBGFR3LogModifyGroups dq ___LazyLoad___DBGFR3LogModifyGroups
  4526                                 %line 1416+1 /home/se170/VirtualBox-4.3.28/out/linux.amd64/debug/obj/VMMR3LazyImp/VMMR3LazyLoad.asm
  4527 000002A8 [0000000000000000]     g_pfnDBGFR3OSDetect dq ___LazyLoad___DBGFR3OSDetect
  4528                                 %line 1421+1 /home/se170/VirtualBox-4.3.28/out/linux.amd64/debug/obj/VMMR3LazyImp/VMMR3LazyLoad.asm
  4529 000002B0 [0000000000000000]     g_pfnDBGFR3OSQueryNameAndVersion dq ___LazyLoad___DBGFR3OSQueryNameAndVersion
  4530                                 %line 1426+1 /home/se170/VirtualBox-4.3.28/out/linux.amd64/debug/obj/VMMR3LazyImp/VMMR3LazyLoad.asm
  4531 000002B8 [0000000000000000]     g_pfnDBGFR3RegCpuQueryU32 dq ___LazyLoad___DBGFR3RegCpuQueryU32
  4532                                 %line 1431+1 /home/se170/VirtualBox-4.3.28/out/linux.amd64/debug/obj/VMMR3LazyImp/VMMR3LazyLoad.asm
  4533 000002C0 [0000000000000000]     g_pfnDBGFR3RegFormatValue dq ___LazyLoad___DBGFR3RegFormatValue
  4534                                 %line 1436+1 /home/se170/VirtualBox-4.3.28/out/linux.amd64/debug/obj/VMMR3LazyImp/VMMR3LazyLoad.asm
  4535 000002C8 [0000000000000000]     g_pfnDBGFR3RegNmQuery dq ___LazyLoad___DBGFR3RegNmQuery
  4536                                 %line 1441+1 /home/se170/VirtualBox-4.3.28/out/linux.amd64/debug/obj/VMMR3LazyImp/VMMR3LazyLoad.asm
  4537 000002D0 [0000000000000000]     g_pfnDBGFR3RegNmQueryAll dq ___LazyLoad___DBGFR3RegNmQueryAll
  4538                                 %line 1446+1 /home/se170/VirtualBox-4.3.28/out/linux.amd64/debug/obj/VMMR3LazyImp/VMMR3LazyLoad.asm
  4539 000002D8 [0000000000000000]     g_pfnDBGFR3RegNmQueryAllCount dq ___LazyLoad___DBGFR3RegNmQueryAllCount
  4540                                 %line 1451+1 /home/se170/VirtualBox-4.3.28/out/linux.amd64/debug/obj/VMMR3LazyImp/VMMR3LazyLoad.asm
  4541 000002E0 [0000000000000000]     g_pfnDBGFR3OSDeregister dq ___LazyLoad___DBGFR3OSDeregister
  4542                                 %line 1456+1 /home/se170/VirtualBox-4.3.28/out/linux.amd64/debug/obj/VMMR3LazyImp/VMMR3LazyLoad.asm
  4543 000002E8 [0000000000000000]     g_pfnDBGFR3OSRegister dq ___LazyLoad___DBGFR3OSRegister
  4544                                 %line 1461+1 /home/se170/VirtualBox-4.3.28/out/linux.amd64/debug/obj/VMMR3LazyImp/VMMR3LazyLoad.asm
  4545 000002F0 [0000000000000000]     g_pfnDBGFR3MemReadString dq ___LazyLoad___DBGFR3MemReadString
  4546                                 %line 1466+1 /home/se170/VirtualBox-4.3.28/out/linux.amd64/debug/obj/VMMR3LazyImp/VMMR3LazyLoad.asm
  4547 000002F8 [0000000000000000]     g_pfnDBGFR3MemRead dq ___LazyLoad___DBGFR3MemRead
  4548                                 %line 1471+1 /home/se170/VirtualBox-4.3.28/out/linux.amd64/debug/obj/VMMR3LazyImp/VMMR3LazyLoad.asm
  4549 00000300 [0000000000000000]     g_pfnDBGFR3MemScan dq ___LazyLoad___DBGFR3MemScan
  4550                                 %line 1476+1 /home/se170/VirtualBox-4.3.28/out/linux.amd64/debug/obj/VMMR3LazyImp/VMMR3LazyLoad.asm
  4551 00000308 [0000000000000000]     g_pfnDBGFR3AddrFromFlat dq ___LazyLoad___DBGFR3AddrFromFlat
  4552                                 %line 1481+1 /home/se170/VirtualBox-4.3.28/out/linux.amd64/debug/obj/VMMR3LazyImp/VMMR3LazyLoad.asm
  4553 00000310 [0000000000000000]     g_pfnDBGFR3AsSymbolByName dq ___LazyLoad___DBGFR3AsSymbolByName
  4554                                 %line 1486+1 /home/se170/VirtualBox-4.3.28/out/linux.amd64/debug/obj/VMMR3LazyImp/VMMR3LazyLoad.asm
  4555 00000318 [0000000000000000]     g_pfnDBGFR3AsResolveAndRetain dq ___LazyLoad___DBGFR3AsResolveAndRetain
  4556                                 %line 1491+1 /home/se170/VirtualBox-4.3.28/out/linux.amd64/debug/obj/VMMR3LazyImp/VMMR3LazyLoad.asm
  4557 00000320 [0000000000000000]     g_pfnDBGFR3AsSetAlias dq ___LazyLoad___DBGFR3AsSetAlias
  4558                                 %line 1496+1 /home/se170/VirtualBox-4.3.28/out/linux.amd64/debug/obj/VMMR3LazyImp/VMMR3LazyLoad.asm
  4559 00000328 [0000000000000000]     g_pfnDBGFR3AddrAdd dq ___LazyLoad___DBGFR3AddrAdd
  4560                                 %line 1501+1 /home/se170/VirtualBox-4.3.28/out/linux.amd64/debug/obj/VMMR3LazyImp/VMMR3LazyLoad.asm
  4561 00000330 [0000000000000000]     g_pfnDBGFR3AddrSub dq ___LazyLoad___DBGFR3AddrSub
  4562                                 %line 1506+1 /home/se170/VirtualBox-4.3.28/out/linux.amd64/debug/obj/VMMR3LazyImp/VMMR3LazyLoad.asm
  4563 00000338 [0000000000000000]     g_pfnDBGFR3AsGetConfig dq ___LazyLoad___DBGFR3AsGetConfig
  4564                                 %line 1511+1 /home/se170/VirtualBox-4.3.28/out/linux.amd64/debug/obj/VMMR3LazyImp/VMMR3LazyLoad.asm
  4565 00000340 [0000000000000000]     g_pfnDBGFR3CpuGetMode dq ___LazyLoad___DBGFR3CpuGetMode
  4566                                 %line 1516+1 /home/se170/VirtualBox-4.3.28/out/linux.amd64/debug/obj/VMMR3LazyImp/VMMR3LazyLoad.asm
  4567 00000348 [0000000000000000]     g_pfnDBGFR3AddrFromSelOff dq ___LazyLoad___DBGFR3AddrFromSelOff
  4568                                 %line 1521+1 /home/se170/VirtualBox-4.3.28/out/linux.amd64/debug/obj/VMMR3LazyImp/VMMR3LazyLoad.asm
  4569 00000350 [0000000000000000]     g_pfnEMR3QueryExecutionPolicy dq ___LazyLoad___EMR3QueryExecutionPolicy
  4570                                 %line 1526+1 /home/se170/VirtualBox-4.3.28/out/linux.amd64/debug/obj/VMMR3LazyImp/VMMR3LazyLoad.asm
  4571 00000358 [0000000000000000]     g_pfnEMR3SetExecutionPolicy dq ___LazyLoad___EMR3SetExecutionPolicy
  4572                                 %line 1531+1 /home/se170/VirtualBox-4.3.28/out/linux.amd64/debug/obj/VMMR3LazyImp/VMMR3LazyLoad.asm
  4573 00000360 [0000000000000000]     g_pfnFTMR3CancelStandby dq ___LazyLoad___FTMR3CancelStandby
  4574                                 %line 1536+1 /home/se170/VirtualBox-4.3.28/out/linux.amd64/debug/obj/VMMR3LazyImp/VMMR3LazyLoad.asm
  4575 00000368 [0000000000000000]     g_pfnFTMR3PowerOn dq ___LazyLoad___FTMR3PowerOn
  4576                                 %line 1541+1 /home/se170/VirtualBox-4.3.28/out/linux.amd64/debug/obj/VMMR3LazyImp/VMMR3LazyLoad.asm
  4577 00000370 [0000000000000000]     g_pfnHMR3IsEnabled dq ___LazyLoad___HMR3IsEnabled
  4578                                 %line 1546+1 /home/se170/VirtualBox-4.3.28/out/linux.amd64/debug/obj/VMMR3LazyImp/VMMR3LazyLoad.asm
  4579 00000378 [0000000000000000]     g_pfnHMR3IsNestedPagingActive dq ___LazyLoad___HMR3IsNestedPagingActive
  4580                                 %line 1551+1 /home/se170/VirtualBox-4.3.28/out/linux.amd64/debug/obj/VMMR3LazyImp/VMMR3LazyLoad.asm
  4581 00000380 [0000000000000000]     g_pfnHMR3IsUXActive dq ___LazyLoad___HMR3IsUXActive
  4582                                 %line 1556+1 /home/se170/VirtualBox-4.3.28/out/linux.amd64/debug/obj/VMMR3LazyImp/VMMR3LazyLoad.asm
  4583 00000388 [0000000000000000]     g_pfnHMR3IsVpidActive dq ___LazyLoad___HMR3IsVpidActive
  4584                                 %line 1561+1 /home/se170/VirtualBox-4.3.28/out/linux.amd64/debug/obj/VMMR3LazyImp/VMMR3LazyLoad.asm
  4585 00000390 [0000000000000000]     g_pfnMMR3HeapFree dq ___LazyLoad___MMR3HeapFree
  4586                                 %line 1566+1 /home/se170/VirtualBox-4.3.28/out/linux.amd64/debug/obj/VMMR3LazyImp/VMMR3LazyLoad.asm
  4587 00000398 [0000000000000000]     g_pfnMMR3HeapRealloc dq ___LazyLoad___MMR3HeapRealloc
  4588                                 %line 1571+1 /home/se170/VirtualBox-4.3.28/out/linux.amd64/debug/obj/VMMR3LazyImp/VMMR3LazyLoad.asm
  4589 000003A0 [0000000000000000]     g_pfnPATMR3AllowPatching dq ___LazyLoad___PATMR3AllowPatching
  4590                                 %line 1576+1 /home/se170/VirtualBox-4.3.28/out/linux.amd64/debug/obj/VMMR3LazyImp/VMMR3LazyLoad.asm
  4591 000003A8 [0000000000000000]     g_pfnPATMR3IsEnabled dq ___LazyLoad___PATMR3IsEnabled
  4592                                 %line 1581+1 /home/se170/VirtualBox-4.3.28/out/linux.amd64/debug/obj/VMMR3LazyImp/VMMR3LazyLoad.asm
  4593 000003B0 [0000000000000000]     g_pfnPDMR3AsyncCompletionBwMgrSetMaxForFile dq ___LazyLoad___PDMR3AsyncCompletionBwMgrSetMaxForFile
  4594                                 %line 1586+1 /home/se170/VirtualBox-4.3.28/out/linux.amd64/debug/obj/VMMR3LazyImp/VMMR3LazyLoad.asm
  4595 000003B8 [0000000000000000]     g_pfnPDMR3DeviceAttach dq ___LazyLoad___PDMR3DeviceAttach
  4596                                 %line 1591+1 /home/se170/VirtualBox-4.3.28/out/linux.amd64/debug/obj/VMMR3LazyImp/VMMR3LazyLoad.asm
  4597 000003C0 [0000000000000000]     g_pfnPDMR3DeviceDetach dq ___LazyLoad___PDMR3DeviceDetach
  4598                                 %line 1596+1 /home/se170/VirtualBox-4.3.28/out/linux.amd64/debug/obj/VMMR3LazyImp/VMMR3LazyLoad.asm
  4599 000003C8 [0000000000000000]     g_pfnPDMR3DriverAttach dq ___LazyLoad___PDMR3DriverAttach
  4600                                 %line 1601+1 /home/se170/VirtualBox-4.3.28/out/linux.amd64/debug/obj/VMMR3LazyImp/VMMR3LazyLoad.asm
  4601 000003D0 [0000000000000000]     g_pfnPDMR3NsBwGroupSetLimit dq ___LazyLoad___PDMR3NsBwGroupSetLimit
  4602                                 %line 1606+1 /home/se170/VirtualBox-4.3.28/out/linux.amd64/debug/obj/VMMR3LazyImp/VMMR3LazyLoad.asm
  4603 000003D8 [0000000000000000]     g_pfnPDMR3QueryDeviceLun dq ___LazyLoad___PDMR3QueryDeviceLun
  4604                                 %line 1611+1 /home/se170/VirtualBox-4.3.28/out/linux.amd64/debug/obj/VMMR3LazyImp/VMMR3LazyLoad.asm
  4605 000003E0 [0000000000000000]     g_pfnPDMR3QueryDriverOnLun dq ___LazyLoad___PDMR3QueryDriverOnLun
  4606                                 %line 1616+1 /home/se170/VirtualBox-4.3.28/out/linux.amd64/debug/obj/VMMR3LazyImp/VMMR3LazyLoad.asm
  4607 000003E8 [0000000000000000]     g_pfnPDMR3QueryLun dq ___LazyLoad___PDMR3QueryLun
  4608                                 %line 1621+1 /home/se170/VirtualBox-4.3.28/out/linux.amd64/debug/obj/VMMR3LazyImp/VMMR3LazyLoad.asm
  4609 000003F0 [0000000000000000]     g_pfnPDMCritSectEnter dq ___LazyLoad___PDMCritSectEnter
  4610                                 %line 1626+1 /home/se170/VirtualBox-4.3.28/out/linux.amd64/debug/obj/VMMR3LazyImp/VMMR3LazyLoad.asm
  4611 000003F8 [0000000000000000]     g_pfnPDMCritSectEnterDebug dq ___LazyLoad___PDMCritSectEnterDebug
  4612                                 %line 1631+1 /home/se170/VirtualBox-4.3.28/out/linux.amd64/debug/obj/VMMR3LazyImp/VMMR3LazyLoad.asm
  4613 00000400 [0000000000000000]     g_pfnPDMCritSectTryEnter dq ___LazyLoad___PDMCritSectTryEnter
  4614                                 %line 1636+1 /home/se170/VirtualBox-4.3.28/out/linux.amd64/debug/obj/VMMR3LazyImp/VMMR3LazyLoad.asm
  4615 00000408 [0000000000000000]     g_pfnPDMCritSectTryEnterDebug dq ___LazyLoad___PDMCritSectTryEnterDebug
  4616                                 %line 1641+1 /home/se170/VirtualBox-4.3.28/out/linux.amd64/debug/obj/VMMR3LazyImp/VMMR3LazyLoad.asm
  4617 00000410 [0000000000000000]     g_pfnPDMR3CritSectEnterEx dq ___LazyLoad___PDMR3CritSectEnterEx
  4618                                 %line 1646+1 /home/se170/VirtualBox-4.3.28/out/linux.amd64/debug/obj/VMMR3LazyImp/VMMR3LazyLoad.asm
  4619 00000418 [0000000000000000]     g_pfnPDMCritSectLeave dq ___LazyLoad___PDMCritSectLeave
  4620                                 %line 1651+1 /home/se170/VirtualBox-4.3.28/out/linux.amd64/debug/obj/VMMR3LazyImp/VMMR3LazyLoad.asm
  4621 00000420 [0000000000000000]     g_pfnPDMCritSectIsOwner dq ___LazyLoad___PDMCritSectIsOwner
  4622                                 %line 1656+1 /home/se170/VirtualBox-4.3.28/out/linux.amd64/debug/obj/VMMR3LazyImp/VMMR3LazyLoad.asm
  4623 00000428 [0000000000000000]     g_pfnPDMCritSectIsOwnerEx dq ___LazyLoad___PDMCritSectIsOwnerEx
  4624                                 %line 1661+1 /home/se170/VirtualBox-4.3.28/out/linux.amd64/debug/obj/VMMR3LazyImp/VMMR3LazyLoad.asm
  4625 00000430 [0000000000000000]     g_pfnPDMCritSectIsOwned dq ___LazyLoad___PDMCritSectIsOwned
  4626                                 %line 1666+1 /home/se170/VirtualBox-4.3.28/out/linux.amd64/debug/obj/VMMR3LazyImp/VMMR3LazyLoad.asm
  4627 00000438 [0000000000000000]     g_pfnPDMCritSectIsInitialized dq ___LazyLoad___PDMCritSectIsInitialized
  4628                                 %line 1671+1 /home/se170/VirtualBox-4.3.28/out/linux.amd64/debug/obj/VMMR3LazyImp/VMMR3LazyLoad.asm
  4629 00000440 [0000000000000000]     g_pfnPDMCritSectHasWaiters dq ___LazyLoad___PDMCritSectHasWaiters
  4630                                 %line 1676+1 /home/se170/VirtualBox-4.3.28/out/linux.amd64/debug/obj/VMMR3LazyImp/VMMR3LazyLoad.asm
  4631 00000448 [0000000000000000]     g_pfnPDMCritSectGetRecursion dq ___LazyLoad___PDMCritSectGetRecursion
  4632                                 %line 1681+1 /home/se170/VirtualBox-4.3.28/out/linux.amd64/debug/obj/VMMR3LazyImp/VMMR3LazyLoad.asm
  4633 00000450 [0000000000000000]     g_pfnPDMR3CritSectYield dq ___LazyLoad___PDMR3CritSectYield
  4634                                 %line 1686+1 /home/se170/VirtualBox-4.3.28/out/linux.amd64/debug/obj/VMMR3LazyImp/VMMR3LazyLoad.asm
  4635 00000458 [0000000000000000]     g_pfnPDMR3CritSectName dq ___LazyLoad___PDMR3CritSectName
  4636                                 %line 1691+1 /home/se170/VirtualBox-4.3.28/out/linux.amd64/debug/obj/VMMR3LazyImp/VMMR3LazyLoad.asm
  4637 00000460 [0000000000000000]     g_pfnPDMR3CritSectScheduleExitEvent dq ___LazyLoad___PDMR3CritSectScheduleExitEvent
  4638                                 %line 1696+1 /home/se170/VirtualBox-4.3.28/out/linux.amd64/debug/obj/VMMR3LazyImp/VMMR3LazyLoad.asm
  4639 00000468 [0000000000000000]     g_pfnPDMR3CritSectDelete dq ___LazyLoad___PDMR3CritSectDelete
  4640                                 %line 1701+1 /home/se170/VirtualBox-4.3.28/out/linux.amd64/debug/obj/VMMR3LazyImp/VMMR3LazyLoad.asm
  4641 00000470 [0000000000000000]     g_pfnPDMR3QueueDestroy dq ___LazyLoad___PDMR3QueueDestroy
  4642                                 %line 1706+1 /home/se170/VirtualBox-4.3.28/out/linux.amd64/debug/obj/VMMR3LazyImp/VMMR3LazyLoad.asm
  4643 00000478 [0000000000000000]     g_pfnPDMQueueAlloc dq ___LazyLoad___PDMQueueAlloc
  4644                                 %line 1711+1 /home/se170/VirtualBox-4.3.28/out/linux.amd64/debug/obj/VMMR3LazyImp/VMMR3LazyLoad.asm
  4645 00000480 [0000000000000000]     g_pfnPDMQueueInsert dq ___LazyLoad___PDMQueueInsert
  4646                                 %line 1716+1 /home/se170/VirtualBox-4.3.28/out/linux.amd64/debug/obj/VMMR3LazyImp/VMMR3LazyLoad.asm
  4647 00000488 [0000000000000000]     g_pfnPDMQueueInsertEx dq ___LazyLoad___PDMQueueInsertEx
  4648                                 %line 1721+1 /home/se170/VirtualBox-4.3.28/out/linux.amd64/debug/obj/VMMR3LazyImp/VMMR3LazyLoad.asm
  4649 00000490 [0000000000000000]     g_pfnPDMQueueR0Ptr dq ___LazyLoad___PDMQueueR0Ptr
  4650                                 %line 1726+1 /home/se170/VirtualBox-4.3.28/out/linux.amd64/debug/obj/VMMR3LazyImp/VMMR3LazyLoad.asm
  4651 00000498 [0000000000000000]     g_pfnPDMQueueRCPtr dq ___LazyLoad___PDMQueueRCPtr
  4652                                 %line 1731+1 /home/se170/VirtualBox-4.3.28/out/linux.amd64/debug/obj/VMMR3LazyImp/VMMR3LazyLoad.asm
  4653 000004A0 [0000000000000000]     g_pfnPDMR3ThreadDestroy dq ___LazyLoad___PDMR3ThreadDestroy
  4654                                 %line 1736+1 /home/se170/VirtualBox-4.3.28/out/linux.amd64/debug/obj/VMMR3LazyImp/VMMR3LazyLoad.asm
  4655 000004A8 [0000000000000000]     g_pfnPDMR3ThreadIAmRunning dq ___LazyLoad___PDMR3ThreadIAmRunning
  4656                                 %line 1741+1 /home/se170/VirtualBox-4.3.28/out/linux.amd64/debug/obj/VMMR3LazyImp/VMMR3LazyLoad.asm
  4657 000004B0 [0000000000000000]     g_pfnPDMR3ThreadIAmSuspending dq ___LazyLoad___PDMR3ThreadIAmSuspending
  4658                                 %line 1746+1 /home/se170/VirtualBox-4.3.28/out/linux.amd64/debug/obj/VMMR3LazyImp/VMMR3LazyLoad.asm
  4659 000004B8 [0000000000000000]     g_pfnPDMR3ThreadResume dq ___LazyLoad___PDMR3ThreadResume
  4660                                 %line 1751+1 /home/se170/VirtualBox-4.3.28/out/linux.amd64/debug/obj/VMMR3LazyImp/VMMR3LazyLoad.asm
  4661 000004C0 [0000000000000000]     g_pfnPDMR3ThreadSleep dq ___LazyLoad___PDMR3ThreadSleep
  4662                                 %line 1756+1 /home/se170/VirtualBox-4.3.28/out/linux.amd64/debug/obj/VMMR3LazyImp/VMMR3LazyLoad.asm
  4663 000004C8 [0000000000000000]     g_pfnPDMR3ThreadSuspend dq ___LazyLoad___PDMR3ThreadSuspend
  4664                                 %line 1761+1 /home/se170/VirtualBox-4.3.28/out/linux.amd64/debug/obj/VMMR3LazyImp/VMMR3LazyLoad.asm
  4665 000004D0 [0000000000000000]     g_pfnPDMR3UsbCreateEmulatedDevice dq ___LazyLoad___PDMR3UsbCreateEmulatedDevice
  4666                                 %line 1766+1 /home/se170/VirtualBox-4.3.28/out/linux.amd64/debug/obj/VMMR3LazyImp/VMMR3LazyLoad.asm
  4667 000004D8 [0000000000000000]     g_pfnPDMR3UsbCreateProxyDevice dq ___LazyLoad___PDMR3UsbCreateProxyDevice
  4668                                 %line 1771+1 /home/se170/VirtualBox-4.3.28/out/linux.amd64/debug/obj/VMMR3LazyImp/VMMR3LazyLoad.asm
  4669 000004E0 [0000000000000000]     g_pfnPDMR3UsbDetachDevice dq ___LazyLoad___PDMR3UsbDetachDevice
  4670                                 %line 1776+1 /home/se170/VirtualBox-4.3.28/out/linux.amd64/debug/obj/VMMR3LazyImp/VMMR3LazyLoad.asm
  4671 000004E8 [0000000000000000]     g_pfnPDMR3UsbHasHub dq ___LazyLoad___PDMR3UsbHasHub
  4672                                 %line 1781+1 /home/se170/VirtualBox-4.3.28/out/linux.amd64/debug/obj/VMMR3LazyImp/VMMR3LazyLoad.asm
  4673 000004F0 [0000000000000000]     g_pfnPGMHandlerPhysicalPageTempOff dq ___LazyLoad___PGMHandlerPhysicalPageTempOff
  4674                                 %line 1786+1 /home/se170/VirtualBox-4.3.28/out/linux.amd64/debug/obj/VMMR3LazyImp/VMMR3LazyLoad.asm
  4675 000004F8 [0000000000000000]     g_pfnPGMPhysReadGCPtr dq ___LazyLoad___PGMPhysReadGCPtr
  4676                                 %line 1791+1 /home/se170/VirtualBox-4.3.28/out/linux.amd64/debug/obj/VMMR3LazyImp/VMMR3LazyLoad.asm
  4677 00000500 [0000000000000000]     g_pfnPGMPhysSimpleDirtyWriteGCPtr dq ___LazyLoad___PGMPhysSimpleDirtyWriteGCPtr
  4678                                 %line 1796+1 /home/se170/VirtualBox-4.3.28/out/linux.amd64/debug/obj/VMMR3LazyImp/VMMR3LazyLoad.asm
  4679 00000508 [0000000000000000]     g_pfnPGMPhysSimpleReadGCPtr dq ___LazyLoad___PGMPhysSimpleReadGCPtr
  4680                                 %line 1801+1 /home/se170/VirtualBox-4.3.28/out/linux.amd64/debug/obj/VMMR3LazyImp/VMMR3LazyLoad.asm
  4681 00000510 [0000000000000000]     g_pfnPGMPhysSimpleWriteGCPhys dq ___LazyLoad___PGMPhysSimpleWriteGCPhys
  4682                                 %line 1806+1 /home/se170/VirtualBox-4.3.28/out/linux.amd64/debug/obj/VMMR3LazyImp/VMMR3LazyLoad.asm
  4683 00000518 [0000000000000000]     g_pfnPGMPhysSimpleWriteGCPtr dq ___LazyLoad___PGMPhysSimpleWriteGCPtr
  4684                                 %line 1811+1 /home/se170/VirtualBox-4.3.28/out/linux.amd64/debug/obj/VMMR3LazyImp/VMMR3LazyLoad.asm
  4685 00000520 [0000000000000000]     g_pfnPGMPhysWriteGCPtr dq ___LazyLoad___PGMPhysWriteGCPtr
  4686                                 %line 1816+1 /home/se170/VirtualBox-4.3.28/out/linux.amd64/debug/obj/VMMR3LazyImp/VMMR3LazyLoad.asm
  4687 00000528 [0000000000000000]     g_pfnPGMShwMakePageWritable dq ___LazyLoad___PGMShwMakePageWritable
  4688                                 %line 1821+1 /home/se170/VirtualBox-4.3.28/out/linux.amd64/debug/obj/VMMR3LazyImp/VMMR3LazyLoad.asm
  4689 00000530 [0000000000000000]     g_pfnPGMR3QueryGlobalMemoryStats dq ___LazyLoad___PGMR3QueryGlobalMemoryStats
  4690                                 %line 1826+1 /home/se170/VirtualBox-4.3.28/out/linux.amd64/debug/obj/VMMR3LazyImp/VMMR3LazyLoad.asm
  4691 00000538 [0000000000000000]     g_pfnPGMR3QueryMemoryStats dq ___LazyLoad___PGMR3QueryMemoryStats
  4692                                 %line 1831+1 /home/se170/VirtualBox-4.3.28/out/linux.amd64/debug/obj/VMMR3LazyImp/VMMR3LazyLoad.asm
  4693 00000540 [0000000000000000]     g_pfnSSMR3Close dq ___LazyLoad___SSMR3Close
  4694                                 %line 1836+1 /home/se170/VirtualBox-4.3.28/out/linux.amd64/debug/obj/VMMR3LazyImp/VMMR3LazyLoad.asm
  4695 00000548 [0000000000000000]     g_pfnSSMR3DeregisterExternal dq ___LazyLoad___SSMR3DeregisterExternal
  4696                                 %line 1841+1 /home/se170/VirtualBox-4.3.28/out/linux.amd64/debug/obj/VMMR3LazyImp/VMMR3LazyLoad.asm
  4697 00000550 [0000000000000000]     g_pfnSSMR3DeregisterInternal dq ___LazyLoad___SSMR3DeregisterInternal
  4698                                 %line 1846+1 /home/se170/VirtualBox-4.3.28/out/linux.amd64/debug/obj/VMMR3LazyImp/VMMR3LazyLoad.asm
  4699 00000558 [0000000000000000]     g_pfnSSMR3GetBool dq ___LazyLoad___SSMR3GetBool
  4700                                 %line 1851+1 /home/se170/VirtualBox-4.3.28/out/linux.amd64/debug/obj/VMMR3LazyImp/VMMR3LazyLoad.asm
  4701 00000560 [0000000000000000]     g_pfnSSMR3GetGCPhys dq ___LazyLoad___SSMR3GetGCPhys
  4702                                 %line 1856+1 /home/se170/VirtualBox-4.3.28/out/linux.amd64/debug/obj/VMMR3LazyImp/VMMR3LazyLoad.asm
  4703 00000568 [0000000000000000]     g_pfnSSMR3GetGCPhys32 dq ___LazyLoad___SSMR3GetGCPhys32
  4704                                 %line 1861+1 /home/se170/VirtualBox-4.3.28/out/linux.amd64/debug/obj/VMMR3LazyImp/VMMR3LazyLoad.asm
  4705 00000570 [0000000000000000]     g_pfnSSMR3GetGCPhys64 dq ___LazyLoad___SSMR3GetGCPhys64
  4706                                 %line 1866+1 /home/se170/VirtualBox-4.3.28/out/linux.amd64/debug/obj/VMMR3LazyImp/VMMR3LazyLoad.asm
  4707 00000578 [0000000000000000]     g_pfnSSMR3GetGCPtr dq ___LazyLoad___SSMR3GetGCPtr
  4708                                 %line 1871+1 /home/se170/VirtualBox-4.3.28/out/linux.amd64/debug/obj/VMMR3LazyImp/VMMR3LazyLoad.asm
  4709 00000580 [0000000000000000]     g_pfnSSMR3GetGCUInt dq ___LazyLoad___SSMR3GetGCUInt
  4710                                 %line 1876+1 /home/se170/VirtualBox-4.3.28/out/linux.amd64/debug/obj/VMMR3LazyImp/VMMR3LazyLoad.asm
  4711 00000588 [0000000000000000]     g_pfnSSMR3GetGCUIntPtr dq ___LazyLoad___SSMR3GetGCUIntPtr
  4712                                 %line 1881+1 /home/se170/VirtualBox-4.3.28/out/linux.amd64/debug/obj/VMMR3LazyImp/VMMR3LazyLoad.asm
  4713 00000590 [0000000000000000]     g_pfnSSMR3GetGCUIntReg dq ___LazyLoad___SSMR3GetGCUIntReg
  4714                                 %line 1886+1 /home/se170/VirtualBox-4.3.28/out/linux.amd64/debug/obj/VMMR3LazyImp/VMMR3LazyLoad.asm
  4715 00000598 [0000000000000000]     g_pfnSSMR3GetIOPort dq ___LazyLoad___SSMR3GetIOPort
  4716                                 %line 1891+1 /home/se170/VirtualBox-4.3.28/out/linux.amd64/debug/obj/VMMR3LazyImp/VMMR3LazyLoad.asm
  4717 000005A0 [0000000000000000]     g_pfnSSMR3GetMem dq ___LazyLoad___SSMR3GetMem
  4718                                 %line 1896+1 /home/se170/VirtualBox-4.3.28/out/linux.amd64/debug/obj/VMMR3LazyImp/VMMR3LazyLoad.asm
  4719 000005A8 [0000000000000000]     g_pfnSSMR3GetRCPtr dq ___LazyLoad___SSMR3GetRCPtr
  4720                                 %line 1901+1 /home/se170/VirtualBox-4.3.28/out/linux.amd64/debug/obj/VMMR3LazyImp/VMMR3LazyLoad.asm
  4721 000005B0 [0000000000000000]     g_pfnSSMR3GetS128 dq ___LazyLoad___SSMR3GetS128
  4722                                 %line 1906+1 /home/se170/VirtualBox-4.3.28/out/linux.amd64/debug/obj/VMMR3LazyImp/VMMR3LazyLoad.asm
  4723 000005B8 [0000000000000000]     g_pfnSSMR3GetS16 dq ___LazyLoad___SSMR3GetS16
  4724                                 %line 1911+1 /home/se170/VirtualBox-4.3.28/out/linux.amd64/debug/obj/VMMR3LazyImp/VMMR3LazyLoad.asm
  4725 000005C0 [0000000000000000]     g_pfnSSMR3GetS32 dq ___LazyLoad___SSMR3GetS32
  4726                                 %line 1916+1 /home/se170/VirtualBox-4.3.28/out/linux.amd64/debug/obj/VMMR3LazyImp/VMMR3LazyLoad.asm
  4727 000005C8 [0000000000000000]     g_pfnSSMR3GetS64 dq ___LazyLoad___SSMR3GetS64
  4728                                 %line 1921+1 /home/se170/VirtualBox-4.3.28/out/linux.amd64/debug/obj/VMMR3LazyImp/VMMR3LazyLoad.asm
  4729 000005D0 [0000000000000000]     g_pfnSSMR3GetS8 dq ___LazyLoad___SSMR3GetS8
  4730                                 %line 1926+1 /home/se170/VirtualBox-4.3.28/out/linux.amd64/debug/obj/VMMR3LazyImp/VMMR3LazyLoad.asm
  4731 000005D8 [0000000000000000]     g_pfnSSMR3GetSInt dq ___LazyLoad___SSMR3GetSInt
  4732                                 %line 1931+1 /home/se170/VirtualBox-4.3.28/out/linux.amd64/debug/obj/VMMR3LazyImp/VMMR3LazyLoad.asm
  4733 000005E0 [0000000000000000]     g_pfnSSMR3GetSel dq ___LazyLoad___SSMR3GetSel
  4734                                 %line 1936+1 /home/se170/VirtualBox-4.3.28/out/linux.amd64/debug/obj/VMMR3LazyImp/VMMR3LazyLoad.asm
  4735 000005E8 [0000000000000000]     g_pfnSSMR3GetStrZ dq ___LazyLoad___SSMR3GetStrZ
  4736                                 %line 1941+1 /home/se170/VirtualBox-4.3.28/out/linux.amd64/debug/obj/VMMR3LazyImp/VMMR3LazyLoad.asm
  4737 000005F0 [0000000000000000]     g_pfnSSMR3GetStrZEx dq ___LazyLoad___SSMR3GetStrZEx
  4738                                 %line 1946+1 /home/se170/VirtualBox-4.3.28/out/linux.amd64/debug/obj/VMMR3LazyImp/VMMR3LazyLoad.asm
  4739 000005F8 [0000000000000000]     g_pfnSSMR3GetStruct dq ___LazyLoad___SSMR3GetStruct
  4740                                 %line 1951+1 /home/se170/VirtualBox-4.3.28/out/linux.amd64/debug/obj/VMMR3LazyImp/VMMR3LazyLoad.asm
  4741 00000600 [0000000000000000]     g_pfnSSMR3GetStructEx dq ___LazyLoad___SSMR3GetStructEx
  4742                                 %line 1956+1 /home/se170/VirtualBox-4.3.28/out/linux.amd64/debug/obj/VMMR3LazyImp/VMMR3LazyLoad.asm
  4743 00000608 [0000000000000000]     g_pfnSSMR3GetU128 dq ___LazyLoad___SSMR3GetU128
  4744                                 %line 1961+1 /home/se170/VirtualBox-4.3.28/out/linux.amd64/debug/obj/VMMR3LazyImp/VMMR3LazyLoad.asm
  4745 00000610 [0000000000000000]     g_pfnSSMR3GetU16 dq ___LazyLoad___SSMR3GetU16
  4746                                 %line 1966+1 /home/se170/VirtualBox-4.3.28/out/linux.amd64/debug/obj/VMMR3LazyImp/VMMR3LazyLoad.asm
  4747 00000618 [0000000000000000]     g_pfnSSMR3GetU32 dq ___LazyLoad___SSMR3GetU32
  4748                                 %line 1971+1 /home/se170/VirtualBox-4.3.28/out/linux.amd64/debug/obj/VMMR3LazyImp/VMMR3LazyLoad.asm
  4749 00000620 [0000000000000000]     g_pfnSSMR3GetU64 dq ___LazyLoad___SSMR3GetU64
  4750                                 %line 1976+1 /home/se170/VirtualBox-4.3.28/out/linux.amd64/debug/obj/VMMR3LazyImp/VMMR3LazyLoad.asm
  4751 00000628 [0000000000000000]     g_pfnSSMR3GetU8 dq ___LazyLoad___SSMR3GetU8
  4752                                 %line 1981+1 /home/se170/VirtualBox-4.3.28/out/linux.amd64/debug/obj/VMMR3LazyImp/VMMR3LazyLoad.asm
  4753 00000630 [0000000000000000]     g_pfnSSMR3GetUInt dq ___LazyLoad___SSMR3GetUInt
  4754                                 %line 1986+1 /home/se170/VirtualBox-4.3.28/out/linux.amd64/debug/obj/VMMR3LazyImp/VMMR3LazyLoad.asm
  4755 00000638 [0000000000000000]     g_pfnSSMR3HandleGetAfter dq ___LazyLoad___SSMR3HandleGetAfter
  4756                                 %line 1991+1 /home/se170/VirtualBox-4.3.28/out/linux.amd64/debug/obj/VMMR3LazyImp/VMMR3LazyLoad.asm
  4757 00000640 [0000000000000000]     g_pfnSSMR3HandleGetStatus dq ___LazyLoad___SSMR3HandleGetStatus
  4758                                 %line 1996+1 /home/se170/VirtualBox-4.3.28/out/linux.amd64/debug/obj/VMMR3LazyImp/VMMR3LazyLoad.asm
  4759 00000648 [0000000000000000]     g_pfnSSMR3HandleHostBits dq ___LazyLoad___SSMR3HandleHostBits
  4760                                 %line 2001+1 /home/se170/VirtualBox-4.3.28/out/linux.amd64/debug/obj/VMMR3LazyImp/VMMR3LazyLoad.asm
  4761 00000650 [0000000000000000]     g_pfnSSMR3HandleHostOSAndArch dq ___LazyLoad___SSMR3HandleHostOSAndArch
  4762                                 %line 2006+1 /home/se170/VirtualBox-4.3.28/out/linux.amd64/debug/obj/VMMR3LazyImp/VMMR3LazyLoad.asm
  4763 00000658 [0000000000000000]     g_pfnSSMR3HandleIsLiveSave dq ___LazyLoad___SSMR3HandleIsLiveSave
  4764                                 %line 2011+1 /home/se170/VirtualBox-4.3.28/out/linux.amd64/debug/obj/VMMR3LazyImp/VMMR3LazyLoad.asm
  4765 00000660 [0000000000000000]     g_pfnSSMR3HandleMaxDowntime dq ___LazyLoad___SSMR3HandleMaxDowntime
  4766                                 %line 2016+1 /home/se170/VirtualBox-4.3.28/out/linux.amd64/debug/obj/VMMR3LazyImp/VMMR3LazyLoad.asm
  4767 00000668 [0000000000000000]     g_pfnSSMR3HandleReportLivePercent dq ___LazyLoad___SSMR3HandleReportLivePercent
  4768                                 %line 2021+1 /home/se170/VirtualBox-4.3.28/out/linux.amd64/debug/obj/VMMR3LazyImp/VMMR3LazyLoad.asm
  4769 00000670 [0000000000000000]     g_pfnSSMR3HandleRevision dq ___LazyLoad___SSMR3HandleRevision
  4770                                 %line 2026+1 /home/se170/VirtualBox-4.3.28/out/linux.amd64/debug/obj/VMMR3LazyImp/VMMR3LazyLoad.asm
  4771 00000678 [0000000000000000]     g_pfnSSMR3HandleSetStatus dq ___LazyLoad___SSMR3HandleSetStatus
  4772                                 %line 2031+1 /home/se170/VirtualBox-4.3.28/out/linux.amd64/debug/obj/VMMR3LazyImp/VMMR3LazyLoad.asm
  4773 00000680 [0000000000000000]     g_pfnSSMR3HandleVersion dq ___LazyLoad___SSMR3HandleVersion
  4774                                 %line 2036+1 /home/se170/VirtualBox-4.3.28/out/linux.amd64/debug/obj/VMMR3LazyImp/VMMR3LazyLoad.asm
  4775 00000688 [0000000000000000]     g_pfnSSMR3Open dq ___LazyLoad___SSMR3Open
  4776                                 %line 2041+1 /home/se170/VirtualBox-4.3.28/out/linux.amd64/debug/obj/VMMR3LazyImp/VMMR3LazyLoad.asm
  4777 00000690 [0000000000000000]     g_pfnSSMR3PutBool dq ___LazyLoad___SSMR3PutBool
  4778                                 %line 2046+1 /home/se170/VirtualBox-4.3.28/out/linux.amd64/debug/obj/VMMR3LazyImp/VMMR3LazyLoad.asm
  4779 00000698 [0000000000000000]     g_pfnSSMR3PutGCPhys dq ___LazyLoad___SSMR3PutGCPhys
  4780                                 %line 2051+1 /home/se170/VirtualBox-4.3.28/out/linux.amd64/debug/obj/VMMR3LazyImp/VMMR3LazyLoad.asm
  4781 000006A0 [0000000000000000]     g_pfnSSMR3PutGCPhys32 dq ___LazyLoad___SSMR3PutGCPhys32
  4782                                 %line 2056+1 /home/se170/VirtualBox-4.3.28/out/linux.amd64/debug/obj/VMMR3LazyImp/VMMR3LazyLoad.asm
  4783 000006A8 [0000000000000000]     g_pfnSSMR3PutGCPhys64 dq ___LazyLoad___SSMR3PutGCPhys64
  4784                                 %line 2061+1 /home/se170/VirtualBox-4.3.28/out/linux.amd64/debug/obj/VMMR3LazyImp/VMMR3LazyLoad.asm
  4785 000006B0 [0000000000000000]     g_pfnSSMR3PutGCPtr dq ___LazyLoad___SSMR3PutGCPtr
  4786                                 %line 2066+1 /home/se170/VirtualBox-4.3.28/out/linux.amd64/debug/obj/VMMR3LazyImp/VMMR3LazyLoad.asm
  4787 000006B8 [0000000000000000]     g_pfnSSMR3PutGCUInt dq ___LazyLoad___SSMR3PutGCUInt
  4788                                 %line 2071+1 /home/se170/VirtualBox-4.3.28/out/linux.amd64/debug/obj/VMMR3LazyImp/VMMR3LazyLoad.asm
  4789 000006C0 [0000000000000000]     g_pfnSSMR3PutGCUIntPtr dq ___LazyLoad___SSMR3PutGCUIntPtr
  4790                                 %line 2076+1 /home/se170/VirtualBox-4.3.28/out/linux.amd64/debug/obj/VMMR3LazyImp/VMMR3LazyLoad.asm
  4791 000006C8 [0000000000000000]     g_pfnSSMR3PutGCUIntReg dq ___LazyLoad___SSMR3PutGCUIntReg
  4792                                 %line 2081+1 /home/se170/VirtualBox-4.3.28/out/linux.amd64/debug/obj/VMMR3LazyImp/VMMR3LazyLoad.asm
  4793 000006D0 [0000000000000000]     g_pfnSSMR3PutIOPort dq ___LazyLoad___SSMR3PutIOPort
  4794                                 %line 2086+1 /home/se170/VirtualBox-4.3.28/out/linux.amd64/debug/obj/VMMR3LazyImp/VMMR3LazyLoad.asm
  4795 000006D8 [0000000000000000]     g_pfnSSMR3PutMem dq ___LazyLoad___SSMR3PutMem
  4796                                 %line 2091+1 /home/se170/VirtualBox-4.3.28/out/linux.amd64/debug/obj/VMMR3LazyImp/VMMR3LazyLoad.asm
  4797 000006E0 [0000000000000000]     g_pfnSSMR3PutRCPtr dq ___LazyLoad___SSMR3PutRCPtr
  4798                                 %line 2096+1 /home/se170/VirtualBox-4.3.28/out/linux.amd64/debug/obj/VMMR3LazyImp/VMMR3LazyLoad.asm
  4799 000006E8 [0000000000000000]     g_pfnSSMR3PutS128 dq ___LazyLoad___SSMR3PutS128
  4800                                 %line 2101+1 /home/se170/VirtualBox-4.3.28/out/linux.amd64/debug/obj/VMMR3LazyImp/VMMR3LazyLoad.asm
  4801 000006F0 [0000000000000000]     g_pfnSSMR3PutS16 dq ___LazyLoad___SSMR3PutS16
  4802                                 %line 2106+1 /home/se170/VirtualBox-4.3.28/out/linux.amd64/debug/obj/VMMR3LazyImp/VMMR3LazyLoad.asm
  4803 000006F8 [0000000000000000]     g_pfnSSMR3PutS32 dq ___LazyLoad___SSMR3PutS32
  4804                                 %line 2111+1 /home/se170/VirtualBox-4.3.28/out/linux.amd64/debug/obj/VMMR3LazyImp/VMMR3LazyLoad.asm
  4805 00000700 [0000000000000000]     g_pfnSSMR3PutS64 dq ___LazyLoad___SSMR3PutS64
  4806                                 %line 2116+1 /home/se170/VirtualBox-4.3.28/out/linux.amd64/debug/obj/VMMR3LazyImp/VMMR3LazyLoad.asm
  4807 00000708 [0000000000000000]     g_pfnSSMR3PutS8 dq ___LazyLoad___SSMR3PutS8
  4808                                 %line 2121+1 /home/se170/VirtualBox-4.3.28/out/linux.amd64/debug/obj/VMMR3LazyImp/VMMR3LazyLoad.asm
  4809 00000710 [0000000000000000]     g_pfnSSMR3PutSInt dq ___LazyLoad___SSMR3PutSInt
  4810                                 %line 2126+1 /home/se170/VirtualBox-4.3.28/out/linux.amd64/debug/obj/VMMR3LazyImp/VMMR3LazyLoad.asm
  4811 00000718 [0000000000000000]     g_pfnSSMR3PutSel dq ___LazyLoad___SSMR3PutSel
  4812                                 %line 2131+1 /home/se170/VirtualBox-4.3.28/out/linux.amd64/debug/obj/VMMR3LazyImp/VMMR3LazyLoad.asm
  4813 00000720 [0000000000000000]     g_pfnSSMR3PutStrZ dq ___LazyLoad___SSMR3PutStrZ
  4814                                 %line 2136+1 /home/se170/VirtualBox-4.3.28/out/linux.amd64/debug/obj/VMMR3LazyImp/VMMR3LazyLoad.asm
  4815 00000728 [0000000000000000]     g_pfnSSMR3PutStruct dq ___LazyLoad___SSMR3PutStruct
  4816                                 %line 2141+1 /home/se170/VirtualBox-4.3.28/out/linux.amd64/debug/obj/VMMR3LazyImp/VMMR3LazyLoad.asm
  4817 00000730 [0000000000000000]     g_pfnSSMR3PutStructEx dq ___LazyLoad___SSMR3PutStructEx
  4818                                 %line 2146+1 /home/se170/VirtualBox-4.3.28/out/linux.amd64/debug/obj/VMMR3LazyImp/VMMR3LazyLoad.asm
  4819 00000738 [0000000000000000]     g_pfnSSMR3PutU128 dq ___LazyLoad___SSMR3PutU128
  4820                                 %line 2151+1 /home/se170/VirtualBox-4.3.28/out/linux.amd64/debug/obj/VMMR3LazyImp/VMMR3LazyLoad.asm
  4821 00000740 [0000000000000000]     g_pfnSSMR3PutU16 dq ___LazyLoad___SSMR3PutU16
  4822                                 %line 2156+1 /home/se170/VirtualBox-4.3.28/out/linux.amd64/debug/obj/VMMR3LazyImp/VMMR3LazyLoad.asm
  4823 00000748 [0000000000000000]     g_pfnSSMR3PutU32 dq ___LazyLoad___SSMR3PutU32
  4824                                 %line 2161+1 /home/se170/VirtualBox-4.3.28/out/linux.amd64/debug/obj/VMMR3LazyImp/VMMR3LazyLoad.asm
  4825 00000750 [0000000000000000]     g_pfnSSMR3PutU64 dq ___LazyLoad___SSMR3PutU64
  4826                                 %line 2166+1 /home/se170/VirtualBox-4.3.28/out/linux.amd64/debug/obj/VMMR3LazyImp/VMMR3LazyLoad.asm
  4827 00000758 [0000000000000000]     g_pfnSSMR3PutU8 dq ___LazyLoad___SSMR3PutU8
  4828                                 %line 2171+1 /home/se170/VirtualBox-4.3.28/out/linux.amd64/debug/obj/VMMR3LazyImp/VMMR3LazyLoad.asm
  4829 00000760 [0000000000000000]     g_pfnSSMR3PutUInt dq ___LazyLoad___SSMR3PutUInt
  4830                                 %line 2176+1 /home/se170/VirtualBox-4.3.28/out/linux.amd64/debug/obj/VMMR3LazyImp/VMMR3LazyLoad.asm
  4831 00000768 [0000000000000000]     g_pfnSSMR3Seek dq ___LazyLoad___SSMR3Seek
  4832                                 %line 2181+1 /home/se170/VirtualBox-4.3.28/out/linux.amd64/debug/obj/VMMR3LazyImp/VMMR3LazyLoad.asm
  4833 00000770 [0000000000000000]     g_pfnSSMR3SetCfgError dq ___LazyLoad___SSMR3SetCfgError
  4834                                 %line 2186+1 /home/se170/VirtualBox-4.3.28/out/linux.amd64/debug/obj/VMMR3LazyImp/VMMR3LazyLoad.asm
  4835 00000778 [0000000000000000]     g_pfnSSMR3SetLoadError dq ___LazyLoad___SSMR3SetLoadError
  4836                                 %line 2191+1 /home/se170/VirtualBox-4.3.28/out/linux.amd64/debug/obj/VMMR3LazyImp/VMMR3LazyLoad.asm
  4837 00000780 [0000000000000000]     g_pfnSSMR3SetLoadErrorV dq ___LazyLoad___SSMR3SetLoadErrorV
  4838                                 %line 2196+1 /home/se170/VirtualBox-4.3.28/out/linux.amd64/debug/obj/VMMR3LazyImp/VMMR3LazyLoad.asm
  4839 00000788 [0000000000000000]     g_pfnSSMR3Skip dq ___LazyLoad___SSMR3Skip
  4840                                 %line 2201+1 /home/se170/VirtualBox-4.3.28/out/linux.amd64/debug/obj/VMMR3LazyImp/VMMR3LazyLoad.asm
  4841 00000790 [0000000000000000]     g_pfnSSMR3SkipToEndOfUnit dq ___LazyLoad___SSMR3SkipToEndOfUnit
  4842                                 %line 2206+1 /home/se170/VirtualBox-4.3.28/out/linux.amd64/debug/obj/VMMR3LazyImp/VMMR3LazyLoad.asm
  4843 00000798 [0000000000000000]     g_pfnSSMR3ValidateFile dq ___LazyLoad___SSMR3ValidateFile
  4844                                 %line 2211+1 /home/se170/VirtualBox-4.3.28/out/linux.amd64/debug/obj/VMMR3LazyImp/VMMR3LazyLoad.asm
  4845 000007A0 [0000000000000000]     g_pfnSSMR3Cancel dq ___LazyLoad___SSMR3Cancel
  4846                                 %line 2216+1 /home/se170/VirtualBox-4.3.28/out/linux.amd64/debug/obj/VMMR3LazyImp/VMMR3LazyLoad.asm
  4847 000007A8 [0000000000000000]     g_pfnSSMR3RegisterExternal dq ___LazyLoad___SSMR3RegisterExternal
  4848                                 %line 2221+1 /home/se170/VirtualBox-4.3.28/out/linux.amd64/debug/obj/VMMR3LazyImp/VMMR3LazyLoad.asm
  4849 000007B0 [0000000000000000]     g_pfnSTAMR3Dump dq ___LazyLoad___STAMR3Dump
  4850                                 %line 2226+1 /home/se170/VirtualBox-4.3.28/out/linux.amd64/debug/obj/VMMR3LazyImp/VMMR3LazyLoad.asm
  4851 000007B8 [0000000000000000]     g_pfnSTAMR3Enum dq ___LazyLoad___STAMR3Enum
  4852                                 %line 2231+1 /home/se170/VirtualBox-4.3.28/out/linux.amd64/debug/obj/VMMR3LazyImp/VMMR3LazyLoad.asm
  4853 000007C0 [0000000000000000]     g_pfnSTAMR3Reset dq ___LazyLoad___STAMR3Reset
  4854                                 %line 2236+1 /home/se170/VirtualBox-4.3.28/out/linux.amd64/debug/obj/VMMR3LazyImp/VMMR3LazyLoad.asm
  4855 000007C8 [0000000000000000]     g_pfnSTAMR3Snapshot dq ___LazyLoad___STAMR3Snapshot
  4856                                 %line 2241+1 /home/se170/VirtualBox-4.3.28/out/linux.amd64/debug/obj/VMMR3LazyImp/VMMR3LazyLoad.asm
  4857 000007D0 [0000000000000000]     g_pfnSTAMR3SnapshotFree dq ___LazyLoad___STAMR3SnapshotFree
  4858                                 %line 2246+1 /home/se170/VirtualBox-4.3.28/out/linux.amd64/debug/obj/VMMR3LazyImp/VMMR3LazyLoad.asm
  4859 000007D8 [0000000000000000]     g_pfnSTAMR3GetUnit dq ___LazyLoad___STAMR3GetUnit
  4860                                 %line 2251+1 /home/se170/VirtualBox-4.3.28/out/linux.amd64/debug/obj/VMMR3LazyImp/VMMR3LazyLoad.asm
  4861 000007E0 [0000000000000000]     g_pfnTMR3TimerSetCritSect dq ___LazyLoad___TMR3TimerSetCritSect
  4862                                 %line 2256+1 /home/se170/VirtualBox-4.3.28/out/linux.amd64/debug/obj/VMMR3LazyImp/VMMR3LazyLoad.asm
  4863 000007E8 [0000000000000000]     g_pfnTMR3TimerLoad dq ___LazyLoad___TMR3TimerLoad
  4864                                 %line 2261+1 /home/se170/VirtualBox-4.3.28/out/linux.amd64/debug/obj/VMMR3LazyImp/VMMR3LazyLoad.asm
  4865 000007F0 [0000000000000000]     g_pfnTMR3TimerSave dq ___LazyLoad___TMR3TimerSave
  4866                                 %line 2266+1 /home/se170/VirtualBox-4.3.28/out/linux.amd64/debug/obj/VMMR3LazyImp/VMMR3LazyLoad.asm
  4867 000007F8 [0000000000000000]     g_pfnTMR3TimerDestroy dq ___LazyLoad___TMR3TimerDestroy
  4868                                 %line 2271+1 /home/se170/VirtualBox-4.3.28/out/linux.amd64/debug/obj/VMMR3LazyImp/VMMR3LazyLoad.asm
  4869 00000800 [0000000000000000]     g_pfnTMTimerFromMicro dq ___LazyLoad___TMTimerFromMicro
  4870                                 %line 2276+1 /home/se170/VirtualBox-4.3.28/out/linux.amd64/debug/obj/VMMR3LazyImp/VMMR3LazyLoad.asm
  4871 00000808 [0000000000000000]     g_pfnTMTimerFromMilli dq ___LazyLoad___TMTimerFromMilli
  4872                                 %line 2281+1 /home/se170/VirtualBox-4.3.28/out/linux.amd64/debug/obj/VMMR3LazyImp/VMMR3LazyLoad.asm
  4873 00000810 [0000000000000000]     g_pfnTMTimerFromNano dq ___LazyLoad___TMTimerFromNano
  4874                                 %line 2286+1 /home/se170/VirtualBox-4.3.28/out/linux.amd64/debug/obj/VMMR3LazyImp/VMMR3LazyLoad.asm
  4875 00000818 [0000000000000000]     g_pfnTMTimerGet dq ___LazyLoad___TMTimerGet
  4876                                 %line 2291+1 /home/se170/VirtualBox-4.3.28/out/linux.amd64/debug/obj/VMMR3LazyImp/VMMR3LazyLoad.asm
  4877 00000820 [0000000000000000]     g_pfnTMTimerGetFreq dq ___LazyLoad___TMTimerGetFreq
  4878                                 %line 2296+1 /home/se170/VirtualBox-4.3.28/out/linux.amd64/debug/obj/VMMR3LazyImp/VMMR3LazyLoad.asm
  4879 00000828 [0000000000000000]     g_pfnTMTimerGetMicro dq ___LazyLoad___TMTimerGetMicro
  4880                                 %line 2301+1 /home/se170/VirtualBox-4.3.28/out/linux.amd64/debug/obj/VMMR3LazyImp/VMMR3LazyLoad.asm
  4881 00000830 [0000000000000000]     g_pfnTMTimerGetMilli dq ___LazyLoad___TMTimerGetMilli
  4882                                 %line 2306+1 /home/se170/VirtualBox-4.3.28/out/linux.amd64/debug/obj/VMMR3LazyImp/VMMR3LazyLoad.asm
  4883 00000838 [0000000000000000]     g_pfnTMTimerGetNano dq ___LazyLoad___TMTimerGetNano
  4884                                 %line 2311+1 /home/se170/VirtualBox-4.3.28/out/linux.amd64/debug/obj/VMMR3LazyImp/VMMR3LazyLoad.asm
  4885 00000840 [0000000000000000]     g_pfnTMTimerIsActive dq ___LazyLoad___TMTimerIsActive
  4886                                 %line 2316+1 /home/se170/VirtualBox-4.3.28/out/linux.amd64/debug/obj/VMMR3LazyImp/VMMR3LazyLoad.asm
  4887 00000848 [0000000000000000]     g_pfnTMTimerIsLockOwner dq ___LazyLoad___TMTimerIsLockOwner
  4888                                 %line 2321+1 /home/se170/VirtualBox-4.3.28/out/linux.amd64/debug/obj/VMMR3LazyImp/VMMR3LazyLoad.asm
  4889 00000850 [0000000000000000]     g_pfnTMTimerLock dq ___LazyLoad___TMTimerLock
  4890                                 %line 2326+1 /home/se170/VirtualBox-4.3.28/out/linux.amd64/debug/obj/VMMR3LazyImp/VMMR3LazyLoad.asm
  4891 00000858 [0000000000000000]     g_pfnTMTimerR0Ptr dq ___LazyLoad___TMTimerR0Ptr
  4892                                 %line 2331+1 /home/se170/VirtualBox-4.3.28/out/linux.amd64/debug/obj/VMMR3LazyImp/VMMR3LazyLoad.asm
  4893 00000860 [0000000000000000]     g_pfnTMTimerR3Ptr dq ___LazyLoad___TMTimerR3Ptr
  4894                                 %line 2336+1 /home/se170/VirtualBox-4.3.28/out/linux.amd64/debug/obj/VMMR3LazyImp/VMMR3LazyLoad.asm
  4895 00000868 [0000000000000000]     g_pfnTMTimerRCPtr dq ___LazyLoad___TMTimerRCPtr
  4896                                 %line 2341+1 /home/se170/VirtualBox-4.3.28/out/linux.amd64/debug/obj/VMMR3LazyImp/VMMR3LazyLoad.asm
  4897 00000870 [0000000000000000]     g_pfnTMTimerSet dq ___LazyLoad___TMTimerSet
  4898                                 %line 2346+1 /home/se170/VirtualBox-4.3.28/out/linux.amd64/debug/obj/VMMR3LazyImp/VMMR3LazyLoad.asm
  4899 00000878 [0000000000000000]     g_pfnTMTimerSetFrequencyHint dq ___LazyLoad___TMTimerSetFrequencyHint
  4900                                 %line 2351+1 /home/se170/VirtualBox-4.3.28/out/linux.amd64/debug/obj/VMMR3LazyImp/VMMR3LazyLoad.asm
  4901 00000880 [0000000000000000]     g_pfnTMTimerSetMicro dq ___LazyLoad___TMTimerSetMicro
  4902                                 %line 2356+1 /home/se170/VirtualBox-4.3.28/out/linux.amd64/debug/obj/VMMR3LazyImp/VMMR3LazyLoad.asm
  4903 00000888 [0000000000000000]     g_pfnTMTimerSetMillies dq ___LazyLoad___TMTimerSetMillies
  4904                                 %line 2361+1 /home/se170/VirtualBox-4.3.28/out/linux.amd64/debug/obj/VMMR3LazyImp/VMMR3LazyLoad.asm
  4905 00000890 [0000000000000000]     g_pfnTMTimerSetNano dq ___LazyLoad___TMTimerSetNano
  4906                                 %line 2366+1 /home/se170/VirtualBox-4.3.28/out/linux.amd64/debug/obj/VMMR3LazyImp/VMMR3LazyLoad.asm
  4907 00000898 [0000000000000000]     g_pfnTMTimerSetRelative dq ___LazyLoad___TMTimerSetRelative
  4908                                 %line 2371+1 /home/se170/VirtualBox-4.3.28/out/linux.amd64/debug/obj/VMMR3LazyImp/VMMR3LazyLoad.asm
  4909 000008A0 [0000000000000000]     g_pfnTMTimerStop dq ___LazyLoad___TMTimerStop
  4910                                 %line 2376+1 /home/se170/VirtualBox-4.3.28/out/linux.amd64/debug/obj/VMMR3LazyImp/VMMR3LazyLoad.asm
  4911 000008A8 [0000000000000000]     g_pfnTMTimerToMicro dq ___LazyLoad___TMTimerToMicro
  4912                                 %line 2381+1 /home/se170/VirtualBox-4.3.28/out/linux.amd64/debug/obj/VMMR3LazyImp/VMMR3LazyLoad.asm
  4913 000008B0 [0000000000000000]     g_pfnTMTimerToMilli dq ___LazyLoad___TMTimerToMilli
  4914                                 %line 2386+1 /home/se170/VirtualBox-4.3.28/out/linux.amd64/debug/obj/VMMR3LazyImp/VMMR3LazyLoad.asm
  4915 000008B8 [0000000000000000]     g_pfnTMTimerToNano dq ___LazyLoad___TMTimerToNano
  4916                                 %line 2391+1 /home/se170/VirtualBox-4.3.28/out/linux.amd64/debug/obj/VMMR3LazyImp/VMMR3LazyLoad.asm
  4917 000008C0 [0000000000000000]     g_pfnTMTimerUnlock dq ___LazyLoad___TMTimerUnlock
  4918                                 %line 2396+1 /home/se170/VirtualBox-4.3.28/out/linux.amd64/debug/obj/VMMR3LazyImp/VMMR3LazyLoad.asm
  4919 000008C8 [0000000000000000]     g_pfnTMR3GetWarpDrive dq ___LazyLoad___TMR3GetWarpDrive
  4920                                 %line 2401+1 /home/se170/VirtualBox-4.3.28/out/linux.amd64/debug/obj/VMMR3LazyImp/VMMR3LazyLoad.asm
  4921 000008D0 [0000000000000000]     g_pfnTMR3SetWarpDrive dq ___LazyLoad___TMR3SetWarpDrive
  4922                                 %line 2406+1 /home/se170/VirtualBox-4.3.28/out/linux.amd64/debug/obj/VMMR3LazyImp/VMMR3LazyLoad.asm
  4923 000008D8 [0000000000000000]     g_pfnVMMGetCpu dq ___LazyLoad___VMMGetCpu
  4924                                 %line 2411+1 /home/se170/VirtualBox-4.3.28/out/linux.amd64/debug/obj/VMMR3LazyImp/VMMR3LazyLoad.asm
  4925 000008E0 [0000000000000000]     g_pfnVMMGetSvnRev dq ___LazyLoad___VMMGetSvnRev
  4926                                 %line 2416+1 /home/se170/VirtualBox-4.3.28/out/linux.amd64/debug/obj/VMMR3LazyImp/VMMR3LazyLoad.asm
  4927 000008E8 [0000000000000000]     g_pfnVMSetError dq ___LazyLoad___VMSetError
  4928                                 %line 2421+1 /home/se170/VirtualBox-4.3.28/out/linux.amd64/debug/obj/VMMR3LazyImp/VMMR3LazyLoad.asm
  4929 000008F0 [0000000000000000]     g_pfnVMSetErrorV dq ___LazyLoad___VMSetErrorV
  4930                                 %line 2426+1 /home/se170/VirtualBox-4.3.28/out/linux.amd64/debug/obj/VMMR3LazyImp/VMMR3LazyLoad.asm
  4931 000008F8 [0000000000000000]     g_pfnVMR3AtErrorDeregister dq ___LazyLoad___VMR3AtErrorDeregister
  4932                                 %line 2431+1 /home/se170/VirtualBox-4.3.28/out/linux.amd64/debug/obj/VMMR3LazyImp/VMMR3LazyLoad.asm
  4933 00000900 [0000000000000000]     g_pfnVMR3AtErrorRegister dq ___LazyLoad___VMR3AtErrorRegister
  4934                                 %line 2436+1 /home/se170/VirtualBox-4.3.28/out/linux.amd64/debug/obj/VMMR3LazyImp/VMMR3LazyLoad.asm
  4935 00000908 [0000000000000000]     g_pfnVMR3AtRuntimeErrorRegister dq ___LazyLoad___VMR3AtRuntimeErrorRegister
  4936                                 %line 2441+1 /home/se170/VirtualBox-4.3.28/out/linux.amd64/debug/obj/VMMR3LazyImp/VMMR3LazyLoad.asm
  4937 00000910 [0000000000000000]     g_pfnVMR3AtStateRegister dq ___LazyLoad___VMR3AtStateRegister
  4938                                 %line 2446+1 /home/se170/VirtualBox-4.3.28/out/linux.amd64/debug/obj/VMMR3LazyImp/VMMR3LazyLoad.asm
  4939 00000918 [0000000000000000]     g_pfnVMR3Create dq ___LazyLoad___VMR3Create
  4940                                 %line 2451+1 /home/se170/VirtualBox-4.3.28/out/linux.amd64/debug/obj/VMMR3LazyImp/VMMR3LazyLoad.asm
  4941 00000920 [0000000000000000]     g_pfnVMR3Destroy dq ___LazyLoad___VMR3Destroy
  4942                                 %line 2456+1 /home/se170/VirtualBox-4.3.28/out/linux.amd64/debug/obj/VMMR3LazyImp/VMMR3LazyLoad.asm
  4943 00000928 [0000000000000000]     g_pfnVMR3GetCpuCoreAndPackageIdFromCpuId dq ___LazyLoad___VMR3GetCpuCoreAndPackageIdFromCpuId
  4944                                 %line 2461+1 /home/se170/VirtualBox-4.3.28/out/linux.amd64/debug/obj/VMMR3LazyImp/VMMR3LazyLoad.asm
  4945 00000930 [0000000000000000]     g_pfnVMR3GetStateName dq ___LazyLoad___VMR3GetStateName
  4946                                 %line 2466+1 /home/se170/VirtualBox-4.3.28/out/linux.amd64/debug/obj/VMMR3LazyImp/VMMR3LazyLoad.asm
  4947 00000938 [0000000000000000]     g_pfnVMR3GetStateU dq ___LazyLoad___VMR3GetStateU
  4948                                 %line 2471+1 /home/se170/VirtualBox-4.3.28/out/linux.amd64/debug/obj/VMMR3LazyImp/VMMR3LazyLoad.asm
  4949 00000940 [0000000000000000]     g_pfnVMR3GetVM dq ___LazyLoad___VMR3GetVM
  4950                                 %line 2476+1 /home/se170/VirtualBox-4.3.28/out/linux.amd64/debug/obj/VMMR3LazyImp/VMMR3LazyLoad.asm
  4951 00000948 [0000000000000000]     g_pfnVMR3HotPlugCpu dq ___LazyLoad___VMR3HotPlugCpu
  4952                                 %line 2481+1 /home/se170/VirtualBox-4.3.28/out/linux.amd64/debug/obj/VMMR3LazyImp/VMMR3LazyLoad.asm
  4953 00000950 [0000000000000000]     g_pfnVMR3HotUnplugCpu dq ___LazyLoad___VMR3HotUnplugCpu
  4954                                 %line 2486+1 /home/se170/VirtualBox-4.3.28/out/linux.amd64/debug/obj/VMMR3LazyImp/VMMR3LazyLoad.asm
  4955 00000958 [0000000000000000]     g_pfnVMR3LoadFromFile dq ___LazyLoad___VMR3LoadFromFile
  4956                                 %line 2491+1 /home/se170/VirtualBox-4.3.28/out/linux.amd64/debug/obj/VMMR3LazyImp/VMMR3LazyLoad.asm
  4957 00000960 [0000000000000000]     g_pfnVMR3LoadFromStream dq ___LazyLoad___VMR3LoadFromStream
  4958                                 %line 2496+1 /home/se170/VirtualBox-4.3.28/out/linux.amd64/debug/obj/VMMR3LazyImp/VMMR3LazyLoad.asm
  4959 00000968 [0000000000000000]     g_pfnVMR3PowerOff dq ___LazyLoad___VMR3PowerOff
  4960                                 %line 2501+1 /home/se170/VirtualBox-4.3.28/out/linux.amd64/debug/obj/VMMR3LazyImp/VMMR3LazyLoad.asm
  4961 00000970 [0000000000000000]     g_pfnVMR3PowerOn dq ___LazyLoad___VMR3PowerOn
  4962                                 %line 2506+1 /home/se170/VirtualBox-4.3.28/out/linux.amd64/debug/obj/VMMR3LazyImp/VMMR3LazyLoad.asm
  4963 00000978 [0000000000000000]     g_pfnVMR3ReleaseUVM dq ___LazyLoad___VMR3ReleaseUVM
  4964                                 %line 2511+1 /home/se170/VirtualBox-4.3.28/out/linux.amd64/debug/obj/VMMR3LazyImp/VMMR3LazyLoad.asm
  4965 00000980 [0000000000000000]     g_pfnVMR3ReqCallNoWaitU dq ___LazyLoad___VMR3ReqCallNoWaitU
  4966                                 %line 2516+1 /home/se170/VirtualBox-4.3.28/out/linux.amd64/debug/obj/VMMR3LazyImp/VMMR3LazyLoad.asm
  4967 00000988 [0000000000000000]     g_pfnVMR3ReqCallU dq ___LazyLoad___VMR3ReqCallU
  4968                                 %line 2521+1 /home/se170/VirtualBox-4.3.28/out/linux.amd64/debug/obj/VMMR3LazyImp/VMMR3LazyLoad.asm
  4969 00000990 [0000000000000000]     g_pfnVMR3ReqCallVoidWaitU dq ___LazyLoad___VMR3ReqCallVoidWaitU
  4970                                 %line 2526+1 /home/se170/VirtualBox-4.3.28/out/linux.amd64/debug/obj/VMMR3LazyImp/VMMR3LazyLoad.asm
  4971 00000998 [0000000000000000]     g_pfnVMR3ReqCallWaitU dq ___LazyLoad___VMR3ReqCallWaitU
  4972                                 %line 2531+1 /home/se170/VirtualBox-4.3.28/out/linux.amd64/debug/obj/VMMR3LazyImp/VMMR3LazyLoad.asm
  4973 000009A0 [0000000000000000]     g_pfnVMR3ReqFree dq ___LazyLoad___VMR3ReqFree
  4974                                 %line 2536+1 /home/se170/VirtualBox-4.3.28/out/linux.amd64/debug/obj/VMMR3LazyImp/VMMR3LazyLoad.asm
  4975 000009A8 [0000000000000000]     g_pfnVMR3ReqPriorityCallWaitU dq ___LazyLoad___VMR3ReqPriorityCallWaitU
  4976                                 %line 2541+1 /home/se170/VirtualBox-4.3.28/out/linux.amd64/debug/obj/VMMR3LazyImp/VMMR3LazyLoad.asm
  4977 000009B0 [0000000000000000]     g_pfnVMR3ReqWait dq ___LazyLoad___VMR3ReqWait
  4978                                 %line 2546+1 /home/se170/VirtualBox-4.3.28/out/linux.amd64/debug/obj/VMMR3LazyImp/VMMR3LazyLoad.asm
  4979 000009B8 [0000000000000000]     g_pfnVMR3Reset dq ___LazyLoad___VMR3Reset
  4980                                 %line 2551+1 /home/se170/VirtualBox-4.3.28/out/linux.amd64/debug/obj/VMMR3LazyImp/VMMR3LazyLoad.asm
  4981 000009C0 [0000000000000000]     g_pfnVMR3Resume dq ___LazyLoad___VMR3Resume
  4982                                 %line 2556+1 /home/se170/VirtualBox-4.3.28/out/linux.amd64/debug/obj/VMMR3LazyImp/VMMR3LazyLoad.asm
  4983 000009C8 [0000000000000000]     g_pfnVMR3RetainUVM dq ___LazyLoad___VMR3RetainUVM
  4984                                 %line 2561+1 /home/se170/VirtualBox-4.3.28/out/linux.amd64/debug/obj/VMMR3LazyImp/VMMR3LazyLoad.asm
  4985 000009D0 [0000000000000000]     g_pfnVMR3Save dq ___LazyLoad___VMR3Save
  4986                                 %line 2566+1 /home/se170/VirtualBox-4.3.28/out/linux.amd64/debug/obj/VMMR3LazyImp/VMMR3LazyLoad.asm
  4987 000009D8 [0000000000000000]     g_pfnVMR3SetCpuExecutionCap dq ___LazyLoad___VMR3SetCpuExecutionCap
  4988                                 %line 2571+1 /home/se170/VirtualBox-4.3.28/out/linux.amd64/debug/obj/VMMR3LazyImp/VMMR3LazyLoad.asm
  4989 000009E0 [0000000000000000]     g_pfnVMR3SetError dq ___LazyLoad___VMR3SetError
  4990                                 %line 2576+1 /home/se170/VirtualBox-4.3.28/out/linux.amd64/debug/obj/VMMR3LazyImp/VMMR3LazyLoad.asm
  4991 000009E8 [0000000000000000]     g_pfnVMR3SetPowerOffInsteadOfReset dq ___LazyLoad___VMR3SetPowerOffInsteadOfReset
  4992                                 %line 2581+1 /home/se170/VirtualBox-4.3.28/out/linux.amd64/debug/obj/VMMR3LazyImp/VMMR3LazyLoad.asm
  4993 000009F0 [0000000000000000]     g_pfnVMR3Suspend dq ___LazyLoad___VMR3Suspend
  4994                                 %line 2586+1 /home/se170/VirtualBox-4.3.28/out/linux.amd64/debug/obj/VMMR3LazyImp/VMMR3LazyLoad.asm
  4995 000009F8 [0000000000000000]     g_pfnVMR3Teleport dq ___LazyLoad___VMR3Teleport
  4996                                 %line 2591+1 /home/se170/VirtualBox-4.3.28/out/linux.amd64/debug/obj/VMMR3LazyImp/VMMR3LazyLoad.asm
  4997 00000A00 [0000000000000000]     g_pfnVMR3AtStateDeregister dq ___LazyLoad___VMR3AtStateDeregister
  4998                                 %line 2596+1 /home/se170/VirtualBox-4.3.28/out/linux.amd64/debug/obj/VMMR3LazyImp/VMMR3LazyLoad.asm
  4999 00000A08 [0000000000000000]     g_pfnVMR3GetUVM dq ___LazyLoad___VMR3GetUVM
  5000 00000A10 0000000000000000       dq 0
  5001                                 
  5002                                 
  5003                                 
  5004                                 
  5005                                 
  5006                                 [section .text]
  5007 00000C94 56426F78564D4D00       g_szLibrary db 'VBoxVMM',0
  5008                                 g_szzNames:
  5009 00000C9C 4346474D5233476574-    g_szCFGMR3GetRoot: db 'CFGMR3GetRoot',0
  5010 00000C9C 526F6F7400         
  5011 00000CAA 4346474D5233476574-    g_szCFGMR3GetFirstChild: db 'CFGMR3GetFirstChild',0
  5012 00000CAA 46697273744368696C-
  5013 00000CAA 6400               
  5014 00000CBE 4346474D5233476574-    g_szCFGMR3GetNextChild: db 'CFGMR3GetNextChild',0
  5015 00000CBE 4E6578744368696C64-
  5016 00000CBE 00                 
  5017 00000CD1 4346474D5233476574-    g_szCFGMR3GetNameLen: db 'CFGMR3GetNameLen',0
  5018 00000CD1 4E616D654C656E00   
  5019 00000CE2 4346474D5233476574-    g_szCFGMR3GetFirstValue: db 'CFGMR3GetFirstValue',0
  5020 00000CE2 466972737456616C75-
  5021 00000CE2 6500               
  5022 00000CF6 4346474D5233476574-    g_szCFGMR3GetNextValue: db 'CFGMR3GetNextValue',0
  5023 00000CF6 4E65787456616C7565-
  5024 00000CF6 00                 
  5025 00000D09 4346474D5233476574-    g_szCFGMR3GetValueNameLen: db 'CFGMR3GetValueNameLen',0
  5026 00000D09 56616C75654E616D65-
  5027 00000D09 4C656E00           
  5028 00000D1F 4346474D5233476574-    g_szCFGMR3GetValueType: db 'CFGMR3GetValueType',0
  5029 00000D1F 56616C756554797065-
  5030 00000D1F 00                 
  5031 00000D32 4346474D523344756D-    g_szCFGMR3Dump: db 'CFGMR3Dump',0
  5032 00000D32 7000               
  5033 00000D3D 4346474D5233437265-    g_szCFGMR3CreateTree: db 'CFGMR3CreateTree',0
  5034 00000D3D 6174655472656500   
  5035 00000D4E 4346474D5233446573-    g_szCFGMR3DestroyTree: db 'CFGMR3DestroyTree',0
  5036 00000D4E 74726F795472656500 
  5037 00000D60 4346474D5233476574-    g_szCFGMR3GetValueName: db 'CFGMR3GetValueName',0
  5038 00000D60 56616C75654E616D65-
  5039 00000D60 00                 
  5040 00000D73 4346474D5233476574-    g_szCFGMR3GetName: db 'CFGMR3GetName',0
  5041 00000D73 4E616D6500         
  5042 00000D81 4346474D523352656D-    g_szCFGMR3RemoveNode: db 'CFGMR3RemoveNode',0
  5043 00000D81 6F76654E6F646500   
  5044 00000D92 4346474D5233496E73-    g_szCFGMR3InsertBytes: db 'CFGMR3InsertBytes',0
  5045 00000D92 657274427974657300 
  5046 00000DA4 4346474D5233496E73-    g_szCFGMR3InsertStringFV: db 'CFGMR3InsertStringFV',0
  5047 00000DA4 657274537472696E67-
  5048 00000DA4 465600             
  5049 00000DB9 4346474D5233496E73-    g_szCFGMR3InsertStringF: db 'CFGMR3InsertStringF',0
  5050 00000DB9 657274537472696E67-
  5051 00000DB9 4600               
  5052 00000DCD 4346474D5233496E73-    g_szCFGMR3InsertStringN: db 'CFGMR3InsertStringN',0
  5053 00000DCD 657274537472696E67-
  5054 00000DCD 4E00               
  5055 00000DE1 4346474D5233496E73-    g_szCFGMR3InsertString: db 'CFGMR3InsertString',0
  5056 00000DE1 657274537472696E67-
  5057 00000DE1 00                 
  5058 00000DF4 4346474D5233496E73-    g_szCFGMR3InsertStringW: db 'CFGMR3InsertStringW',0
  5059 00000DF4 657274537472696E67-
  5060 00000DF4 5700               
  5061 00000E08 4346474D5233496E73-    g_szCFGMR3InsertInteger: db 'CFGMR3InsertInteger',0
  5062 00000E08 657274496E74656765-
  5063 00000E08 7200               
  5064 00000E1C 4346474D5233517565-    g_szCFGMR3QueryStringAllocDef: db 'CFGMR3QueryStringAllocDef',0
  5065 00000E1C 7279537472696E6741-
  5066 00000E1C 6C6C6F6344656600   
  5067 00000E36 4346474D523352656D-    g_szCFGMR3RemoveValue: db 'CFGMR3RemoveValue',0
  5068 00000E36 6F766556616C756500 
  5069 00000E48 4346474D5233517565-    g_szCFGMR3QueryIntegerDef: db 'CFGMR3QueryIntegerDef',0
  5070 00000E48 7279496E7465676572-
  5071 00000E48 44656600           
  5072 00000E5E 4346474D5233517565-    g_szCFGMR3QueryGCPtrSDef: db 'CFGMR3QueryGCPtrSDef',0
  5073 00000E5E 727947435074725344-
  5074 00000E5E 656600             
  5075 00000E73 4346474D5233517565-    g_szCFGMR3QueryGCPtrUDef: db 'CFGMR3QueryGCPtrUDef',0
  5076 00000E73 727947435074725544-
  5077 00000E73 656600             
  5078 00000E88 4346474D5233517565-    g_szCFGMR3QueryGCPtrDef: db 'CFGMR3QueryGCPtrDef',0
  5079 00000E88 727947435074724465-
  5080 00000E88 6600               
  5081 00000E9C 4346474D5233517565-    g_szCFGMR3QueryPtrDef: db 'CFGMR3QueryPtrDef',0
  5082 00000E9C 727950747244656600 
  5083 00000EAE 4346474D5233517565-    g_szCFGMR3QueryBoolDef: db 'CFGMR3QueryBoolDef',0
  5084 00000EAE 7279426F6F6C446566-
  5085 00000EAE 00                 
  5086 00000EC1 4346474D5233517565-    g_szCFGMR3QueryS8Def: db 'CFGMR3QueryS8Def',0
  5087 00000EC1 7279533844656600   
  5088 00000ED2 4346474D5233517565-    g_szCFGMR3QueryU8Def: db 'CFGMR3QueryU8Def',0
  5089 00000ED2 7279553844656600   
  5090 00000EE3 4346474D5233517565-    g_szCFGMR3QueryS16Def: db 'CFGMR3QueryS16Def',0
  5091 00000EE3 727953313644656600 
  5092 00000EF5 4346474D5233517565-    g_szCFGMR3QueryU16Def: db 'CFGMR3QueryU16Def',0
  5093 00000EF5 727955313644656600 
  5094 00000F07 4346474D5233517565-    g_szCFGMR3QueryPortDef: db 'CFGMR3QueryPortDef',0
  5095 00000F07 7279506F7274446566-
  5096 00000F07 00                 
  5097 00000F1A 4346474D5233517565-    g_szCFGMR3QueryS32Def: db 'CFGMR3QueryS32Def',0
  5098 00000F1A 727953333244656600 
  5099 00000F2C 4346474D5233517565-    g_szCFGMR3QuerySIntDef: db 'CFGMR3QuerySIntDef',0
  5100 00000F2C 727953496E74446566-
  5101 00000F2C 00                 
  5102 00000F3F 4346474D5233517565-    g_szCFGMR3QueryU32Def: db 'CFGMR3QueryU32Def',0
  5103 00000F3F 727955333244656600 
  5104 00000F51 4346474D5233517565-    g_szCFGMR3QueryUIntDef: db 'CFGMR3QueryUIntDef',0
  5105 00000F51 727955496E74446566-
  5106 00000F51 00                 
  5107 00000F64 4346474D5233517565-    g_szCFGMR3QueryS64Def: db 'CFGMR3QueryS64Def',0
  5108 00000F64 727953363444656600 
  5109 00000F76 4346474D5233517565-    g_szCFGMR3QueryU64Def: db 'CFGMR3QueryU64Def',0
  5110 00000F76 727955363444656600 
  5111 00000F88 4346474D5233517565-    g_szCFGMR3QueryInteger: db 'CFGMR3QueryInteger',0
  5112 00000F88 7279496E7465676572-
  5113 00000F88 00                 
  5114 00000F9B 4346474D5233517565-    g_szCFGMR3QueryGCPtrS: db 'CFGMR3QueryGCPtrS',0
  5115 00000F9B 727947435074725300 
  5116 00000FAD 4346474D5233517565-    g_szCFGMR3QueryGCPtrU: db 'CFGMR3QueryGCPtrU',0
  5117 00000FAD 727947435074725500 
  5118 00000FBF 4346474D5233517565-    g_szCFGMR3QueryGCPtr: db 'CFGMR3QueryGCPtr',0
  5119 00000FBF 7279474350747200   
  5120 00000FD0 4346474D5233517565-    g_szCFGMR3QueryPtr: db 'CFGMR3QueryPtr',0
  5121 00000FD0 727950747200       
  5122 00000FDF 4346474D5233517565-    g_szCFGMR3QueryBool: db 'CFGMR3QueryBool',0
  5123 00000FDF 7279426F6F6C00     
  5124 00000FEF 4346474D5233517565-    g_szCFGMR3QueryS8: db 'CFGMR3QueryS8',0
  5125 00000FEF 7279533800         
  5126 00000FFD 4346474D5233517565-    g_szCFGMR3QueryU8: db 'CFGMR3QueryU8',0
  5127 00000FFD 7279553800         
  5128 0000100B 4346474D5233517565-    g_szCFGMR3QueryS16: db 'CFGMR3QueryS16',0
  5129 0000100B 727953313600       
  5130 0000101A 4346474D5233517565-    g_szCFGMR3QueryU16: db 'CFGMR3QueryU16',0
  5131 0000101A 727955313600       
  5132 00001029 4346474D5233517565-    g_szCFGMR3QueryPort: db 'CFGMR3QueryPort',0
  5133 00001029 7279506F727400     
  5134 00001039 4346474D5233517565-    g_szCFGMR3QueryS32: db 'CFGMR3QueryS32',0
  5135 00001039 727953333200       
  5136 00001048 4346474D5233517565-    g_szCFGMR3QuerySInt: db 'CFGMR3QuerySInt',0
  5137 00001048 727953496E7400     
  5138 00001058 4346474D5233517565-    g_szCFGMR3QueryU32: db 'CFGMR3QueryU32',0
  5139 00001058 727955333200       
  5140 00001067 4346474D5233517565-    g_szCFGMR3QueryUInt: db 'CFGMR3QueryUInt',0
  5141 00001067 727955496E7400     
  5142 00001077 4346474D5233517565-    g_szCFGMR3QueryS64: db 'CFGMR3QueryS64',0
  5143 00001077 727953363400       
  5144 00001086 4346474D5233517565-    g_szCFGMR3QueryU64: db 'CFGMR3QueryU64',0
  5145 00001086 727955363400       
  5146 00001095 4346474D5233517565-    g_szCFGMR3QuerySize: db 'CFGMR3QuerySize',0
  5147 00001095 727953697A6500     
  5148 000010A5 4346474D5233517565-    g_szCFGMR3QueryType: db 'CFGMR3QueryType',0
  5149 000010A5 72795479706500     
  5150 000010B5 4346474D5233417265-    g_szCFGMR3AreValuesValid: db 'CFGMR3AreValuesValid',0
  5151 000010B5 56616C75657356616C-
  5152 000010B5 696400             
  5153 000010CA 4346474D5233417265-    g_szCFGMR3AreChildrenValid: db 'CFGMR3AreChildrenValid',0
  5154 000010CA 4368696C6472656E56-
  5155 000010CA 616C696400         
  5156 000010E1 4346474D5233476574-    g_szCFGMR3GetChildFV: db 'CFGMR3GetChildFV',0
  5157 000010E1 4368696C64465600   
  5158 000010F2 4346474D5233476574-    g_szCFGMR3GetChildF: db 'CFGMR3GetChildF',0
  5159 000010F2 4368696C644600     
  5160 00001102 4346474D5233476574-    g_szCFGMR3GetChild: db 'CFGMR3GetChild',0
  5161 00001102 4368696C6400       
  5162 00001111 4346474D5233496E73-    g_szCFGMR3InsertNode: db 'CFGMR3InsertNode',0
  5163 00001111 6572744E6F646500   
  5164 00001122 4346474D5233496E73-    g_szCFGMR3InsertNodeFV: db 'CFGMR3InsertNodeFV',0
  5165 00001122 6572744E6F64654656-
  5166 00001122 00                 
  5167 00001135 4346474D5233496E73-    g_szCFGMR3InsertNodeF: db 'CFGMR3InsertNodeF',0
  5168 00001135 6572744E6F64654600 
  5169 00001147 4346474D5233496E73-    g_szCFGMR3InsertSubTree: db 'CFGMR3InsertSubTree',0
  5170 00001147 657274537562547265-
  5171 00001147 6500               
  5172 0000115B 4346474D523356616C-    g_szCFGMR3ValidateConfig: db 'CFGMR3ValidateConfig',0
  5173 0000115B 6964617465436F6E66-
  5174 0000115B 696700             
  5175 00001170 4346474D5233517565-    g_szCFGMR3QueryBytes: db 'CFGMR3QueryBytes',0
  5176 00001170 7279427974657300   
  5177 00001181 4346474D5233517565-    g_szCFGMR3QueryStringDef: db 'CFGMR3QueryStringDef',0
  5178 00001181 7279537472696E6744-
  5179 00001181 656600             
  5180 00001196 4346474D5233517565-    g_szCFGMR3QueryString: db 'CFGMR3QueryString',0
  5181 00001196 7279537472696E6700 
  5182 000011A8 4346474D5233517565-    g_szCFGMR3QueryStringAlloc: db 'CFGMR3QueryStringAlloc',0
  5183 000011A8 7279537472696E6741-
  5184 000011A8 6C6C6F6300         
  5185 000011BF 4346474D5233476574-    g_szCFGMR3GetParent: db 'CFGMR3GetParent',0
  5186 000011BF 506172656E7400     
  5187 000011CF 4346474D5233476574-    g_szCFGMR3GetRootU: db 'CFGMR3GetRootU',0
  5188 000011CF 526F6F745500       
  5189 000011DE 4353414D5233497345-    g_szCSAMR3IsEnabled: db 'CSAMR3IsEnabled',0
  5190 000011DE 6E61626C656400     
  5191 000011EE 4353414D5233536574-    g_szCSAMR3SetScanningEnabled: db 'CSAMR3SetScanningEnabled',0
  5192 000011EE 5363616E6E696E6745-
  5193 000011EE 6E61626C656400     
  5194 00001207 444247434372656174-    g_szDBGCCreate: db 'DBGCCreate',0
  5195 00001207 6500               
  5196 00001212 444247465233436F72-    g_szDBGFR3CoreWrite: db 'DBGFR3CoreWrite',0
  5197 00001212 65577269746500     
  5198 00001222 444247465233496E66-    g_szDBGFR3Info: db 'DBGFR3Info',0
  5199 00001222 6F00               
  5200 0000122D 444247465233496E66-    g_szDBGFR3InfoRegisterExternal: db 'DBGFR3InfoRegisterExternal',0
  5201 0000122D 6F5265676973746572-
  5202 0000122D 45787465726E616C00 
  5203 00001248 444247465233496E6A-    g_szDBGFR3InjectNMI: db 'DBGFR3InjectNMI',0
  5204 00001248 6563744E4D4900     
  5205 00001258 4442474652334C6F67-    g_szDBGFR3LogModifyDestinations: db 'DBGFR3LogModifyDestinations',0
  5206 00001258 4D6F64696679446573-
  5207 00001258 74696E6174696F6E73-
  5208 00001258 00                 
  5209 00001274 4442474652334C6F67-    g_szDBGFR3LogModifyFlags: db 'DBGFR3LogModifyFlags',0
  5210 00001274 4D6F64696679466C61-
  5211 00001274 677300             
  5212 00001289 4442474652334C6F67-    g_szDBGFR3LogModifyGroups: db 'DBGFR3LogModifyGroups',0
  5213 00001289 4D6F6469667947726F-
  5214 00001289 75707300           
  5215 0000129F 4442474652334F5344-    g_szDBGFR3OSDetect: db 'DBGFR3OSDetect',0
  5216 0000129F 657465637400       
  5217 000012AE 4442474652334F5351-    g_szDBGFR3OSQueryNameAndVersion: db 'DBGFR3OSQueryNameAndVersion',0
  5218 000012AE 756572794E616D6541-
  5219 000012AE 6E6456657273696F6E-
  5220 000012AE 00                 
  5221 000012CA 444247465233526567-    g_szDBGFR3RegCpuQueryU32: db 'DBGFR3RegCpuQueryU32',0
  5222 000012CA 437075517565727955-
  5223 000012CA 333200             
  5224 000012DF 444247465233526567-    g_szDBGFR3RegFormatValue: db 'DBGFR3RegFormatValue',0
  5225 000012DF 466F726D617456616C-
  5226 000012DF 756500             
  5227 000012F4 444247465233526567-    g_szDBGFR3RegNmQuery: db 'DBGFR3RegNmQuery',0
  5228 000012F4 4E6D517565727900   
  5229 00001305 444247465233526567-    g_szDBGFR3RegNmQueryAll: db 'DBGFR3RegNmQueryAll',0
  5230 00001305 4E6D5175657279416C-
  5231 00001305 6C00               
  5232 00001319 444247465233526567-    g_szDBGFR3RegNmQueryAllCount: db 'DBGFR3RegNmQueryAllCount',0
  5233 00001319 4E6D5175657279416C-
  5234 00001319 6C436F756E7400     
  5235 00001332 4442474652334F5344-    g_szDBGFR3OSDeregister: db 'DBGFR3OSDeregister',0
  5236 00001332 657265676973746572-
  5237 00001332 00                 
  5238 00001345 4442474652334F5352-    g_szDBGFR3OSRegister: db 'DBGFR3OSRegister',0
  5239 00001345 6567697374657200   
  5240 00001356 4442474652334D656D-    g_szDBGFR3MemReadString: db 'DBGFR3MemReadString',0
  5241 00001356 52656164537472696E-
  5242 00001356 6700               
  5243 0000136A 4442474652334D656D-    g_szDBGFR3MemRead: db 'DBGFR3MemRead',0
  5244 0000136A 5265616400         
  5245 00001378 4442474652334D656D-    g_szDBGFR3MemScan: db 'DBGFR3MemScan',0
  5246 00001378 5363616E00         
  5247 00001386 444247465233416464-    g_szDBGFR3AddrFromFlat: db 'DBGFR3AddrFromFlat',0
  5248 00001386 7246726F6D466C6174-
  5249 00001386 00                 
  5250 00001399 444247465233417353-    g_szDBGFR3AsSymbolByName: db 'DBGFR3AsSymbolByName',0
  5251 00001399 796D626F6C42794E61-
  5252 00001399 6D6500             
  5253 000013AE 444247465233417352-    g_szDBGFR3AsResolveAndRetain: db 'DBGFR3AsResolveAndRetain',0
  5254 000013AE 65736F6C7665416E64-
  5255 000013AE 52657461696E00     
  5256 000013C7 444247465233417353-    g_szDBGFR3AsSetAlias: db 'DBGFR3AsSetAlias',0
  5257 000013C7 6574416C69617300   
  5258 000013D8 444247465233416464-    g_szDBGFR3AddrAdd: db 'DBGFR3AddrAdd',0
  5259 000013D8 7241646400         
  5260 000013E6 444247465233416464-    g_szDBGFR3AddrSub: db 'DBGFR3AddrSub',0
  5261 000013E6 7253756200         
  5262 000013F4 444247465233417347-    g_szDBGFR3AsGetConfig: db 'DBGFR3AsGetConfig',0
  5263 000013F4 6574436F6E66696700 
  5264 00001406 444247465233437075-    g_szDBGFR3CpuGetMode: db 'DBGFR3CpuGetMode',0
  5265 00001406 4765744D6F646500   
  5266 00001417 444247465233416464-    g_szDBGFR3AddrFromSelOff: db 'DBGFR3AddrFromSelOff',0
  5267 00001417 7246726F6D53656C4F-
  5268 00001417 666600             
  5269 0000142C 454D52335175657279-    g_szEMR3QueryExecutionPolicy: db 'EMR3QueryExecutionPolicy',0
  5270 0000142C 457865637574696F6E-
  5271 0000142C 506F6C69637900     
  5272 00001445 454D52335365744578-    g_szEMR3SetExecutionPolicy: db 'EMR3SetExecutionPolicy',0
  5273 00001445 65637574696F6E506F-
  5274 00001445 6C69637900         
  5275 0000145C 46544D523343616E63-    g_szFTMR3CancelStandby: db 'FTMR3CancelStandby',0
  5276 0000145C 656C5374616E646279-
  5277 0000145C 00                 
  5278 0000146F 46544D5233506F7765-    g_szFTMR3PowerOn: db 'FTMR3PowerOn',0
  5279 0000146F 724F6E00           
  5280 0000147C 484D52334973456E61-    g_szHMR3IsEnabled: db 'HMR3IsEnabled',0
  5281 0000147C 626C656400         
  5282 0000148A 484D523349734E6573-    g_szHMR3IsNestedPagingActive: db 'HMR3IsNestedPagingActive',0
  5283 0000148A 746564506167696E67-
  5284 0000148A 41637469766500     
  5285 000014A3 484D52334973555841-    g_szHMR3IsUXActive: db 'HMR3IsUXActive',0
  5286 000014A3 637469766500       
  5287 000014B2 484D52334973567069-    g_szHMR3IsVpidActive: db 'HMR3IsVpidActive',0
  5288 000014B2 6441637469766500   
  5289 000014C3 4D4D52334865617046-    g_szMMR3HeapFree: db 'MMR3HeapFree',0
  5290 000014C3 72656500           
  5291 000014D0 4D4D52334865617052-    g_szMMR3HeapRealloc: db 'MMR3HeapRealloc',0
  5292 000014D0 65616C6C6F6300     
  5293 000014E0 5041544D5233416C6C-    g_szPATMR3AllowPatching: db 'PATMR3AllowPatching',0
  5294 000014E0 6F775061746368696E-
  5295 000014E0 6700               
  5296 000014F4 5041544D5233497345-    g_szPATMR3IsEnabled: db 'PATMR3IsEnabled',0
  5297 000014F4 6E61626C656400     
  5298 00001504 50444D52334173796E-    g_szPDMR3AsyncCompletionBwMgrSetMaxForFile: db 'PDMR3AsyncCompletionBwMgrSetMaxForFile',0
  5299 00001504 63436F6D706C657469-
  5300 00001504 6F6E42774D67725365-
  5301 00001504 744D6178466F724669-
  5302 00001504 6C6500             
  5303 0000152B 50444D523344657669-    g_szPDMR3DeviceAttach: db 'PDMR3DeviceAttach',0
  5304 0000152B 636541747461636800 
  5305 0000153D 50444D523344657669-    g_szPDMR3DeviceDetach: db 'PDMR3DeviceDetach',0
  5306 0000153D 636544657461636800 
  5307 0000154F 50444D523344726976-    g_szPDMR3DriverAttach: db 'PDMR3DriverAttach',0
  5308 0000154F 657241747461636800 
  5309 00001561 50444D52334E734277-    g_szPDMR3NsBwGroupSetLimit: db 'PDMR3NsBwGroupSetLimit',0
  5310 00001561 47726F75705365744C-
  5311 00001561 696D697400         
  5312 00001578 50444D523351756572-    g_szPDMR3QueryDeviceLun: db 'PDMR3QueryDeviceLun',0
  5313 00001578 794465766963654C75-
  5314 00001578 6E00               
  5315 0000158C 50444D523351756572-    g_szPDMR3QueryDriverOnLun: db 'PDMR3QueryDriverOnLun',0
  5316 0000158C 794472697665724F6E-
  5317 0000158C 4C756E00           
  5318 000015A2 50444D523351756572-    g_szPDMR3QueryLun: db 'PDMR3QueryLun',0
  5319 000015A2 794C756E00         
  5320 000015B0 50444D437269745365-    g_szPDMCritSectEnter: db 'PDMCritSectEnter',0
  5321 000015B0 6374456E74657200   
  5322 000015C1 50444D437269745365-    g_szPDMCritSectEnterDebug: db 'PDMCritSectEnterDebug',0
  5323 000015C1 6374456E7465724465-
  5324 000015C1 62756700           
  5325 000015D7 50444D437269745365-    g_szPDMCritSectTryEnter: db 'PDMCritSectTryEnter',0
  5326 000015D7 6374547279456E7465-
  5327 000015D7 7200               
  5328 000015EB 50444D437269745365-    g_szPDMCritSectTryEnterDebug: db 'PDMCritSectTryEnterDebug',0
  5329 000015EB 6374547279456E7465-
  5330 000015EB 72446562756700     
  5331 00001604 50444D523343726974-    g_szPDMR3CritSectEnterEx: db 'PDMR3CritSectEnterEx',0
  5332 00001604 53656374456E746572-
  5333 00001604 457800             
  5334 00001619 50444D437269745365-    g_szPDMCritSectLeave: db 'PDMCritSectLeave',0
  5335 00001619 63744C6561766500   
  5336 0000162A 50444D437269745365-    g_szPDMCritSectIsOwner: db 'PDMCritSectIsOwner',0
  5337 0000162A 637449734F776E6572-
  5338 0000162A 00                 
  5339 0000163D 50444D437269745365-    g_szPDMCritSectIsOwnerEx: db 'PDMCritSectIsOwnerEx',0
  5340 0000163D 637449734F776E6572-
  5341 0000163D 457800             
  5342 00001652 50444D437269745365-    g_szPDMCritSectIsOwned: db 'PDMCritSectIsOwned',0
  5343 00001652 637449734F776E6564-
  5344 00001652 00                 
  5345 00001665 50444D437269745365-    g_szPDMCritSectIsInitialized: db 'PDMCritSectIsInitialized',0
  5346 00001665 63744973496E697469-
  5347 00001665 616C697A656400     
  5348 0000167E 50444D437269745365-    g_szPDMCritSectHasWaiters: db 'PDMCritSectHasWaiters',0
  5349 0000167E 637448617357616974-
  5350 0000167E 65727300           
  5351 00001694 50444D437269745365-    g_szPDMCritSectGetRecursion: db 'PDMCritSectGetRecursion',0
  5352 00001694 637447657452656375-
  5353 00001694 7273696F6E00       
  5354 000016AC 50444D523343726974-    g_szPDMR3CritSectYield: db 'PDMR3CritSectYield',0
  5355 000016AC 536563745969656C64-
  5356 000016AC 00                 
  5357 000016BF 50444D523343726974-    g_szPDMR3CritSectName: db 'PDMR3CritSectName',0
  5358 000016BF 536563744E616D6500 
  5359 000016D1 50444D523343726974-    g_szPDMR3CritSectScheduleExitEvent: db 'PDMR3CritSectScheduleExitEvent',0
  5360 000016D1 536563745363686564-
  5361 000016D1 756C65457869744576-
  5362 000016D1 656E7400           
  5363 000016F0 50444D523343726974-    g_szPDMR3CritSectDelete: db 'PDMR3CritSectDelete',0
  5364 000016F0 5365637444656C6574-
  5365 000016F0 6500               
  5366 00001704 50444D523351756575-    g_szPDMR3QueueDestroy: db 'PDMR3QueueDestroy',0
  5367 00001704 6544657374726F7900 
  5368 00001716 50444D517565756541-    g_szPDMQueueAlloc: db 'PDMQueueAlloc',0
  5369 00001716 6C6C6F6300         
  5370 00001724 50444D517565756549-    g_szPDMQueueInsert: db 'PDMQueueInsert',0
  5371 00001724 6E7365727400       
  5372 00001733 50444D517565756549-    g_szPDMQueueInsertEx: db 'PDMQueueInsertEx',0
  5373 00001733 6E73657274457800   
  5374 00001744 50444D517565756552-    g_szPDMQueueR0Ptr: db 'PDMQueueR0Ptr',0
  5375 00001744 3050747200         
  5376 00001752 50444D517565756552-    g_szPDMQueueRCPtr: db 'PDMQueueRCPtr',0
  5377 00001752 4350747200         
  5378 00001760 50444D523354687265-    g_szPDMR3ThreadDestroy: db 'PDMR3ThreadDestroy',0
  5379 00001760 616444657374726F79-
  5380 00001760 00                 
  5381 00001773 50444D523354687265-    g_szPDMR3ThreadIAmRunning: db 'PDMR3ThreadIAmRunning',0
  5382 00001773 616449416D52756E6E-
  5383 00001773 696E6700           
  5384 00001789 50444D523354687265-    g_szPDMR3ThreadIAmSuspending: db 'PDMR3ThreadIAmSuspending',0
  5385 00001789 616449416D53757370-
  5386 00001789 656E64696E6700     
  5387 000017A2 50444D523354687265-    g_szPDMR3ThreadResume: db 'PDMR3ThreadResume',0
  5388 000017A2 6164526573756D6500 
  5389 000017B4 50444D523354687265-    g_szPDMR3ThreadSleep: db 'PDMR3ThreadSleep',0
  5390 000017B4 6164536C65657000   
  5391 000017C5 50444D523354687265-    g_szPDMR3ThreadSuspend: db 'PDMR3ThreadSuspend',0
  5392 000017C5 616453757370656E64-
  5393 000017C5 00                 
  5394 000017D8 50444D523355736243-    g_szPDMR3UsbCreateEmulatedDevice: db 'PDMR3UsbCreateEmulatedDevice',0
  5395 000017D8 7265617465456D756C-
  5396 000017D8 617465644465766963-
  5397 000017D8 6500               
  5398 000017F5 50444D523355736243-    g_szPDMR3UsbCreateProxyDevice: db 'PDMR3UsbCreateProxyDevice',0
  5399 000017F5 726561746550726F78-
  5400 000017F5 7944657669636500   
  5401 0000180F 50444D523355736244-    g_szPDMR3UsbDetachDevice: db 'PDMR3UsbDetachDevice',0
  5402 0000180F 657461636844657669-
  5403 0000180F 636500             
  5404 00001824 50444D523355736248-    g_szPDMR3UsbHasHub: db 'PDMR3UsbHasHub',0
  5405 00001824 617348756200       
  5406 00001833 50474D48616E646C65-    g_szPGMHandlerPhysicalPageTempOff: db 'PGMHandlerPhysicalPageTempOff',0
  5407 00001833 72506879736963616C-
  5408 00001833 5061676554656D704F-
  5409 00001833 666600             
  5410 00001851 50474D506879735265-    g_szPGMPhysReadGCPtr: db 'PGMPhysReadGCPtr',0
  5411 00001851 6164474350747200   
  5412 00001862 50474D506879735369-    g_szPGMPhysSimpleDirtyWriteGCPtr: db 'PGMPhysSimpleDirtyWriteGCPtr',0
  5413 00001862 6D706C654469727479-
  5414 00001862 577269746547435074-
  5415 00001862 7200               
  5416 0000187F 50474D506879735369-    g_szPGMPhysSimpleReadGCPtr: db 'PGMPhysSimpleReadGCPtr',0
  5417 0000187F 6D706C655265616447-
  5418 0000187F 4350747200         
  5419 00001896 50474D506879735369-    g_szPGMPhysSimpleWriteGCPhys: db 'PGMPhysSimpleWriteGCPhys',0
  5420 00001896 6D706C655772697465-
  5421 00001896 47435068797300     
  5422 000018AF 50474D506879735369-    g_szPGMPhysSimpleWriteGCPtr: db 'PGMPhysSimpleWriteGCPtr',0
  5423 000018AF 6D706C655772697465-
  5424 000018AF 474350747200       
  5425 000018C7 50474D506879735772-    g_szPGMPhysWriteGCPtr: db 'PGMPhysWriteGCPtr',0
  5426 000018C7 697465474350747200 
  5427 000018D9 50474D5368774D616B-    g_szPGMShwMakePageWritable: db 'PGMShwMakePageWritable',0
  5428 000018D9 655061676557726974-
  5429 000018D9 61626C6500         
  5430 000018F0 50474D523351756572-    g_szPGMR3QueryGlobalMemoryStats: db 'PGMR3QueryGlobalMemoryStats',0
  5431 000018F0 79476C6F62616C4D65-
  5432 000018F0 6D6F72795374617473-
  5433 000018F0 00                 
  5434 0000190C 50474D523351756572-    g_szPGMR3QueryMemoryStats: db 'PGMR3QueryMemoryStats',0
  5435 0000190C 794D656D6F72795374-
  5436 0000190C 61747300           
  5437 00001922 53534D5233436C6F73-    g_szSSMR3Close: db 'SSMR3Close',0
  5438 00001922 6500               
  5439 0000192D 53534D523344657265-    g_szSSMR3DeregisterExternal: db 'SSMR3DeregisterExternal',0
  5440 0000192D 676973746572457874-
  5441 0000192D 65726E616C00       
  5442 00001945 53534D523344657265-    g_szSSMR3DeregisterInternal: db 'SSMR3DeregisterInternal',0
  5443 00001945 676973746572496E74-
  5444 00001945 65726E616C00       
  5445 0000195D 53534D523347657442-    g_szSSMR3GetBool: db 'SSMR3GetBool',0
  5446 0000195D 6F6F6C00           
  5447 0000196A 53534D523347657447-    g_szSSMR3GetGCPhys: db 'SSMR3GetGCPhys',0
  5448 0000196A 435068797300       
  5449 00001979 53534D523347657447-    g_szSSMR3GetGCPhys32: db 'SSMR3GetGCPhys32',0
  5450 00001979 4350687973333200   
  5451 0000198A 53534D523347657447-    g_szSSMR3GetGCPhys64: db 'SSMR3GetGCPhys64',0
  5452 0000198A 4350687973363400   
  5453 0000199B 53534D523347657447-    g_szSSMR3GetGCPtr: db 'SSMR3GetGCPtr',0
  5454 0000199B 4350747200         
  5455 000019A9 53534D523347657447-    g_szSSMR3GetGCUInt: db 'SSMR3GetGCUInt',0
  5456 000019A9 4355496E7400       
  5457 000019B8 53534D523347657447-    g_szSSMR3GetGCUIntPtr: db 'SSMR3GetGCUIntPtr',0
  5458 000019B8 4355496E7450747200 
  5459 000019CA 53534D523347657447-    g_szSSMR3GetGCUIntReg: db 'SSMR3GetGCUIntReg',0
  5460 000019CA 4355496E7452656700 
  5461 000019DC 53534D523347657449-    g_szSSMR3GetIOPort: db 'SSMR3GetIOPort',0
  5462 000019DC 4F506F727400       
  5463 000019EB 53534D52334765744D-    g_szSSMR3GetMem: db 'SSMR3GetMem',0
  5464 000019EB 656D00             
  5465 000019F7 53534D523347657452-    g_szSSMR3GetRCPtr: db 'SSMR3GetRCPtr',0
  5466 000019F7 4350747200         
  5467 00001A05 53534D523347657453-    g_szSSMR3GetS128: db 'SSMR3GetS128',0
  5468 00001A05 31323800           
  5469 00001A12 53534D523347657453-    g_szSSMR3GetS16: db 'SSMR3GetS16',0
  5470 00001A12 313600             
  5471 00001A1E 53534D523347657453-    g_szSSMR3GetS32: db 'SSMR3GetS32',0
  5472 00001A1E 333200             
  5473 00001A2A 53534D523347657453-    g_szSSMR3GetS64: db 'SSMR3GetS64',0
  5474 00001A2A 363400             
  5475 00001A36 53534D523347657453-    g_szSSMR3GetS8: db 'SSMR3GetS8',0
  5476 00001A36 3800               
  5477 00001A41 53534D523347657453-    g_szSSMR3GetSInt: db 'SSMR3GetSInt',0
  5478 00001A41 496E7400           
  5479 00001A4E 53534D523347657453-    g_szSSMR3GetSel: db 'SSMR3GetSel',0
  5480 00001A4E 656C00             
  5481 00001A5A 53534D523347657453-    g_szSSMR3GetStrZ: db 'SSMR3GetStrZ',0
  5482 00001A5A 74725A00           
  5483 00001A67 53534D523347657453-    g_szSSMR3GetStrZEx: db 'SSMR3GetStrZEx',0
  5484 00001A67 74725A457800       
  5485 00001A76 53534D523347657453-    g_szSSMR3GetStruct: db 'SSMR3GetStruct',0
  5486 00001A76 747275637400       
  5487 00001A85 53534D523347657453-    g_szSSMR3GetStructEx: db 'SSMR3GetStructEx',0
  5488 00001A85 7472756374457800   
  5489 00001A96 53534D523347657455-    g_szSSMR3GetU128: db 'SSMR3GetU128',0
  5490 00001A96 31323800           
  5491 00001AA3 53534D523347657455-    g_szSSMR3GetU16: db 'SSMR3GetU16',0
  5492 00001AA3 313600             
  5493 00001AAF 53534D523347657455-    g_szSSMR3GetU32: db 'SSMR3GetU32',0
  5494 00001AAF 333200             
  5495 00001ABB 53534D523347657455-    g_szSSMR3GetU64: db 'SSMR3GetU64',0
  5496 00001ABB 363400             
  5497 00001AC7 53534D523347657455-    g_szSSMR3GetU8: db 'SSMR3GetU8',0
  5498 00001AC7 3800               
  5499 00001AD2 53534D523347657455-    g_szSSMR3GetUInt: db 'SSMR3GetUInt',0
  5500 00001AD2 496E7400           
  5501 00001ADF 53534D523348616E64-    g_szSSMR3HandleGetAfter: db 'SSMR3HandleGetAfter',0
  5502 00001ADF 6C6547657441667465-
  5503 00001ADF 7200               
  5504 00001AF3 53534D523348616E64-    g_szSSMR3HandleGetStatus: db 'SSMR3HandleGetStatus',0
  5505 00001AF3 6C6547657453746174-
  5506 00001AF3 757300             
  5507 00001B08 53534D523348616E64-    g_szSSMR3HandleHostBits: db 'SSMR3HandleHostBits',0
  5508 00001B08 6C65486F7374426974-
  5509 00001B08 7300               
  5510 00001B1C 53534D523348616E64-    g_szSSMR3HandleHostOSAndArch: db 'SSMR3HandleHostOSAndArch',0
  5511 00001B1C 6C65486F73744F5341-
  5512 00001B1C 6E644172636800     
  5513 00001B35 53534D523348616E64-    g_szSSMR3HandleIsLiveSave: db 'SSMR3HandleIsLiveSave',0
  5514 00001B35 6C6549734C69766553-
  5515 00001B35 61766500           
  5516 00001B4B 53534D523348616E64-    g_szSSMR3HandleMaxDowntime: db 'SSMR3HandleMaxDowntime',0
  5517 00001B4B 6C654D6178446F776E-
  5518 00001B4B 74696D6500         
  5519 00001B62 53534D523348616E64-    g_szSSMR3HandleReportLivePercent: db 'SSMR3HandleReportLivePercent',0
  5520 00001B62 6C655265706F72744C-
  5521 00001B62 69766550657263656E-
  5522 00001B62 7400               
  5523 00001B7F 53534D523348616E64-    g_szSSMR3HandleRevision: db 'SSMR3HandleRevision',0
  5524 00001B7F 6C655265766973696F-
  5525 00001B7F 6E00               
  5526 00001B93 53534D523348616E64-    g_szSSMR3HandleSetStatus: db 'SSMR3HandleSetStatus',0
  5527 00001B93 6C6553657453746174-
  5528 00001B93 757300             
  5529 00001BA8 53534D523348616E64-    g_szSSMR3HandleVersion: db 'SSMR3HandleVersion',0
  5530 00001BA8 6C6556657273696F6E-
  5531 00001BA8 00                 
  5532 00001BBB 53534D52334F70656E-    g_szSSMR3Open: db 'SSMR3Open',0
  5533 00001BBB 00                 
  5534 00001BC5 53534D523350757442-    g_szSSMR3PutBool: db 'SSMR3PutBool',0
  5535 00001BC5 6F6F6C00           
  5536 00001BD2 53534D523350757447-    g_szSSMR3PutGCPhys: db 'SSMR3PutGCPhys',0
  5537 00001BD2 435068797300       
  5538 00001BE1 53534D523350757447-    g_szSSMR3PutGCPhys32: db 'SSMR3PutGCPhys32',0
  5539 00001BE1 4350687973333200   
  5540 00001BF2 53534D523350757447-    g_szSSMR3PutGCPhys64: db 'SSMR3PutGCPhys64',0
  5541 00001BF2 4350687973363400   
  5542 00001C03 53534D523350757447-    g_szSSMR3PutGCPtr: db 'SSMR3PutGCPtr',0
  5543 00001C03 4350747200         
  5544 00001C11 53534D523350757447-    g_szSSMR3PutGCUInt: db 'SSMR3PutGCUInt',0
  5545 00001C11 4355496E7400       
  5546 00001C20 53534D523350757447-    g_szSSMR3PutGCUIntPtr: db 'SSMR3PutGCUIntPtr',0
  5547 00001C20 4355496E7450747200 
  5548 00001C32 53534D523350757447-    g_szSSMR3PutGCUIntReg: db 'SSMR3PutGCUIntReg',0
  5549 00001C32 4355496E7452656700 
  5550 00001C44 53534D523350757449-    g_szSSMR3PutIOPort: db 'SSMR3PutIOPort',0
  5551 00001C44 4F506F727400       
  5552 00001C53 53534D52335075744D-    g_szSSMR3PutMem: db 'SSMR3PutMem',0
  5553 00001C53 656D00             
  5554 00001C5F 53534D523350757452-    g_szSSMR3PutRCPtr: db 'SSMR3PutRCPtr',0
  5555 00001C5F 4350747200         
  5556 00001C6D 53534D523350757453-    g_szSSMR3PutS128: db 'SSMR3PutS128',0
  5557 00001C6D 31323800           
  5558 00001C7A 53534D523350757453-    g_szSSMR3PutS16: db 'SSMR3PutS16',0
  5559 00001C7A 313600             
  5560 00001C86 53534D523350757453-    g_szSSMR3PutS32: db 'SSMR3PutS32',0
  5561 00001C86 333200             
  5562 00001C92 53534D523350757453-    g_szSSMR3PutS64: db 'SSMR3PutS64',0
  5563 00001C92 363400             
  5564 00001C9E 53534D523350757453-    g_szSSMR3PutS8: db 'SSMR3PutS8',0
  5565 00001C9E 3800               
  5566 00001CA9 53534D523350757453-    g_szSSMR3PutSInt: db 'SSMR3PutSInt',0
  5567 00001CA9 496E7400           
  5568 00001CB6 53534D523350757453-    g_szSSMR3PutSel: db 'SSMR3PutSel',0
  5569 00001CB6 656C00             
  5570 00001CC2 53534D523350757453-    g_szSSMR3PutStrZ: db 'SSMR3PutStrZ',0
  5571 00001CC2 74725A00           
  5572 00001CCF 53534D523350757453-    g_szSSMR3PutStruct: db 'SSMR3PutStruct',0
  5573 00001CCF 747275637400       
  5574 00001CDE 53534D523350757453-    g_szSSMR3PutStructEx: db 'SSMR3PutStructEx',0
  5575 00001CDE 7472756374457800   
  5576 00001CEF 53534D523350757455-    g_szSSMR3PutU128: db 'SSMR3PutU128',0
  5577 00001CEF 31323800           
  5578 00001CFC 53534D523350757455-    g_szSSMR3PutU16: db 'SSMR3PutU16',0
  5579 00001CFC 313600             
  5580 00001D08 53534D523350757455-    g_szSSMR3PutU32: db 'SSMR3PutU32',0
  5581 00001D08 333200             
  5582 00001D14 53534D523350757455-    g_szSSMR3PutU64: db 'SSMR3PutU64',0
  5583 00001D14 363400             
  5584 00001D20 53534D523350757455-    g_szSSMR3PutU8: db 'SSMR3PutU8',0
  5585 00001D20 3800               
  5586 00001D2B 53534D523350757455-    g_szSSMR3PutUInt: db 'SSMR3PutUInt',0
  5587 00001D2B 496E7400           
  5588 00001D38 53534D52335365656B-    g_szSSMR3Seek: db 'SSMR3Seek',0
  5589 00001D38 00                 
  5590 00001D42 53534D523353657443-    g_szSSMR3SetCfgError: db 'SSMR3SetCfgError',0
  5591 00001D42 66674572726F7200   
  5592 00001D53 53534D52335365744C-    g_szSSMR3SetLoadError: db 'SSMR3SetLoadError',0
  5593 00001D53 6F61644572726F7200 
  5594 00001D65 53534D52335365744C-    g_szSSMR3SetLoadErrorV: db 'SSMR3SetLoadErrorV',0
  5595 00001D65 6F61644572726F7256-
  5596 00001D65 00                 
  5597 00001D78 53534D5233536B6970-    g_szSSMR3Skip: db 'SSMR3Skip',0
  5598 00001D78 00                 
  5599 00001D82 53534D5233536B6970-    g_szSSMR3SkipToEndOfUnit: db 'SSMR3SkipToEndOfUnit',0
  5600 00001D82 546F456E644F66556E-
  5601 00001D82 697400             
  5602 00001D97 53534D523356616C69-    g_szSSMR3ValidateFile: db 'SSMR3ValidateFile',0
  5603 00001D97 6461746546696C6500 
  5604 00001DA9 53534D523343616E63-    g_szSSMR3Cancel: db 'SSMR3Cancel',0
  5605 00001DA9 656C00             
  5606 00001DB5 53534D523352656769-    g_szSSMR3RegisterExternal: db 'SSMR3RegisterExternal',0
  5607 00001DB5 737465724578746572-
  5608 00001DB5 6E616C00           
  5609 00001DCB 5354414D523344756D-    g_szSTAMR3Dump: db 'STAMR3Dump',0
  5610 00001DCB 7000               
  5611 00001DD6 5354414D5233456E75-    g_szSTAMR3Enum: db 'STAMR3Enum',0
  5612 00001DD6 6D00               
  5613 00001DE1 5354414D5233526573-    g_szSTAMR3Reset: db 'STAMR3Reset',0
  5614 00001DE1 657400             
  5615 00001DED 5354414D5233536E61-    g_szSTAMR3Snapshot: db 'STAMR3Snapshot',0
  5616 00001DED 7073686F7400       
  5617 00001DFC 5354414D5233536E61-    g_szSTAMR3SnapshotFree: db 'STAMR3SnapshotFree',0
  5618 00001DFC 7073686F7446726565-
  5619 00001DFC 00                 
  5620 00001E0F 5354414D5233476574-    g_szSTAMR3GetUnit: db 'STAMR3GetUnit',0
  5621 00001E0F 556E697400         
  5622 00001E1D 544D523354696D6572-    g_szTMR3TimerSetCritSect: db 'TMR3TimerSetCritSect',0
  5623 00001E1D 536574437269745365-
  5624 00001E1D 637400             
  5625 00001E32 544D523354696D6572-    g_szTMR3TimerLoad: db 'TMR3TimerLoad',0
  5626 00001E32 4C6F616400         
  5627 00001E40 544D523354696D6572-    g_szTMR3TimerSave: db 'TMR3TimerSave',0
  5628 00001E40 5361766500         
  5629 00001E4E 544D523354696D6572-    g_szTMR3TimerDestroy: db 'TMR3TimerDestroy',0
  5630 00001E4E 44657374726F7900   
  5631 00001E5F 544D54696D65724672-    g_szTMTimerFromMicro: db 'TMTimerFromMicro',0
  5632 00001E5F 6F6D4D6963726F00   
  5633 00001E70 544D54696D65724672-    g_szTMTimerFromMilli: db 'TMTimerFromMilli',0
  5634 00001E70 6F6D4D696C6C6900   
  5635 00001E81 544D54696D65724672-    g_szTMTimerFromNano: db 'TMTimerFromNano',0
  5636 00001E81 6F6D4E616E6F00     
  5637 00001E91 544D54696D65724765-    g_szTMTimerGet: db 'TMTimerGet',0
  5638 00001E91 7400               
  5639 00001E9C 544D54696D65724765-    g_szTMTimerGetFreq: db 'TMTimerGetFreq',0
  5640 00001E9C 744672657100       
  5641 00001EAB 544D54696D65724765-    g_szTMTimerGetMicro: db 'TMTimerGetMicro',0
  5642 00001EAB 744D6963726F00     
  5643 00001EBB 544D54696D65724765-    g_szTMTimerGetMilli: db 'TMTimerGetMilli',0
  5644 00001EBB 744D696C6C6900     
  5645 00001ECB 544D54696D65724765-    g_szTMTimerGetNano: db 'TMTimerGetNano',0
  5646 00001ECB 744E616E6F00       
  5647 00001EDA 544D54696D65724973-    g_szTMTimerIsActive: db 'TMTimerIsActive',0
  5648 00001EDA 41637469766500     
  5649 00001EEA 544D54696D65724973-    g_szTMTimerIsLockOwner: db 'TMTimerIsLockOwner',0
  5650 00001EEA 4C6F636B4F776E6572-
  5651 00001EEA 00                 
  5652 00001EFD 544D54696D65724C6F-    g_szTMTimerLock: db 'TMTimerLock',0
  5653 00001EFD 636B00             
  5654 00001F09 544D54696D65725230-    g_szTMTimerR0Ptr: db 'TMTimerR0Ptr',0
  5655 00001F09 50747200           
  5656 00001F16 544D54696D65725233-    g_szTMTimerR3Ptr: db 'TMTimerR3Ptr',0
  5657 00001F16 50747200           
  5658 00001F23 544D54696D65725243-    g_szTMTimerRCPtr: db 'TMTimerRCPtr',0
  5659 00001F23 50747200           
  5660 00001F30 544D54696D65725365-    g_szTMTimerSet: db 'TMTimerSet',0
  5661 00001F30 7400               
  5662 00001F3B 544D54696D65725365-    g_szTMTimerSetFrequencyHint: db 'TMTimerSetFrequencyHint',0
  5663 00001F3B 744672657175656E63-
  5664 00001F3B 7948696E7400       
  5665 00001F53 544D54696D65725365-    g_szTMTimerSetMicro: db 'TMTimerSetMicro',0
  5666 00001F53 744D6963726F00     
  5667 00001F63 544D54696D65725365-    g_szTMTimerSetMillies: db 'TMTimerSetMillies',0
  5668 00001F63 744D696C6C69657300 
  5669 00001F75 544D54696D65725365-    g_szTMTimerSetNano: db 'TMTimerSetNano',0
  5670 00001F75 744E616E6F00       
  5671 00001F84 544D54696D65725365-    g_szTMTimerSetRelative: db 'TMTimerSetRelative',0
  5672 00001F84 7452656C6174697665-
  5673 00001F84 00                 
  5674 00001F97 544D54696D65725374-    g_szTMTimerStop: db 'TMTimerStop',0
  5675 00001F97 6F7000             
  5676 00001FA3 544D54696D6572546F-    g_szTMTimerToMicro: db 'TMTimerToMicro',0
  5677 00001FA3 4D6963726F00       
  5678 00001FB2 544D54696D6572546F-    g_szTMTimerToMilli: db 'TMTimerToMilli',0
  5679 00001FB2 4D696C6C6900       
  5680 00001FC1 544D54696D6572546F-    g_szTMTimerToNano: db 'TMTimerToNano',0
  5681 00001FC1 4E616E6F00         
  5682 00001FCF 544D54696D6572556E-    g_szTMTimerUnlock: db 'TMTimerUnlock',0
  5683 00001FCF 6C6F636B00         
  5684 00001FDD 544D52334765745761-    g_szTMR3GetWarpDrive: db 'TMR3GetWarpDrive',0
  5685 00001FDD 7270447269766500   
  5686 00001FEE 544D52335365745761-    g_szTMR3SetWarpDrive: db 'TMR3SetWarpDrive',0
  5687 00001FEE 7270447269766500   
  5688 00001FFF 564D4D476574437075-    g_szVMMGetCpu: db 'VMMGetCpu',0
  5689 00001FFF 00                 
  5690 00002009 564D4D47657453766E-    g_szVMMGetSvnRev: db 'VMMGetSvnRev',0
  5691 00002009 52657600           
  5692 00002016 564D5365744572726F-    g_szVMSetError: db 'VMSetError',0
  5693 00002016 7200               
  5694 00002021 564D5365744572726F-    g_szVMSetErrorV: db 'VMSetErrorV',0
  5695 00002021 725600             
  5696 0000202D 564D52334174457272-    g_szVMR3AtErrorDeregister: db 'VMR3AtErrorDeregister',0
  5697 0000202D 6F7244657265676973-
  5698 0000202D 74657200           
  5699 00002043 564D52334174457272-    g_szVMR3AtErrorRegister: db 'VMR3AtErrorRegister',0
  5700 00002043 6F7252656769737465-
  5701 00002043 7200               
  5702 00002057 564D5233417452756E-    g_szVMR3AtRuntimeErrorRegister: db 'VMR3AtRuntimeErrorRegister',0
  5703 00002057 74696D654572726F72-
  5704 00002057 526567697374657200 
  5705 00002072 564D52334174537461-    g_szVMR3AtStateRegister: db 'VMR3AtStateRegister',0
  5706 00002072 746552656769737465-
  5707 00002072 7200               
  5708 00002086 564D52334372656174-    g_szVMR3Create: db 'VMR3Create',0
  5709 00002086 6500               
  5710 00002091 564D52334465737472-    g_szVMR3Destroy: db 'VMR3Destroy',0
  5711 00002091 6F7900             
  5712 0000209D 564D52334765744370-    g_szVMR3GetCpuCoreAndPackageIdFromCpuId: db 'VMR3GetCpuCoreAndPackageIdFromCpuId',0
  5713 0000209D 75436F7265416E6450-
  5714 0000209D 61636B616765496446-
  5715 0000209D 726F6D437075496400 
  5716 000020C1 564D52334765745374-    g_szVMR3GetStateName: db 'VMR3GetStateName',0
  5717 000020C1 6174654E616D6500   
  5718 000020D2 564D52334765745374-    g_szVMR3GetStateU: db 'VMR3GetStateU',0
  5719 000020D2 6174655500         
  5720 000020E0 564D5233476574564D-    g_szVMR3GetVM: db 'VMR3GetVM',0
  5721 000020E0 00                 
  5722 000020EA 564D5233486F74506C-    g_szVMR3HotPlugCpu: db 'VMR3HotPlugCpu',0
  5723 000020EA 756743707500       
  5724 000020F9 564D5233486F74556E-    g_szVMR3HotUnplugCpu: db 'VMR3HotUnplugCpu',0
  5725 000020F9 706C756743707500   
  5726 0000210A 564D52334C6F616446-    g_szVMR3LoadFromFile: db 'VMR3LoadFromFile',0
  5727 0000210A 726F6D46696C6500   
  5728 0000211B 564D52334C6F616446-    g_szVMR3LoadFromStream: db 'VMR3LoadFromStream',0
  5729 0000211B 726F6D53747265616D-
  5730 0000211B 00                 
  5731 0000212E 564D5233506F776572-    g_szVMR3PowerOff: db 'VMR3PowerOff',0
  5732 0000212E 4F666600           
  5733 0000213B 564D5233506F776572-    g_szVMR3PowerOn: db 'VMR3PowerOn',0
  5734 0000213B 4F6E00             
  5735 00002147 564D523352656C6561-    g_szVMR3ReleaseUVM: db 'VMR3ReleaseUVM',0
  5736 00002147 736555564D00       
  5737 00002156 564D52335265714361-    g_szVMR3ReqCallNoWaitU: db 'VMR3ReqCallNoWaitU',0
  5738 00002156 6C6C4E6F5761697455-
  5739 00002156 00                 
  5740 00002169 564D52335265714361-    g_szVMR3ReqCallU: db 'VMR3ReqCallU',0
  5741 00002169 6C6C5500           
  5742 00002176 564D52335265714361-    g_szVMR3ReqCallVoidWaitU: db 'VMR3ReqCallVoidWaitU',0
  5743 00002176 6C6C566F6964576169-
  5744 00002176 745500             
  5745 0000218B 564D52335265714361-    g_szVMR3ReqCallWaitU: db 'VMR3ReqCallWaitU',0
  5746 0000218B 6C6C576169745500   
  5747 0000219C 564D52335265714672-    g_szVMR3ReqFree: db 'VMR3ReqFree',0
  5748 0000219C 656500             
  5749 000021A8 564D52335265715072-    g_szVMR3ReqPriorityCallWaitU: db 'VMR3ReqPriorityCallWaitU',0
  5750 000021A8 696F7269747943616C-
  5751 000021A8 6C576169745500     
  5752 000021C1 564D52335265715761-    g_szVMR3ReqWait: db 'VMR3ReqWait',0
  5753 000021C1 697400             
  5754 000021CD 564D52335265736574-    g_szVMR3Reset: db 'VMR3Reset',0
  5755 000021CD 00                 
  5756 000021D7 564D5233526573756D-    g_szVMR3Resume: db 'VMR3Resume',0
  5757 000021D7 6500               
  5758 000021E2 564D52335265746169-    g_szVMR3RetainUVM: db 'VMR3RetainUVM',0
  5759 000021E2 6E55564D00         
  5760 000021F0 564D52335361766500     g_szVMR3Save: db 'VMR3Save',0
  5761 000021F9 564D52335365744370-    g_szVMR3SetCpuExecutionCap: db 'VMR3SetCpuExecutionCap',0
  5762 000021F9 75457865637574696F-
  5763 000021F9 6E43617000         
  5764 00002210 564D52335365744572-    g_szVMR3SetError: db 'VMR3SetError',0
  5765 00002210 726F7200           
  5766 0000221D 564D5233536574506F-    g_szVMR3SetPowerOffInsteadOfReset: db 'VMR3SetPowerOffInsteadOfReset',0
  5767 0000221D 7765724F6666496E73-
  5768 0000221D 746561644F66526573-
  5769 0000221D 657400             
  5770 0000223B 564D52335375737065-    g_szVMR3Suspend: db 'VMR3Suspend',0
  5771 0000223B 6E6400             
  5772 00002247 564D523354656C6570-    g_szVMR3Teleport: db 'VMR3Teleport',0
  5773 00002247 6F727400           
  5774 00002254 564D52334174537461-    g_szVMR3AtStateDeregister: db 'VMR3AtStateDeregister',0
  5775 00002254 746544657265676973-
  5776 00002254 74657200           
  5777 0000226A 564D52334765745556-    g_szVMR3GetUVM: db 'VMR3GetUVM',0
  5778 0000226A 4D00               
  5779 00002275 00                     g_EndOfNames: db 0
  5780                                 
  5781                                 
  5782                                 
  5783                                 
  5784                                 
  5785                                 [section .text]
  5786                                 ___LazyLoad___CFGMR3GetRoot:
  5787                                 %line 2937+1 /home/se170/VirtualBox-4.3.28/out/linux.amd64/debug/obj/VMMR3LazyImp/VMMR3LazyLoad.asm
  5788 00002276 488D0518EAFFFF          lea rax, [g_szCFGMR3GetRoot wrt rip]
  5789 0000227D 4C8D15(F2FFFFFF)        lea r10, [g_pfnCFGMR3GetRoot wrt rip]
  5790                                 %line 2945+1 /home/se170/VirtualBox-4.3.28/out/linux.amd64/debug/obj/VMMR3LazyImp/VMMR3LazyLoad.asm
  5791 00002284 E8551E0000              call LazyLoadResolver
  5792                                 %line 2949+1 /home/se170/VirtualBox-4.3.28/out/linux.amd64/debug/obj/VMMR3LazyImp/VMMR3LazyLoad.asm
  5793 00002289 E96DDDFFFF              jmp CFGMR3GetRoot
  5794                                 
  5795                                 ___LazyLoad___CFGMR3GetFirstChild:
  5796                                 %line 2953+1 /home/se170/VirtualBox-4.3.28/out/linux.amd64/debug/obj/VMMR3LazyImp/VMMR3LazyLoad.asm
  5797 0000228E 488D050EEAFFFF          lea rax, [g_szCFGMR3GetFirstChild wrt rip]
  5798 00002295 4C8D15(F2FFFFFF)        lea r10, [g_pfnCFGMR3GetFirstChild wrt rip]
  5799                                 %line 2961+1 /home/se170/VirtualBox-4.3.28/out/linux.amd64/debug/obj/VMMR3LazyImp/VMMR3LazyLoad.asm
  5800 0000229C E83D1E0000              call LazyLoadResolver
  5801                                 %line 2965+1 /home/se170/VirtualBox-4.3.28/out/linux.amd64/debug/obj/VMMR3LazyImp/VMMR3LazyLoad.asm
  5802 000022A1 E95FDDFFFF              jmp CFGMR3GetFirstChild
  5803                                 
  5804                                 ___LazyLoad___CFGMR3GetNextChild:
  5805                                 %line 2969+1 /home/se170/VirtualBox-4.3.28/out/linux.amd64/debug/obj/VMMR3LazyImp/VMMR3LazyLoad.asm
  5806 000022A6 488D050AEAFFFF          lea rax, [g_szCFGMR3GetNextChild wrt rip]
  5807 000022AD 4C8D15(F2FFFFFF)        lea r10, [g_pfnCFGMR3GetNextChild wrt rip]
  5808                                 %line 2977+1 /home/se170/VirtualBox-4.3.28/out/linux.amd64/debug/obj/VMMR3LazyImp/VMMR3LazyLoad.asm
  5809 000022B4 E8251E0000              call LazyLoadResolver
  5810                                 %line 2981+1 /home/se170/VirtualBox-4.3.28/out/linux.amd64/debug/obj/VMMR3LazyImp/VMMR3LazyLoad.asm
  5811 000022B9 E951DDFFFF              jmp CFGMR3GetNextChild
  5812                                 
  5813                                 ___LazyLoad___CFGMR3GetNameLen:
  5814                                 %line 2985+1 /home/se170/VirtualBox-4.3.28/out/linux.amd64/debug/obj/VMMR3LazyImp/VMMR3LazyLoad.asm
  5815 000022BE 488D0505EAFFFF          lea rax, [g_szCFGMR3GetNameLen wrt rip]
  5816 000022C5 4C8D15(F2FFFFFF)        lea r10, [g_pfnCFGMR3GetNameLen wrt rip]
  5817                                 %line 2993+1 /home/se170/VirtualBox-4.3.28/out/linux.amd64/debug/obj/VMMR3LazyImp/VMMR3LazyLoad.asm
  5818 000022CC E80D1E0000              call LazyLoadResolver
  5819                                 %line 2997+1 /home/se170/VirtualBox-4.3.28/out/linux.amd64/debug/obj/VMMR3LazyImp/VMMR3LazyLoad.asm
  5820 000022D1 E943DDFFFF              jmp CFGMR3GetNameLen
  5821                                 
  5822                                 ___LazyLoad___CFGMR3GetFirstValue:
  5823                                 %line 3001+1 /home/se170/VirtualBox-4.3.28/out/linux.amd64/debug/obj/VMMR3LazyImp/VMMR3LazyLoad.asm
  5824 000022D6 488D05FEE9FFFF          lea rax, [g_szCFGMR3GetFirstValue wrt rip]
  5825 000022DD 4C8D15(F2FFFFFF)        lea r10, [g_pfnCFGMR3GetFirstValue wrt rip]
  5826                                 %line 3009+1 /home/se170/VirtualBox-4.3.28/out/linux.amd64/debug/obj/VMMR3LazyImp/VMMR3LazyLoad.asm
  5827 000022E4 E8F51D0000              call LazyLoadResolver
  5828                                 %line 3013+1 /home/se170/VirtualBox-4.3.28/out/linux.amd64/debug/obj/VMMR3LazyImp/VMMR3LazyLoad.asm
  5829 000022E9 E935DDFFFF              jmp CFGMR3GetFirstValue
  5830                                 
  5831                                 ___LazyLoad___CFGMR3GetNextValue:
  5832                                 %line 3017+1 /home/se170/VirtualBox-4.3.28/out/linux.amd64/debug/obj/VMMR3LazyImp/VMMR3LazyLoad.asm
  5833 000022EE 488D05FAE9FFFF          lea rax, [g_szCFGMR3GetNextValue wrt rip]
  5834 000022F5 4C8D15(F2FFFFFF)        lea r10, [g_pfnCFGMR3GetNextValue wrt rip]
  5835                                 %line 3025+1 /home/se170/VirtualBox-4.3.28/out/linux.amd64/debug/obj/VMMR3LazyImp/VMMR3LazyLoad.asm
  5836 000022FC E8DD1D0000              call LazyLoadResolver
  5837                                 %line 3029+1 /home/se170/VirtualBox-4.3.28/out/linux.amd64/debug/obj/VMMR3LazyImp/VMMR3LazyLoad.asm
  5838 00002301 E927DDFFFF              jmp CFGMR3GetNextValue
  5839                                 
  5840                                 ___LazyLoad___CFGMR3GetValueNameLen:
  5841                                 %line 3033+1 /home/se170/VirtualBox-4.3.28/out/linux.amd64/debug/obj/VMMR3LazyImp/VMMR3LazyLoad.asm
  5842 00002306 488D05F5E9FFFF          lea rax, [g_szCFGMR3GetValueNameLen wrt rip]
  5843 0000230D 4C8D15(F2FFFFFF)        lea r10, [g_pfnCFGMR3GetValueNameLen wrt rip]
  5844                                 %line 3041+1 /home/se170/VirtualBox-4.3.28/out/linux.amd64/debug/obj/VMMR3LazyImp/VMMR3LazyLoad.asm
  5845 00002314 E8C51D0000              call LazyLoadResolver
  5846                                 %line 3045+1 /home/se170/VirtualBox-4.3.28/out/linux.amd64/debug/obj/VMMR3LazyImp/VMMR3LazyLoad.asm
  5847 00002319 E919DDFFFF              jmp CFGMR3GetValueNameLen
  5848                                 
  5849                                 ___LazyLoad___CFGMR3GetValueType:
  5850                                 %line 3049+1 /home/se170/VirtualBox-4.3.28/out/linux.amd64/debug/obj/VMMR3LazyImp/VMMR3LazyLoad.asm
  5851 0000231E 488D05F3E9FFFF          lea rax, [g_szCFGMR3GetValueType wrt rip]
  5852 00002325 4C8D15(F2FFFFFF)        lea r10, [g_pfnCFGMR3GetValueType wrt rip]
  5853                                 %line 3057+1 /home/se170/VirtualBox-4.3.28/out/linux.amd64/debug/obj/VMMR3LazyImp/VMMR3LazyLoad.asm
  5854 0000232C E8AD1D0000              call LazyLoadResolver
  5855                                 %line 3061+1 /home/se170/VirtualBox-4.3.28/out/linux.amd64/debug/obj/VMMR3LazyImp/VMMR3LazyLoad.asm
  5856 00002331 E90BDDFFFF              jmp CFGMR3GetValueType
  5857                                 
  5858                                 ___LazyLoad___CFGMR3Dump:
  5859                                 %line 3065+1 /home/se170/VirtualBox-4.3.28/out/linux.amd64/debug/obj/VMMR3LazyImp/VMMR3LazyLoad.asm
  5860 00002336 488D05EEE9FFFF          lea rax, [g_szCFGMR3Dump wrt rip]
  5861 0000233D 4C8D15(F2FFFFFF)        lea r10, [g_pfnCFGMR3Dump wrt rip]
  5862                                 %line 3073+1 /home/se170/VirtualBox-4.3.28/out/linux.amd64/debug/obj/VMMR3LazyImp/VMMR3LazyLoad.asm
  5863 00002344 E8951D0000              call LazyLoadResolver
  5864                                 %line 3077+1 /home/se170/VirtualBox-4.3.28/out/linux.amd64/debug/obj/VMMR3LazyImp/VMMR3LazyLoad.asm
  5865 00002349 E9FDDCFFFF              jmp CFGMR3Dump
  5866                                 
  5867                                 ___LazyLoad___CFGMR3CreateTree:
  5868                                 %line 3081+1 /home/se170/VirtualBox-4.3.28/out/linux.amd64/debug/obj/VMMR3LazyImp/VMMR3LazyLoad.asm
  5869 0000234E 488D05E1E9FFFF          lea rax, [g_szCFGMR3CreateTree wrt rip]
  5870 00002355 4C8D15(F2FFFFFF)        lea r10, [g_pfnCFGMR3CreateTree wrt rip]
  5871                                 %line 3089+1 /home/se170/VirtualBox-4.3.28/out/linux.amd64/debug/obj/VMMR3LazyImp/VMMR3LazyLoad.asm
  5872 0000235C E87D1D0000              call LazyLoadResolver
  5873                                 %line 3093+1 /home/se170/VirtualBox-4.3.28/out/linux.amd64/debug/obj/VMMR3LazyImp/VMMR3LazyLoad.asm
  5874 00002361 E9EFDCFFFF              jmp CFGMR3CreateTree
  5875                                 
  5876                                 ___LazyLoad___CFGMR3DestroyTree:
  5877                                 %line 3097+1 /home/se170/VirtualBox-4.3.28/out/linux.amd64/debug/obj/VMMR3LazyImp/VMMR3LazyLoad.asm
  5878 00002366 488D05DAE9FFFF          lea rax, [g_szCFGMR3DestroyTree wrt rip]
  5879 0000236D 4C8D15(F2FFFFFF)        lea r10, [g_pfnCFGMR3DestroyTree wrt rip]
  5880                                 %line 3105+1 /home/se170/VirtualBox-4.3.28/out/linux.amd64/debug/obj/VMMR3LazyImp/VMMR3LazyLoad.asm
  5881 00002374 E8651D0000              call LazyLoadResolver
  5882                                 %line 3109+1 /home/se170/VirtualBox-4.3.28/out/linux.amd64/debug/obj/VMMR3LazyImp/VMMR3LazyLoad.asm
  5883 00002379 E9E1DCFFFF              jmp CFGMR3DestroyTree
  5884                                 
  5885                                 ___LazyLoad___CFGMR3GetValueName:
  5886                                 %line 3113+1 /home/se170/VirtualBox-4.3.28/out/linux.amd64/debug/obj/VMMR3LazyImp/VMMR3LazyLoad.asm
  5887 0000237E 488D05D4E9FFFF          lea rax, [g_szCFGMR3GetValueName wrt rip]
  5888 00002385 4C8D15(F2FFFFFF)        lea r10, [g_pfnCFGMR3GetValueName wrt rip]
  5889                                 %line 3121+1 /home/se170/VirtualBox-4.3.28/out/linux.amd64/debug/obj/VMMR3LazyImp/VMMR3LazyLoad.asm
  5890 0000238C E84D1D0000              call LazyLoadResolver
  5891                                 %line 3125+1 /home/se170/VirtualBox-4.3.28/out/linux.amd64/debug/obj/VMMR3LazyImp/VMMR3LazyLoad.asm
  5892 00002391 E9D3DCFFFF              jmp CFGMR3GetValueName
  5893                                 
  5894                                 ___LazyLoad___CFGMR3GetName:
  5895                                 %line 3129+1 /home/se170/VirtualBox-4.3.28/out/linux.amd64/debug/obj/VMMR3LazyImp/VMMR3LazyLoad.asm
  5896 00002396 488D05CFE9FFFF          lea rax, [g_szCFGMR3GetName wrt rip]
  5897 0000239D 4C8D15(F2FFFFFF)        lea r10, [g_pfnCFGMR3GetName wrt rip]
  5898                                 %line 3137+1 /home/se170/VirtualBox-4.3.28/out/linux.amd64/debug/obj/VMMR3LazyImp/VMMR3LazyLoad.asm
  5899 000023A4 E8351D0000              call LazyLoadResolver
  5900                                 %line 3141+1 /home/se170/VirtualBox-4.3.28/out/linux.amd64/debug/obj/VMMR3LazyImp/VMMR3LazyLoad.asm
  5901 000023A9 E9C5DCFFFF              jmp CFGMR3GetName
  5902                                 
  5903                                 ___LazyLoad___CFGMR3RemoveNode:
  5904                                 %line 3145+1 /home/se170/VirtualBox-4.3.28/out/linux.amd64/debug/obj/VMMR3LazyImp/VMMR3LazyLoad.asm
  5905 000023AE 488D05C5E9FFFF          lea rax, [g_szCFGMR3RemoveNode wrt rip]
  5906 000023B5 4C8D15(F2FFFFFF)        lea r10, [g_pfnCFGMR3RemoveNode wrt rip]
  5907                                 %line 3153+1 /home/se170/VirtualBox-4.3.28/out/linux.amd64/debug/obj/VMMR3LazyImp/VMMR3LazyLoad.asm
  5908 000023BC E81D1D0000              call LazyLoadResolver
  5909                                 %line 3157+1 /home/se170/VirtualBox-4.3.28/out/linux.amd64/debug/obj/VMMR3LazyImp/VMMR3LazyLoad.asm
  5910 000023C1 E9B7DCFFFF              jmp CFGMR3RemoveNode
  5911                                 
  5912                                 ___LazyLoad___CFGMR3InsertBytes:
  5913                                 %line 3161+1 /home/se170/VirtualBox-4.3.28/out/linux.amd64/debug/obj/VMMR3LazyImp/VMMR3LazyLoad.asm
  5914 000023C6 488D05BEE9FFFF          lea rax, [g_szCFGMR3InsertBytes wrt rip]
  5915 000023CD 4C8D15(F2FFFFFF)        lea r10, [g_pfnCFGMR3InsertBytes wrt rip]
  5916                                 %line 3169+1 /home/se170/VirtualBox-4.3.28/out/linux.amd64/debug/obj/VMMR3LazyImp/VMMR3LazyLoad.asm
  5917 000023D4 E8051D0000              call LazyLoadResolver
  5918                                 %line 3173+1 /home/se170/VirtualBox-4.3.28/out/linux.amd64/debug/obj/VMMR3LazyImp/VMMR3LazyLoad.asm
  5919 000023D9 E9A9DCFFFF              jmp CFGMR3InsertBytes
  5920                                 
  5921                                 ___LazyLoad___CFGMR3InsertStringFV:
  5922                                 %line 3177+1 /home/se170/VirtualBox-4.3.28/out/linux.amd64/debug/obj/VMMR3LazyImp/VMMR3LazyLoad.asm
  5923 000023DE 488D05B8E9FFFF          lea rax, [g_szCFGMR3InsertStringFV wrt rip]
  5924 000023E5 4C8D15(F2FFFFFF)        lea r10, [g_pfnCFGMR3InsertStringFV wrt rip]
  5925                                 %line 3185+1 /home/se170/VirtualBox-4.3.28/out/linux.amd64/debug/obj/VMMR3LazyImp/VMMR3LazyLoad.asm
  5926 000023EC E8ED1C0000              call LazyLoadResolver
  5927                                 %line 3189+1 /home/se170/VirtualBox-4.3.28/out/linux.amd64/debug/obj/VMMR3LazyImp/VMMR3LazyLoad.asm
  5928 000023F1 E99BDCFFFF              jmp CFGMR3InsertStringFV
  5929                                 
  5930                                 ___LazyLoad___CFGMR3InsertStringF:
  5931                                 %line 3193+1 /home/se170/VirtualBox-4.3.28/out/linux.amd64/debug/obj/VMMR3LazyImp/VMMR3LazyLoad.asm
  5932 000023F6 488D05B5E9FFFF          lea rax, [g_szCFGMR3InsertStringF wrt rip]
  5933 000023FD 4C8D15(F2FFFFFF)        lea r10, [g_pfnCFGMR3InsertStringF wrt rip]
  5934                                 %line 3201+1 /home/se170/VirtualBox-4.3.28/out/linux.amd64/debug/obj/VMMR3LazyImp/VMMR3LazyLoad.asm
  5935 00002404 E8D51C0000              call LazyLoadResolver
  5936                                 %line 3205+1 /home/se170/VirtualBox-4.3.28/out/linux.amd64/debug/obj/VMMR3LazyImp/VMMR3LazyLoad.asm
  5937 00002409 E98DDCFFFF              jmp CFGMR3InsertStringF
  5938                                 
  5939                                 ___LazyLoad___CFGMR3InsertStringN:
  5940                                 %line 3209+1 /home/se170/VirtualBox-4.3.28/out/linux.amd64/debug/obj/VMMR3LazyImp/VMMR3LazyLoad.asm
  5941 0000240E 488D05B1E9FFFF          lea rax, [g_szCFGMR3InsertStringN wrt rip]
  5942 00002415 4C8D15(F2FFFFFF)        lea r10, [g_pfnCFGMR3InsertStringN wrt rip]
  5943                                 %line 3217+1 /home/se170/VirtualBox-4.3.28/out/linux.amd64/debug/obj/VMMR3LazyImp/VMMR3LazyLoad.asm
  5944 0000241C E8BD1C0000              call LazyLoadResolver
  5945                                 %line 3221+1 /home/se170/VirtualBox-4.3.28/out/linux.amd64/debug/obj/VMMR3LazyImp/VMMR3LazyLoad.asm
  5946 00002421 E97FDCFFFF              jmp CFGMR3InsertStringN
  5947                                 
  5948                                 ___LazyLoad___CFGMR3InsertString:
  5949                                 %line 3225+1 /home/se170/VirtualBox-4.3.28/out/linux.amd64/debug/obj/VMMR3LazyImp/VMMR3LazyLoad.asm
  5950 00002426 488D05ADE9FFFF          lea rax, [g_szCFGMR3InsertString wrt rip]
  5951 0000242D 4C8D15(F2FFFFFF)        lea r10, [g_pfnCFGMR3InsertString wrt rip]
  5952                                 %line 3233+1 /home/se170/VirtualBox-4.3.28/out/linux.amd64/debug/obj/VMMR3LazyImp/VMMR3LazyLoad.asm
  5953 00002434 E8A51C0000              call LazyLoadResolver
  5954                                 %line 3237+1 /home/se170/VirtualBox-4.3.28/out/linux.amd64/debug/obj/VMMR3LazyImp/VMMR3LazyLoad.asm
  5955 00002439 E971DCFFFF              jmp CFGMR3InsertString
  5956                                 
  5957                                 ___LazyLoad___CFGMR3InsertStringW:
  5958                                 %line 3241+1 /home/se170/VirtualBox-4.3.28/out/linux.amd64/debug/obj/VMMR3LazyImp/VMMR3LazyLoad.asm
  5959 0000243E 488D05A8E9FFFF          lea rax, [g_szCFGMR3InsertStringW wrt rip]
  5960 00002445 4C8D15(F2FFFFFF)        lea r10, [g_pfnCFGMR3InsertStringW wrt rip]
  5961                                 %line 3249+1 /home/se170/VirtualBox-4.3.28/out/linux.amd64/debug/obj/VMMR3LazyImp/VMMR3LazyLoad.asm
  5962 0000244C E88D1C0000              call LazyLoadResolver
  5963                                 %line 3253+1 /home/se170/VirtualBox-4.3.28/out/linux.amd64/debug/obj/VMMR3LazyImp/VMMR3LazyLoad.asm
  5964 00002451 E963DCFFFF              jmp CFGMR3InsertStringW
  5965                                 
  5966                                 ___LazyLoad___CFGMR3InsertInteger:
  5967                                 %line 3257+1 /home/se170/VirtualBox-4.3.28/out/linux.amd64/debug/obj/VMMR3LazyImp/VMMR3LazyLoad.asm
  5968 00002456 488D05A4E9FFFF          lea rax, [g_szCFGMR3InsertInteger wrt rip]
  5969 0000245D 4C8D15(F2FFFFFF)        lea r10, [g_pfnCFGMR3InsertInteger wrt rip]
  5970                                 %line 3265+1 /home/se170/VirtualBox-4.3.28/out/linux.amd64/debug/obj/VMMR3LazyImp/VMMR3LazyLoad.asm
  5971 00002464 E8751C0000              call LazyLoadResolver
  5972                                 %line 3269+1 /home/se170/VirtualBox-4.3.28/out/linux.amd64/debug/obj/VMMR3LazyImp/VMMR3LazyLoad.asm
  5973 00002469 E955DCFFFF              jmp CFGMR3InsertInteger
  5974                                 
  5975                                 ___LazyLoad___CFGMR3QueryStringAllocDef:
  5976                                 %line 3273+1 /home/se170/VirtualBox-4.3.28/out/linux.amd64/debug/obj/VMMR3LazyImp/VMMR3LazyLoad.asm
  5977 0000246E 488D05A0E9FFFF          lea rax, [g_szCFGMR3QueryStringAllocDef wrt rip]
  5978 00002475 4C8D15(F2FFFFFF)        lea r10, [g_pfnCFGMR3QueryStringAllocDef wrt rip]
  5979                                 %line 3281+1 /home/se170/VirtualBox-4.3.28/out/linux.amd64/debug/obj/VMMR3LazyImp/VMMR3LazyLoad.asm
  5980 0000247C E85D1C0000              call LazyLoadResolver
  5981                                 %line 3285+1 /home/se170/VirtualBox-4.3.28/out/linux.amd64/debug/obj/VMMR3LazyImp/VMMR3LazyLoad.asm
  5982 00002481 E947DCFFFF              jmp CFGMR3QueryStringAllocDef
  5983                                 
  5984                                 ___LazyLoad___CFGMR3RemoveValue:
  5985                                 %line 3289+1 /home/se170/VirtualBox-4.3.28/out/linux.amd64/debug/obj/VMMR3LazyImp/VMMR3LazyLoad.asm
  5986 00002486 488D05A2E9FFFF          lea rax, [g_szCFGMR3RemoveValue wrt rip]
  5987 0000248D 4C8D15(F2FFFFFF)        lea r10, [g_pfnCFGMR3RemoveValue wrt rip]
  5988                                 %line 3297+1 /home/se170/VirtualBox-4.3.28/out/linux.amd64/debug/obj/VMMR3LazyImp/VMMR3LazyLoad.asm
  5989 00002494 E8451C0000              call LazyLoadResolver
  5990                                 %line 3301+1 /home/se170/VirtualBox-4.3.28/out/linux.amd64/debug/obj/VMMR3LazyImp/VMMR3LazyLoad.asm
  5991 00002499 E939DCFFFF              jmp CFGMR3RemoveValue
  5992                                 
  5993                                 ___LazyLoad___CFGMR3QueryIntegerDef:
  5994                                 %line 3305+1 /home/se170/VirtualBox-4.3.28/out/linux.amd64/debug/obj/VMMR3LazyImp/VMMR3LazyLoad.asm
  5995 0000249E 488D059CE9FFFF          lea rax, [g_szCFGMR3QueryIntegerDef wrt rip]
  5996 000024A5 4C8D15(F2FFFFFF)        lea r10, [g_pfnCFGMR3QueryIntegerDef wrt rip]
  5997                                 %line 3313+1 /home/se170/VirtualBox-4.3.28/out/linux.amd64/debug/obj/VMMR3LazyImp/VMMR3LazyLoad.asm
  5998 000024AC E82D1C0000              call LazyLoadResolver
  5999                                 %line 3317+1 /home/se170/VirtualBox-4.3.28/out/linux.amd64/debug/obj/VMMR3LazyImp/VMMR3LazyLoad.asm
  6000 000024B1 E92BDCFFFF              jmp CFGMR3QueryIntegerDef
  6001                                 
  6002                                 ___LazyLoad___CFGMR3QueryGCPtrSDef:
  6003                                 %line 3321+1 /home/se170/VirtualBox-4.3.28/out/linux.amd64/debug/obj/VMMR3LazyImp/VMMR3LazyLoad.asm
  6004 000024B6 488D059AE9FFFF          lea rax, [g_szCFGMR3QueryGCPtrSDef wrt rip]
  6005 000024BD 4C8D15(F2FFFFFF)        lea r10, [g_pfnCFGMR3QueryGCPtrSDef wrt rip]
  6006                                 %line 3329+1 /home/se170/VirtualBox-4.3.28/out/linux.amd64/debug/obj/VMMR3LazyImp/VMMR3LazyLoad.asm
  6007 000024C4 E8151C0000              call LazyLoadResolver
  6008                                 %line 3333+1 /home/se170/VirtualBox-4.3.28/out/linux.amd64/debug/obj/VMMR3LazyImp/VMMR3LazyLoad.asm
  6009 000024C9 E91DDCFFFF              jmp CFGMR3QueryGCPtrSDef
  6010                                 
  6011                                 ___LazyLoad___CFGMR3QueryGCPtrUDef:
  6012                                 %line 3337+1 /home/se170/VirtualBox-4.3.28/out/linux.amd64/debug/obj/VMMR3LazyImp/VMMR3LazyLoad.asm
  6013 000024CE 488D0597E9FFFF          lea rax, [g_szCFGMR3QueryGCPtrUDef wrt rip]
  6014 000024D5 4C8D15(F2FFFFFF)        lea r10, [g_pfnCFGMR3QueryGCPtrUDef wrt rip]
  6015                                 %line 3345+1 /home/se170/VirtualBox-4.3.28/out/linux.amd64/debug/obj/VMMR3LazyImp/VMMR3LazyLoad.asm
  6016 000024DC E8FD1B0000              call LazyLoadResolver
  6017                                 %line 3349+1 /home/se170/VirtualBox-4.3.28/out/linux.amd64/debug/obj/VMMR3LazyImp/VMMR3LazyLoad.asm
  6018 000024E1 E90FDCFFFF              jmp CFGMR3QueryGCPtrUDef
  6019                                 
  6020                                 ___LazyLoad___CFGMR3QueryGCPtrDef:
  6021                                 %line 3353+1 /home/se170/VirtualBox-4.3.28/out/linux.amd64/debug/obj/VMMR3LazyImp/VMMR3LazyLoad.asm
  6022 000024E6 488D0594E9FFFF          lea rax, [g_szCFGMR3QueryGCPtrDef wrt rip]
  6023 000024ED 4C8D15(F2FFFFFF)        lea r10, [g_pfnCFGMR3QueryGCPtrDef wrt rip]
  6024                                 %line 3361+1 /home/se170/VirtualBox-4.3.28/out/linux.amd64/debug/obj/VMMR3LazyImp/VMMR3LazyLoad.asm
  6025 000024F4 E8E51B0000              call LazyLoadResolver
  6026                                 %line 3365+1 /home/se170/VirtualBox-4.3.28/out/linux.amd64/debug/obj/VMMR3LazyImp/VMMR3LazyLoad.asm
  6027 000024F9 E901DCFFFF              jmp CFGMR3QueryGCPtrDef
  6028                                 
  6029                                 ___LazyLoad___CFGMR3QueryPtrDef:
  6030                                 %line 3369+1 /home/se170/VirtualBox-4.3.28/out/linux.amd64/debug/obj/VMMR3LazyImp/VMMR3LazyLoad.asm
  6031 000024FE 488D0590E9FFFF          lea rax, [g_szCFGMR3QueryPtrDef wrt rip]
  6032 00002505 4C8D15(F2FFFFFF)        lea r10, [g_pfnCFGMR3QueryPtrDef wrt rip]
  6033                                 %line 3377+1 /home/se170/VirtualBox-4.3.28/out/linux.amd64/debug/obj/VMMR3LazyImp/VMMR3LazyLoad.asm
  6034 0000250C E8CD1B0000              call LazyLoadResolver
  6035                                 %line 3381+1 /home/se170/VirtualBox-4.3.28/out/linux.amd64/debug/obj/VMMR3LazyImp/VMMR3LazyLoad.asm
  6036 00002511 E9F3DBFFFF              jmp CFGMR3QueryPtrDef
  6037                                 
  6038                                 ___LazyLoad___CFGMR3QueryBoolDef:
  6039                                 %line 3385+1 /home/se170/VirtualBox-4.3.28/out/linux.amd64/debug/obj/VMMR3LazyImp/VMMR3LazyLoad.asm
  6040 00002516 488D058AE9FFFF          lea rax, [g_szCFGMR3QueryBoolDef wrt rip]
  6041 0000251D 4C8D15(F2FFFFFF)        lea r10, [g_pfnCFGMR3QueryBoolDef wrt rip]
  6042                                 %line 3393+1 /home/se170/VirtualBox-4.3.28/out/linux.amd64/debug/obj/VMMR3LazyImp/VMMR3LazyLoad.asm
  6043 00002524 E8B51B0000              call LazyLoadResolver
  6044                                 %line 3397+1 /home/se170/VirtualBox-4.3.28/out/linux.amd64/debug/obj/VMMR3LazyImp/VMMR3LazyLoad.asm
  6045 00002529 E9E5DBFFFF              jmp CFGMR3QueryBoolDef
  6046                                 
  6047                                 ___LazyLoad___CFGMR3QueryS8Def:
  6048                                 %line 3401+1 /home/se170/VirtualBox-4.3.28/out/linux.amd64/debug/obj/VMMR3LazyImp/VMMR3LazyLoad.asm
  6049 0000252E 488D0585E9FFFF          lea rax, [g_szCFGMR3QueryS8Def wrt rip]
  6050 00002535 4C8D15(F2FFFFFF)        lea r10, [g_pfnCFGMR3QueryS8Def wrt rip]
  6051                                 %line 3409+1 /home/se170/VirtualBox-4.3.28/out/linux.amd64/debug/obj/VMMR3LazyImp/VMMR3LazyLoad.asm
  6052 0000253C E89D1B0000              call LazyLoadResolver
  6053                                 %line 3413+1 /home/se170/VirtualBox-4.3.28/out/linux.amd64/debug/obj/VMMR3LazyImp/VMMR3LazyLoad.asm
  6054 00002541 E9D7DBFFFF              jmp CFGMR3QueryS8Def
  6055                                 
  6056                                 ___LazyLoad___CFGMR3QueryU8Def:
  6057                                 %line 3417+1 /home/se170/VirtualBox-4.3.28/out/linux.amd64/debug/obj/VMMR3LazyImp/VMMR3LazyLoad.asm
  6058 00002546 488D057EE9FFFF          lea rax, [g_szCFGMR3QueryU8Def wrt rip]
  6059 0000254D 4C8D15(F2FFFFFF)        lea r10, [g_pfnCFGMR3QueryU8Def wrt rip]
  6060                                 %line 3425+1 /home/se170/VirtualBox-4.3.28/out/linux.amd64/debug/obj/VMMR3LazyImp/VMMR3LazyLoad.asm
  6061 00002554 E8851B0000              call LazyLoadResolver
  6062                                 %line 3429+1 /home/se170/VirtualBox-4.3.28/out/linux.amd64/debug/obj/VMMR3LazyImp/VMMR3LazyLoad.asm
  6063 00002559 E9C9DBFFFF              jmp CFGMR3QueryU8Def
  6064                                 
  6065                                 ___LazyLoad___CFGMR3QueryS16Def:
  6066                                 %line 3433+1 /home/se170/VirtualBox-4.3.28/out/linux.amd64/debug/obj/VMMR3LazyImp/VMMR3LazyLoad.asm
  6067 0000255E 488D0577E9FFFF          lea rax, [g_szCFGMR3QueryS16Def wrt rip]
  6068 00002565 4C8D15(F2FFFFFF)        lea r10, [g_pfnCFGMR3QueryS16Def wrt rip]
  6069                                 %line 3441+1 /home/se170/VirtualBox-4.3.28/out/linux.amd64/debug/obj/VMMR3LazyImp/VMMR3LazyLoad.asm
  6070 0000256C E86D1B0000              call LazyLoadResolver
  6071                                 %line 3445+1 /home/se170/VirtualBox-4.3.28/out/linux.amd64/debug/obj/VMMR3LazyImp/VMMR3LazyLoad.asm
  6072 00002571 E9BBDBFFFF              jmp CFGMR3QueryS16Def
  6073                                 
  6074                                 ___LazyLoad___CFGMR3QueryU16Def:
  6075                                 %line 3449+1 /home/se170/VirtualBox-4.3.28/out/linux.amd64/debug/obj/VMMR3LazyImp/VMMR3LazyLoad.asm
  6076 00002576 488D0571E9FFFF          lea rax, [g_szCFGMR3QueryU16Def wrt rip]
  6077 0000257D 4C8D15(F2FFFFFF)        lea r10, [g_pfnCFGMR3QueryU16Def wrt rip]
  6078                                 %line 3457+1 /home/se170/VirtualBox-4.3.28/out/linux.amd64/debug/obj/VMMR3LazyImp/VMMR3LazyLoad.asm
  6079 00002584 E8551B0000              call LazyLoadResolver
  6080                                 %line 3461+1 /home/se170/VirtualBox-4.3.28/out/linux.amd64/debug/obj/VMMR3LazyImp/VMMR3LazyLoad.asm
  6081 00002589 E9ADDBFFFF              jmp CFGMR3QueryU16Def
  6082                                 
  6083                                 ___LazyLoad___CFGMR3QueryPortDef:
  6084                                 %line 3465+1 /home/se170/VirtualBox-4.3.28/out/linux.amd64/debug/obj/VMMR3LazyImp/VMMR3LazyLoad.asm
  6085 0000258E 488D056BE9FFFF          lea rax, [g_szCFGMR3QueryPortDef wrt rip]
  6086 00002595 4C8D15(F2FFFFFF)        lea r10, [g_pfnCFGMR3QueryPortDef wrt rip]
  6087                                 %line 3473+1 /home/se170/VirtualBox-4.3.28/out/linux.amd64/debug/obj/VMMR3LazyImp/VMMR3LazyLoad.asm
  6088 0000259C E83D1B0000              call LazyLoadResolver
  6089                                 %line 3477+1 /home/se170/VirtualBox-4.3.28/out/linux.amd64/debug/obj/VMMR3LazyImp/VMMR3LazyLoad.asm
  6090 000025A1 E99FDBFFFF              jmp CFGMR3QueryPortDef
  6091                                 
  6092                                 ___LazyLoad___CFGMR3QueryS32Def:
  6093                                 %line 3481+1 /home/se170/VirtualBox-4.3.28/out/linux.amd64/debug/obj/VMMR3LazyImp/VMMR3LazyLoad.asm
  6094 000025A6 488D0566E9FFFF          lea rax, [g_szCFGMR3QueryS32Def wrt rip]
  6095 000025AD 4C8D15(F2FFFFFF)        lea r10, [g_pfnCFGMR3QueryS32Def wrt rip]
  6096                                 %line 3489+1 /home/se170/VirtualBox-4.3.28/out/linux.amd64/debug/obj/VMMR3LazyImp/VMMR3LazyLoad.asm
  6097 000025B4 E8251B0000              call LazyLoadResolver
  6098                                 %line 3493+1 /home/se170/VirtualBox-4.3.28/out/linux.amd64/debug/obj/VMMR3LazyImp/VMMR3LazyLoad.asm
  6099 000025B9 E991DBFFFF              jmp CFGMR3QueryS32Def
  6100                                 
  6101                                 ___LazyLoad___CFGMR3QuerySIntDef:
  6102                                 %line 3497+1 /home/se170/VirtualBox-4.3.28/out/linux.amd64/debug/obj/VMMR3LazyImp/VMMR3LazyLoad.asm
  6103 000025BE 488D0560E9FFFF          lea rax, [g_szCFGMR3QuerySIntDef wrt rip]
  6104 000025C5 4C8D15(F2FFFFFF)        lea r10, [g_pfnCFGMR3QuerySIntDef wrt rip]
  6105                                 %line 3505+1 /home/se170/VirtualBox-4.3.28/out/linux.amd64/debug/obj/VMMR3LazyImp/VMMR3LazyLoad.asm
  6106 000025CC E80D1B0000              call LazyLoadResolver
  6107                                 %line 3509+1 /home/se170/VirtualBox-4.3.28/out/linux.amd64/debug/obj/VMMR3LazyImp/VMMR3LazyLoad.asm
  6108 000025D1 E983DBFFFF              jmp CFGMR3QuerySIntDef
  6109                                 
  6110                                 ___LazyLoad___CFGMR3QueryU32Def:
  6111                                 %line 3513+1 /home/se170/VirtualBox-4.3.28/out/linux.amd64/debug/obj/VMMR3LazyImp/VMMR3LazyLoad.asm
  6112 000025D6 488D055BE9FFFF          lea rax, [g_szCFGMR3QueryU32Def wrt rip]
  6113 000025DD 4C8D15(F2FFFFFF)        lea r10, [g_pfnCFGMR3QueryU32Def wrt rip]
  6114                                 %line 3521+1 /home/se170/VirtualBox-4.3.28/out/linux.amd64/debug/obj/VMMR3LazyImp/VMMR3LazyLoad.asm
  6115 000025E4 E8F51A0000              call LazyLoadResolver
  6116                                 %line 3525+1 /home/se170/VirtualBox-4.3.28/out/linux.amd64/debug/obj/VMMR3LazyImp/VMMR3LazyLoad.asm
  6117 000025E9 E975DBFFFF              jmp CFGMR3QueryU32Def
  6118                                 
  6119                                 ___LazyLoad___CFGMR3QueryUIntDef:
  6120                                 %line 3529+1 /home/se170/VirtualBox-4.3.28/out/linux.amd64/debug/obj/VMMR3LazyImp/VMMR3LazyLoad.asm
  6121 000025EE 488D0555E9FFFF          lea rax, [g_szCFGMR3QueryUIntDef wrt rip]
  6122 000025F5 4C8D15(F2FFFFFF)        lea r10, [g_pfnCFGMR3QueryUIntDef wrt rip]
  6123                                 %line 3537+1 /home/se170/VirtualBox-4.3.28/out/linux.amd64/debug/obj/VMMR3LazyImp/VMMR3LazyLoad.asm
  6124 000025FC E8DD1A0000              call LazyLoadResolver
  6125                                 %line 3541+1 /home/se170/VirtualBox-4.3.28/out/linux.amd64/debug/obj/VMMR3LazyImp/VMMR3LazyLoad.asm
  6126 00002601 E967DBFFFF              jmp CFGMR3QueryUIntDef
  6127                                 
  6128                                 ___LazyLoad___CFGMR3QueryS64Def:
  6129                                 %line 3545+1 /home/se170/VirtualBox-4.3.28/out/linux.amd64/debug/obj/VMMR3LazyImp/VMMR3LazyLoad.asm
  6130 00002606 488D0550E9FFFF          lea rax, [g_szCFGMR3QueryS64Def wrt rip]
  6131 0000260D 4C8D15(F2FFFFFF)        lea r10, [g_pfnCFGMR3QueryS64Def wrt rip]
  6132                                 %line 3553+1 /home/se170/VirtualBox-4.3.28/out/linux.amd64/debug/obj/VMMR3LazyImp/VMMR3LazyLoad.asm
  6133 00002614 E8C51A0000              call LazyLoadResolver
  6134                                 %line 3557+1 /home/se170/VirtualBox-4.3.28/out/linux.amd64/debug/obj/VMMR3LazyImp/VMMR3LazyLoad.asm
  6135 00002619 E959DBFFFF              jmp CFGMR3QueryS64Def
  6136                                 
  6137                                 ___LazyLoad___CFGMR3QueryU64Def:
  6138                                 %line 3561+1 /home/se170/VirtualBox-4.3.28/out/linux.amd64/debug/obj/VMMR3LazyImp/VMMR3LazyLoad.asm
  6139 0000261E 488D054AE9FFFF          lea rax, [g_szCFGMR3QueryU64Def wrt rip]
  6140 00002625 4C8D15(F2FFFFFF)        lea r10, [g_pfnCFGMR3QueryU64Def wrt rip]
  6141                                 %line 3569+1 /home/se170/VirtualBox-4.3.28/out/linux.amd64/debug/obj/VMMR3LazyImp/VMMR3LazyLoad.asm
  6142 0000262C E8AD1A0000              call LazyLoadResolver
  6143                                 %line 3573+1 /home/se170/VirtualBox-4.3.28/out/linux.amd64/debug/obj/VMMR3LazyImp/VMMR3LazyLoad.asm
  6144 00002631 E94BDBFFFF              jmp CFGMR3QueryU64Def
  6145                                 
  6146                                 ___LazyLoad___CFGMR3QueryInteger:
  6147                                 %line 3577+1 /home/se170/VirtualBox-4.3.28/out/linux.amd64/debug/obj/VMMR3LazyImp/VMMR3LazyLoad.asm
  6148 00002636 488D0544E9FFFF          lea rax, [g_szCFGMR3QueryInteger wrt rip]
  6149 0000263D 4C8D15(F2FFFFFF)        lea r10, [g_pfnCFGMR3QueryInteger wrt rip]
  6150                                 %line 3585+1 /home/se170/VirtualBox-4.3.28/out/linux.amd64/debug/obj/VMMR3LazyImp/VMMR3LazyLoad.asm
  6151 00002644 E8951A0000              call LazyLoadResolver
  6152                                 %line 3589+1 /home/se170/VirtualBox-4.3.28/out/linux.amd64/debug/obj/VMMR3LazyImp/VMMR3LazyLoad.asm
  6153 00002649 E93DDBFFFF              jmp CFGMR3QueryInteger
  6154                                 
  6155                                 ___LazyLoad___CFGMR3QueryGCPtrS:
  6156                                 %line 3593+1 /home/se170/VirtualBox-4.3.28/out/linux.amd64/debug/obj/VMMR3LazyImp/VMMR3LazyLoad.asm
  6157 0000264E 488D053FE9FFFF          lea rax, [g_szCFGMR3QueryGCPtrS wrt rip]
  6158 00002655 4C8D15(F2FFFFFF)        lea r10, [g_pfnCFGMR3QueryGCPtrS wrt rip]
  6159                                 %line 3601+1 /home/se170/VirtualBox-4.3.28/out/linux.amd64/debug/obj/VMMR3LazyImp/VMMR3LazyLoad.asm
  6160 0000265C E87D1A0000              call LazyLoadResolver
  6161                                 %line 3605+1 /home/se170/VirtualBox-4.3.28/out/linux.amd64/debug/obj/VMMR3LazyImp/VMMR3LazyLoad.asm
  6162 00002661 E92FDBFFFF              jmp CFGMR3QueryGCPtrS
  6163                                 
  6164                                 ___LazyLoad___CFGMR3QueryGCPtrU:
  6165                                 %line 3609+1 /home/se170/VirtualBox-4.3.28/out/linux.amd64/debug/obj/VMMR3LazyImp/VMMR3LazyLoad.asm
  6166 00002666 488D0539E9FFFF          lea rax, [g_szCFGMR3QueryGCPtrU wrt rip]
  6167 0000266D 4C8D15(F2FFFFFF)        lea r10, [g_pfnCFGMR3QueryGCPtrU wrt rip]
  6168                                 %line 3617+1 /home/se170/VirtualBox-4.3.28/out/linux.amd64/debug/obj/VMMR3LazyImp/VMMR3LazyLoad.asm
  6169 00002674 E8651A0000              call LazyLoadResolver
  6170                                 %line 3621+1 /home/se170/VirtualBox-4.3.28/out/linux.amd64/debug/obj/VMMR3LazyImp/VMMR3LazyLoad.asm
  6171 00002679 E921DBFFFF              jmp CFGMR3QueryGCPtrU
  6172                                 
  6173                                 ___LazyLoad___CFGMR3QueryGCPtr:
  6174                                 %line 3625+1 /home/se170/VirtualBox-4.3.28/out/linux.amd64/debug/obj/VMMR3LazyImp/VMMR3LazyLoad.asm
  6175 0000267E 488D0533E9FFFF          lea rax, [g_szCFGMR3QueryGCPtr wrt rip]
  6176 00002685 4C8D15(F2FFFFFF)        lea r10, [g_pfnCFGMR3QueryGCPtr wrt rip]
  6177                                 %line 3633+1 /home/se170/VirtualBox-4.3.28/out/linux.amd64/debug/obj/VMMR3LazyImp/VMMR3LazyLoad.asm
  6178 0000268C E84D1A0000              call LazyLoadResolver
  6179                                 %line 3637+1 /home/se170/VirtualBox-4.3.28/out/linux.amd64/debug/obj/VMMR3LazyImp/VMMR3LazyLoad.asm
  6180 00002691 E913DBFFFF              jmp CFGMR3QueryGCPtr
  6181                                 
  6182                                 ___LazyLoad___CFGMR3QueryPtr:
  6183                                 %line 3641+1 /home/se170/VirtualBox-4.3.28/out/linux.amd64/debug/obj/VMMR3LazyImp/VMMR3LazyLoad.asm
  6184 00002696 488D052CE9FFFF          lea rax, [g_szCFGMR3QueryPtr wrt rip]
  6185 0000269D 4C8D15(F2FFFFFF)        lea r10, [g_pfnCFGMR3QueryPtr wrt rip]
  6186                                 %line 3649+1 /home/se170/VirtualBox-4.3.28/out/linux.amd64/debug/obj/VMMR3LazyImp/VMMR3LazyLoad.asm
  6187 000026A4 E8351A0000              call LazyLoadResolver
  6188                                 %line 3653+1 /home/se170/VirtualBox-4.3.28/out/linux.amd64/debug/obj/VMMR3LazyImp/VMMR3LazyLoad.asm
  6189 000026A9 E905DBFFFF              jmp CFGMR3QueryPtr
  6190                                 
  6191                                 ___LazyLoad___CFGMR3QueryBool:
  6192                                 %line 3657+1 /home/se170/VirtualBox-4.3.28/out/linux.amd64/debug/obj/VMMR3LazyImp/VMMR3LazyLoad.asm
  6193 000026AE 488D0523E9FFFF          lea rax, [g_szCFGMR3QueryBool wrt rip]
  6194 000026B5 4C8D15(F2FFFFFF)        lea r10, [g_pfnCFGMR3QueryBool wrt rip]
  6195                                 %line 3665+1 /home/se170/VirtualBox-4.3.28/out/linux.amd64/debug/obj/VMMR3LazyImp/VMMR3LazyLoad.asm
  6196 000026BC E81D1A0000              call LazyLoadResolver
  6197                                 %line 3669+1 /home/se170/VirtualBox-4.3.28/out/linux.amd64/debug/obj/VMMR3LazyImp/VMMR3LazyLoad.asm
  6198 000026C1 E9F7DAFFFF              jmp CFGMR3QueryBool
  6199                                 
  6200                                 ___LazyLoad___CFGMR3QueryS8:
  6201                                 %line 3673+1 /home/se170/VirtualBox-4.3.28/out/linux.amd64/debug/obj/VMMR3LazyImp/VMMR3LazyLoad.asm
  6202 000026C6 488D051BE9FFFF          lea rax, [g_szCFGMR3QueryS8 wrt rip]
  6203 000026CD 4C8D15(F2FFFFFF)        lea r10, [g_pfnCFGMR3QueryS8 wrt rip]
  6204                                 %line 3681+1 /home/se170/VirtualBox-4.3.28/out/linux.amd64/debug/obj/VMMR3LazyImp/VMMR3LazyLoad.asm
  6205 000026D4 E8051A0000              call LazyLoadResolver
  6206                                 %line 3685+1 /home/se170/VirtualBox-4.3.28/out/linux.amd64/debug/obj/VMMR3LazyImp/VMMR3LazyLoad.asm
  6207 000026D9 E9E9DAFFFF              jmp CFGMR3QueryS8
  6208                                 
  6209                                 ___LazyLoad___CFGMR3QueryU8:
  6210                                 %line 3689+1 /home/se170/VirtualBox-4.3.28/out/linux.amd64/debug/obj/VMMR3LazyImp/VMMR3LazyLoad.asm
  6211 000026DE 488D0511E9FFFF          lea rax, [g_szCFGMR3QueryU8 wrt rip]
  6212 000026E5 4C8D15(F2FFFFFF)        lea r10, [g_pfnCFGMR3QueryU8 wrt rip]
  6213                                 %line 3697+1 /home/se170/VirtualBox-4.3.28/out/linux.amd64/debug/obj/VMMR3LazyImp/VMMR3LazyLoad.asm
  6214 000026EC E8ED190000              call LazyLoadResolver
  6215                                 %line 3701+1 /home/se170/VirtualBox-4.3.28/out/linux.amd64/debug/obj/VMMR3LazyImp/VMMR3LazyLoad.asm
  6216 000026F1 E9DBDAFFFF              jmp CFGMR3QueryU8
  6217                                 
  6218                                 ___LazyLoad___CFGMR3QueryS16:
  6219                                 %line 3705+1 /home/se170/VirtualBox-4.3.28/out/linux.amd64/debug/obj/VMMR3LazyImp/VMMR3LazyLoad.asm
  6220 000026F6 488D0507E9FFFF          lea rax, [g_szCFGMR3QueryS16 wrt rip]
  6221 000026FD 4C8D15(F2FFFFFF)        lea r10, [g_pfnCFGMR3QueryS16 wrt rip]
  6222                                 %line 3713+1 /home/se170/VirtualBox-4.3.28/out/linux.amd64/debug/obj/VMMR3LazyImp/VMMR3LazyLoad.asm
  6223 00002704 E8D5190000              call LazyLoadResolver
  6224                                 %line 3717+1 /home/se170/VirtualBox-4.3.28/out/linux.amd64/debug/obj/VMMR3LazyImp/VMMR3LazyLoad.asm
  6225 00002709 E9CDDAFFFF              jmp CFGMR3QueryS16
  6226                                 
  6227                                 ___LazyLoad___CFGMR3QueryU16:
  6228                                 %line 3721+1 /home/se170/VirtualBox-4.3.28/out/linux.amd64/debug/obj/VMMR3LazyImp/VMMR3LazyLoad.asm
  6229 0000270E 488D05FEE8FFFF          lea rax, [g_szCFGMR3QueryU16 wrt rip]
  6230 00002715 4C8D15(F2FFFFFF)        lea r10, [g_pfnCFGMR3QueryU16 wrt rip]
  6231                                 %line 3729+1 /home/se170/VirtualBox-4.3.28/out/linux.amd64/debug/obj/VMMR3LazyImp/VMMR3LazyLoad.asm
  6232 0000271C E8BD190000              call LazyLoadResolver
  6233                                 %line 3733+1 /home/se170/VirtualBox-4.3.28/out/linux.amd64/debug/obj/VMMR3LazyImp/VMMR3LazyLoad.asm
  6234 00002721 E9BFDAFFFF              jmp CFGMR3QueryU16
  6235                                 
  6236                                 ___LazyLoad___CFGMR3QueryPort:
  6237                                 %line 3737+1 /home/se170/VirtualBox-4.3.28/out/linux.amd64/debug/obj/VMMR3LazyImp/VMMR3LazyLoad.asm
  6238 00002726 488D05F5E8FFFF          lea rax, [g_szCFGMR3QueryPort wrt rip]
  6239 0000272D 4C8D15(F2FFFFFF)        lea r10, [g_pfnCFGMR3QueryPort wrt rip]
  6240                                 %line 3745+1 /home/se170/VirtualBox-4.3.28/out/linux.amd64/debug/obj/VMMR3LazyImp/VMMR3LazyLoad.asm
  6241 00002734 E8A5190000              call LazyLoadResolver
  6242                                 %line 3749+1 /home/se170/VirtualBox-4.3.28/out/linux.amd64/debug/obj/VMMR3LazyImp/VMMR3LazyLoad.asm
  6243 00002739 E9B1DAFFFF              jmp CFGMR3QueryPort
  6244                                 
  6245                                 ___LazyLoad___CFGMR3QueryS32:
  6246                                 %line 3753+1 /home/se170/VirtualBox-4.3.28/out/linux.amd64/debug/obj/VMMR3LazyImp/VMMR3LazyLoad.asm
  6247 0000273E 488D05EDE8FFFF          lea rax, [g_szCFGMR3QueryS32 wrt rip]
  6248 00002745 4C8D15(F2FFFFFF)        lea r10, [g_pfnCFGMR3QueryS32 wrt rip]
  6249                                 %line 3761+1 /home/se170/VirtualBox-4.3.28/out/linux.amd64/debug/obj/VMMR3LazyImp/VMMR3LazyLoad.asm
  6250 0000274C E88D190000              call LazyLoadResolver
  6251                                 %line 3765+1 /home/se170/VirtualBox-4.3.28/out/linux.amd64/debug/obj/VMMR3LazyImp/VMMR3LazyLoad.asm
  6252 00002751 E9A3DAFFFF              jmp CFGMR3QueryS32
  6253                                 
  6254                                 ___LazyLoad___CFGMR3QuerySInt:
  6255                                 %line 3769+1 /home/se170/VirtualBox-4.3.28/out/linux.amd64/debug/obj/VMMR3LazyImp/VMMR3LazyLoad.asm
  6256 00002756 488D05E4E8FFFF          lea rax, [g_szCFGMR3QuerySInt wrt rip]
  6257 0000275D 4C8D15(F2FFFFFF)        lea r10, [g_pfnCFGMR3QuerySInt wrt rip]
  6258                                 %line 3777+1 /home/se170/VirtualBox-4.3.28/out/linux.amd64/debug/obj/VMMR3LazyImp/VMMR3LazyLoad.asm
  6259 00002764 E875190000              call LazyLoadResolver
  6260                                 %line 3781+1 /home/se170/VirtualBox-4.3.28/out/linux.amd64/debug/obj/VMMR3LazyImp/VMMR3LazyLoad.asm
  6261 00002769 E995DAFFFF              jmp CFGMR3QuerySInt
  6262                                 
  6263                                 ___LazyLoad___CFGMR3QueryU32:
  6264                                 %line 3785+1 /home/se170/VirtualBox-4.3.28/out/linux.amd64/debug/obj/VMMR3LazyImp/VMMR3LazyLoad.asm
  6265 0000276E 488D05DCE8FFFF          lea rax, [g_szCFGMR3QueryU32 wrt rip]
  6266 00002775 4C8D15(F2FFFFFF)        lea r10, [g_pfnCFGMR3QueryU32 wrt rip]
  6267                                 %line 3793+1 /home/se170/VirtualBox-4.3.28/out/linux.amd64/debug/obj/VMMR3LazyImp/VMMR3LazyLoad.asm
  6268 0000277C E85D190000              call LazyLoadResolver
  6269                                 %line 3797+1 /home/se170/VirtualBox-4.3.28/out/linux.amd64/debug/obj/VMMR3LazyImp/VMMR3LazyLoad.asm
  6270 00002781 E987DAFFFF              jmp CFGMR3QueryU32
  6271                                 
  6272                                 ___LazyLoad___CFGMR3QueryUInt:
  6273                                 %line 3801+1 /home/se170/VirtualBox-4.3.28/out/linux.amd64/debug/obj/VMMR3LazyImp/VMMR3LazyLoad.asm
  6274 00002786 488D05D3E8FFFF          lea rax, [g_szCFGMR3QueryUInt wrt rip]
  6275 0000278D 4C8D15(F2FFFFFF)        lea r10, [g_pfnCFGMR3QueryUInt wrt rip]
  6276                                 %line 3809+1 /home/se170/VirtualBox-4.3.28/out/linux.amd64/debug/obj/VMMR3LazyImp/VMMR3LazyLoad.asm
  6277 00002794 E845190000              call LazyLoadResolver
  6278                                 %line 3813+1 /home/se170/VirtualBox-4.3.28/out/linux.amd64/debug/obj/VMMR3LazyImp/VMMR3LazyLoad.asm
  6279 00002799 E979DAFFFF              jmp CFGMR3QueryUInt
  6280                                 
  6281                                 ___LazyLoad___CFGMR3QueryS64:
  6282                                 %line 3817+1 /home/se170/VirtualBox-4.3.28/out/linux.amd64/debug/obj/VMMR3LazyImp/VMMR3LazyLoad.asm
  6283 0000279E 488D05CBE8FFFF          lea rax, [g_szCFGMR3QueryS64 wrt rip]
  6284 000027A5 4C8D15(F2FFFFFF)        lea r10, [g_pfnCFGMR3QueryS64 wrt rip]
  6285                                 %line 3825+1 /home/se170/VirtualBox-4.3.28/out/linux.amd64/debug/obj/VMMR3LazyImp/VMMR3LazyLoad.asm
  6286 000027AC E82D190000              call LazyLoadResolver
  6287                                 %line 3829+1 /home/se170/VirtualBox-4.3.28/out/linux.amd64/debug/obj/VMMR3LazyImp/VMMR3LazyLoad.asm
  6288 000027B1 E96BDAFFFF              jmp CFGMR3QueryS64
  6289                                 
  6290                                 ___LazyLoad___CFGMR3QueryU64:
  6291                                 %line 3833+1 /home/se170/VirtualBox-4.3.28/out/linux.amd64/debug/obj/VMMR3LazyImp/VMMR3LazyLoad.asm
  6292 000027B6 488D05C2E8FFFF          lea rax, [g_szCFGMR3QueryU64 wrt rip]
  6293 000027BD 4C8D15(F2FFFFFF)        lea r10, [g_pfnCFGMR3QueryU64 wrt rip]
  6294                                 %line 3841+1 /home/se170/VirtualBox-4.3.28/out/linux.amd64/debug/obj/VMMR3LazyImp/VMMR3LazyLoad.asm
  6295 000027C4 E815190000              call LazyLoadResolver
  6296                                 %line 3845+1 /home/se170/VirtualBox-4.3.28/out/linux.amd64/debug/obj/VMMR3LazyImp/VMMR3LazyLoad.asm
  6297 000027C9 E95DDAFFFF              jmp CFGMR3QueryU64
  6298                                 
  6299                                 ___LazyLoad___CFGMR3QuerySize:
  6300                                 %line 3849+1 /home/se170/VirtualBox-4.3.28/out/linux.amd64/debug/obj/VMMR3LazyImp/VMMR3LazyLoad.asm
  6301 000027CE 488D05B9E8FFFF          lea rax, [g_szCFGMR3QuerySize wrt rip]
  6302 000027D5 4C8D15(F2FFFFFF)        lea r10, [g_pfnCFGMR3QuerySize wrt rip]
  6303                                 %line 3857+1 /home/se170/VirtualBox-4.3.28/out/linux.amd64/debug/obj/VMMR3LazyImp/VMMR3LazyLoad.asm
  6304 000027DC E8FD180000              call LazyLoadResolver
  6305                                 %line 3861+1 /home/se170/VirtualBox-4.3.28/out/linux.amd64/debug/obj/VMMR3LazyImp/VMMR3LazyLoad.asm
  6306 000027E1 E94FDAFFFF              jmp CFGMR3QuerySize
  6307                                 
  6308                                 ___LazyLoad___CFGMR3QueryType:
  6309                                 %line 3865+1 /home/se170/VirtualBox-4.3.28/out/linux.amd64/debug/obj/VMMR3LazyImp/VMMR3LazyLoad.asm
  6310 000027E6 488D05B1E8FFFF          lea rax, [g_szCFGMR3QueryType wrt rip]
  6311 000027ED 4C8D15(F2FFFFFF)        lea r10, [g_pfnCFGMR3QueryType wrt rip]
  6312                                 %line 3873+1 /home/se170/VirtualBox-4.3.28/out/linux.amd64/debug/obj/VMMR3LazyImp/VMMR3LazyLoad.asm
  6313 000027F4 E8E5180000              call LazyLoadResolver
  6314                                 %line 3877+1 /home/se170/VirtualBox-4.3.28/out/linux.amd64/debug/obj/VMMR3LazyImp/VMMR3LazyLoad.asm
  6315 000027F9 E941DAFFFF              jmp CFGMR3QueryType
  6316                                 
  6317                                 ___LazyLoad___CFGMR3AreValuesValid:
  6318                                 %line 3881+1 /home/se170/VirtualBox-4.3.28/out/linux.amd64/debug/obj/VMMR3LazyImp/VMMR3LazyLoad.asm
  6319 000027FE 488D05A9E8FFFF          lea rax, [g_szCFGMR3AreValuesValid wrt rip]
  6320 00002805 4C8D15(F2FFFFFF)        lea r10, [g_pfnCFGMR3AreValuesValid wrt rip]
  6321                                 %line 3889+1 /home/se170/VirtualBox-4.3.28/out/linux.amd64/debug/obj/VMMR3LazyImp/VMMR3LazyLoad.asm
  6322 0000280C E8CD180000              call LazyLoadResolver
  6323                                 %line 3893+1 /home/se170/VirtualBox-4.3.28/out/linux.amd64/debug/obj/VMMR3LazyImp/VMMR3LazyLoad.asm
  6324 00002811 E933DAFFFF              jmp CFGMR3AreValuesValid
  6325                                 
  6326                                 ___LazyLoad___CFGMR3AreChildrenValid:
  6327                                 %line 3897+1 /home/se170/VirtualBox-4.3.28/out/linux.amd64/debug/obj/VMMR3LazyImp/VMMR3LazyLoad.asm
  6328 00002816 488D05A6E8FFFF          lea rax, [g_szCFGMR3AreChildrenValid wrt rip]
  6329 0000281D 4C8D15(F2FFFFFF)        lea r10, [g_pfnCFGMR3AreChildrenValid wrt rip]
  6330                                 %line 3905+1 /home/se170/VirtualBox-4.3.28/out/linux.amd64/debug/obj/VMMR3LazyImp/VMMR3LazyLoad.asm
  6331 00002824 E8B5180000              call LazyLoadResolver
  6332                                 %line 3909+1 /home/se170/VirtualBox-4.3.28/out/linux.amd64/debug/obj/VMMR3LazyImp/VMMR3LazyLoad.asm
  6333 00002829 E925DAFFFF              jmp CFGMR3AreChildrenValid
  6334                                 
  6335                                 ___LazyLoad___CFGMR3GetChildFV:
  6336                                 %line 3913+1 /home/se170/VirtualBox-4.3.28/out/linux.amd64/debug/obj/VMMR3LazyImp/VMMR3LazyLoad.asm
  6337 0000282E 488D05A5E8FFFF          lea rax, [g_szCFGMR3GetChildFV wrt rip]
  6338 00002835 4C8D15(F2FFFFFF)        lea r10, [g_pfnCFGMR3GetChildFV wrt rip]
  6339                                 %line 3921+1 /home/se170/VirtualBox-4.3.28/out/linux.amd64/debug/obj/VMMR3LazyImp/VMMR3LazyLoad.asm
  6340 0000283C E89D180000              call LazyLoadResolver
  6341                                 %line 3925+1 /home/se170/VirtualBox-4.3.28/out/linux.amd64/debug/obj/VMMR3LazyImp/VMMR3LazyLoad.asm
  6342 00002841 E917DAFFFF              jmp CFGMR3GetChildFV
  6343                                 
  6344                                 ___LazyLoad___CFGMR3GetChildF:
  6345                                 %line 3929+1 /home/se170/VirtualBox-4.3.28/out/linux.amd64/debug/obj/VMMR3LazyImp/VMMR3LazyLoad.asm
  6346 00002846 488D059EE8FFFF          lea rax, [g_szCFGMR3GetChildF wrt rip]
  6347 0000284D 4C8D15(F2FFFFFF)        lea r10, [g_pfnCFGMR3GetChildF wrt rip]
  6348                                 %line 3937+1 /home/se170/VirtualBox-4.3.28/out/linux.amd64/debug/obj/VMMR3LazyImp/VMMR3LazyLoad.asm
  6349 00002854 E885180000              call LazyLoadResolver
  6350                                 %line 3941+1 /home/se170/VirtualBox-4.3.28/out/linux.amd64/debug/obj/VMMR3LazyImp/VMMR3LazyLoad.asm
  6351 00002859 E909DAFFFF              jmp CFGMR3GetChildF
  6352                                 
  6353                                 ___LazyLoad___CFGMR3GetChild:
  6354                                 %line 3945+1 /home/se170/VirtualBox-4.3.28/out/linux.amd64/debug/obj/VMMR3LazyImp/VMMR3LazyLoad.asm
  6355 0000285E 488D0596E8FFFF          lea rax, [g_szCFGMR3GetChild wrt rip]
  6356 00002865 4C8D15(F2FFFFFF)        lea r10, [g_pfnCFGMR3GetChild wrt rip]
  6357                                 %line 3953+1 /home/se170/VirtualBox-4.3.28/out/linux.amd64/debug/obj/VMMR3LazyImp/VMMR3LazyLoad.asm
  6358 0000286C E86D180000              call LazyLoadResolver
  6359                                 %line 3957+1 /home/se170/VirtualBox-4.3.28/out/linux.amd64/debug/obj/VMMR3LazyImp/VMMR3LazyLoad.asm
  6360 00002871 E9FBD9FFFF              jmp CFGMR3GetChild
  6361                                 
  6362                                 ___LazyLoad___CFGMR3InsertNode:
  6363                                 %line 3961+1 /home/se170/VirtualBox-4.3.28/out/linux.amd64/debug/obj/VMMR3LazyImp/VMMR3LazyLoad.asm
  6364 00002876 488D058DE8FFFF          lea rax, [g_szCFGMR3InsertNode wrt rip]
  6365 0000287D 4C8D15(F2FFFFFF)        lea r10, [g_pfnCFGMR3InsertNode wrt rip]
  6366                                 %line 3969+1 /home/se170/VirtualBox-4.3.28/out/linux.amd64/debug/obj/VMMR3LazyImp/VMMR3LazyLoad.asm
  6367 00002884 E855180000              call LazyLoadResolver
  6368                                 %line 3973+1 /home/se170/VirtualBox-4.3.28/out/linux.amd64/debug/obj/VMMR3LazyImp/VMMR3LazyLoad.asm
  6369 00002889 E9EDD9FFFF              jmp CFGMR3InsertNode
  6370                                 
  6371                                 ___LazyLoad___CFGMR3InsertNodeFV:
  6372                                 %line 3977+1 /home/se170/VirtualBox-4.3.28/out/linux.amd64/debug/obj/VMMR3LazyImp/VMMR3LazyLoad.asm
  6373 0000288E 488D0586E8FFFF          lea rax, [g_szCFGMR3InsertNodeFV wrt rip]
  6374 00002895 4C8D15(F2FFFFFF)        lea r10, [g_pfnCFGMR3InsertNodeFV wrt rip]
  6375                                 %line 3985+1 /home/se170/VirtualBox-4.3.28/out/linux.amd64/debug/obj/VMMR3LazyImp/VMMR3LazyLoad.asm
  6376 0000289C E83D180000              call LazyLoadResolver
  6377                                 %line 3989+1 /home/se170/VirtualBox-4.3.28/out/linux.amd64/debug/obj/VMMR3LazyImp/VMMR3LazyLoad.asm
  6378 000028A1 E9DFD9FFFF              jmp CFGMR3InsertNodeFV
  6379                                 
  6380                                 ___LazyLoad___CFGMR3InsertNodeF:
  6381                                 %line 3993+1 /home/se170/VirtualBox-4.3.28/out/linux.amd64/debug/obj/VMMR3LazyImp/VMMR3LazyLoad.asm
  6382 000028A6 488D0581E8FFFF          lea rax, [g_szCFGMR3InsertNodeF wrt rip]
  6383 000028AD 4C8D15(F2FFFFFF)        lea r10, [g_pfnCFGMR3InsertNodeF wrt rip]
  6384                                 %line 4001+1 /home/se170/VirtualBox-4.3.28/out/linux.amd64/debug/obj/VMMR3LazyImp/VMMR3LazyLoad.asm
  6385 000028B4 E825180000              call LazyLoadResolver
  6386                                 %line 4005+1 /home/se170/VirtualBox-4.3.28/out/linux.amd64/debug/obj/VMMR3LazyImp/VMMR3LazyLoad.asm
  6387 000028B9 E9D1D9FFFF              jmp CFGMR3InsertNodeF
  6388                                 
  6389                                 ___LazyLoad___CFGMR3InsertSubTree:
  6390                                 %line 4009+1 /home/se170/VirtualBox-4.3.28/out/linux.amd64/debug/obj/VMMR3LazyImp/VMMR3LazyLoad.asm
  6391 000028BE 488D057BE8FFFF          lea rax, [g_szCFGMR3InsertSubTree wrt rip]
  6392 000028C5 4C8D15(F2FFFFFF)        lea r10, [g_pfnCFGMR3InsertSubTree wrt rip]
  6393                                 %line 4017+1 /home/se170/VirtualBox-4.3.28/out/linux.amd64/debug/obj/VMMR3LazyImp/VMMR3LazyLoad.asm
  6394 000028CC E80D180000              call LazyLoadResolver
  6395                                 %line 4021+1 /home/se170/VirtualBox-4.3.28/out/linux.amd64/debug/obj/VMMR3LazyImp/VMMR3LazyLoad.asm
  6396 000028D1 E9C3D9FFFF              jmp CFGMR3InsertSubTree
  6397                                 
  6398                                 ___LazyLoad___CFGMR3ValidateConfig:
  6399                                 %line 4025+1 /home/se170/VirtualBox-4.3.28/out/linux.amd64/debug/obj/VMMR3LazyImp/VMMR3LazyLoad.asm
  6400 000028D6 488D0577E8FFFF          lea rax, [g_szCFGMR3ValidateConfig wrt rip]
  6401 000028DD 4C8D15(F2FFFFFF)        lea r10, [g_pfnCFGMR3ValidateConfig wrt rip]
  6402                                 %line 4033+1 /home/se170/VirtualBox-4.3.28/out/linux.amd64/debug/obj/VMMR3LazyImp/VMMR3LazyLoad.asm
  6403 000028E4 E8F5170000              call LazyLoadResolver
  6404                                 %line 4037+1 /home/se170/VirtualBox-4.3.28/out/linux.amd64/debug/obj/VMMR3LazyImp/VMMR3LazyLoad.asm
  6405 000028E9 E9B5D9FFFF              jmp CFGMR3ValidateConfig
  6406                                 
  6407                                 ___LazyLoad___CFGMR3QueryBytes:
  6408                                 %line 4041+1 /home/se170/VirtualBox-4.3.28/out/linux.amd64/debug/obj/VMMR3LazyImp/VMMR3LazyLoad.asm
  6409 000028EE 488D0574E8FFFF          lea rax, [g_szCFGMR3QueryBytes wrt rip]
  6410 000028F5 4C8D15(F2FFFFFF)        lea r10, [g_pfnCFGMR3QueryBytes wrt rip]
  6411                                 %line 4049+1 /home/se170/VirtualBox-4.3.28/out/linux.amd64/debug/obj/VMMR3LazyImp/VMMR3LazyLoad.asm
  6412 000028FC E8DD170000              call LazyLoadResolver
  6413                                 %line 4053+1 /home/se170/VirtualBox-4.3.28/out/linux.amd64/debug/obj/VMMR3LazyImp/VMMR3LazyLoad.asm
  6414 00002901 E9A7D9FFFF              jmp CFGMR3QueryBytes
  6415                                 
  6416                                 ___LazyLoad___CFGMR3QueryStringDef:
  6417                                 %line 4057+1 /home/se170/VirtualBox-4.3.28/out/linux.amd64/debug/obj/VMMR3LazyImp/VMMR3LazyLoad.asm
  6418 00002906 488D056DE8FFFF          lea rax, [g_szCFGMR3QueryStringDef wrt rip]
  6419 0000290D 4C8D15(F2FFFFFF)        lea r10, [g_pfnCFGMR3QueryStringDef wrt rip]
  6420                                 %line 4065+1 /home/se170/VirtualBox-4.3.28/out/linux.amd64/debug/obj/VMMR3LazyImp/VMMR3LazyLoad.asm
  6421 00002914 E8C5170000              call LazyLoadResolver
  6422                                 %line 4069+1 /home/se170/VirtualBox-4.3.28/out/linux.amd64/debug/obj/VMMR3LazyImp/VMMR3LazyLoad.asm
  6423 00002919 E999D9FFFF              jmp CFGMR3QueryStringDef
  6424                                 
  6425                                 ___LazyLoad___CFGMR3QueryString:
  6426                                 %line 4073+1 /home/se170/VirtualBox-4.3.28/out/linux.amd64/debug/obj/VMMR3LazyImp/VMMR3LazyLoad.asm
  6427 0000291E 488D056AE8FFFF          lea rax, [g_szCFGMR3QueryString wrt rip]
  6428 00002925 4C8D15(F2FFFFFF)        lea r10, [g_pfnCFGMR3QueryString wrt rip]
  6429                                 %line 4081+1 /home/se170/VirtualBox-4.3.28/out/linux.amd64/debug/obj/VMMR3LazyImp/VMMR3LazyLoad.asm
  6430 0000292C E8AD170000              call LazyLoadResolver
  6431                                 %line 4085+1 /home/se170/VirtualBox-4.3.28/out/linux.amd64/debug/obj/VMMR3LazyImp/VMMR3LazyLoad.asm
  6432 00002931 E98BD9FFFF              jmp CFGMR3QueryString
  6433                                 
  6434                                 ___LazyLoad___CFGMR3QueryStringAlloc:
  6435                                 %line 4089+1 /home/se170/VirtualBox-4.3.28/out/linux.amd64/debug/obj/VMMR3LazyImp/VMMR3LazyLoad.asm
  6436 00002936 488D0564E8FFFF          lea rax, [g_szCFGMR3QueryStringAlloc wrt rip]
  6437 0000293D 4C8D15(F2FFFFFF)        lea r10, [g_pfnCFGMR3QueryStringAlloc wrt rip]
  6438                                 %line 4097+1 /home/se170/VirtualBox-4.3.28/out/linux.amd64/debug/obj/VMMR3LazyImp/VMMR3LazyLoad.asm
  6439 00002944 E895170000              call LazyLoadResolver
  6440                                 %line 4101+1 /home/se170/VirtualBox-4.3.28/out/linux.amd64/debug/obj/VMMR3LazyImp/VMMR3LazyLoad.asm
  6441 00002949 E97DD9FFFF              jmp CFGMR3QueryStringAlloc
  6442                                 
  6443                                 ___LazyLoad___CFGMR3GetParent:
  6444                                 %line 4105+1 /home/se170/VirtualBox-4.3.28/out/linux.amd64/debug/obj/VMMR3LazyImp/VMMR3LazyLoad.asm
  6445 0000294E 488D0563E8FFFF          lea rax, [g_szCFGMR3GetParent wrt rip]
  6446 00002955 4C8D15(F2FFFFFF)        lea r10, [g_pfnCFGMR3GetParent wrt rip]
  6447                                 %line 4113+1 /home/se170/VirtualBox-4.3.28/out/linux.amd64/debug/obj/VMMR3LazyImp/VMMR3LazyLoad.asm
  6448 0000295C E87D170000              call LazyLoadResolver
  6449                                 %line 4117+1 /home/se170/VirtualBox-4.3.28/out/linux.amd64/debug/obj/VMMR3LazyImp/VMMR3LazyLoad.asm
  6450 00002961 E96FD9FFFF              jmp CFGMR3GetParent
  6451                                 
  6452                                 ___LazyLoad___CFGMR3GetRootU:
  6453                                 %line 4121+1 /home/se170/VirtualBox-4.3.28/out/linux.amd64/debug/obj/VMMR3LazyImp/VMMR3LazyLoad.asm
  6454 00002966 488D055BE8FFFF          lea rax, [g_szCFGMR3GetRootU wrt rip]
  6455 0000296D 4C8D15(F2FFFFFF)        lea r10, [g_pfnCFGMR3GetRootU wrt rip]
  6456                                 %line 4129+1 /home/se170/VirtualBox-4.3.28/out/linux.amd64/debug/obj/VMMR3LazyImp/VMMR3LazyLoad.asm
  6457 00002974 E865170000              call LazyLoadResolver
  6458                                 %line 4133+1 /home/se170/VirtualBox-4.3.28/out/linux.amd64/debug/obj/VMMR3LazyImp/VMMR3LazyLoad.asm
  6459 00002979 E961D9FFFF              jmp CFGMR3GetRootU
  6460                                 
  6461                                 ___LazyLoad___CSAMR3IsEnabled:
  6462                                 %line 4137+1 /home/se170/VirtualBox-4.3.28/out/linux.amd64/debug/obj/VMMR3LazyImp/VMMR3LazyLoad.asm
  6463 0000297E 488D0552E8FFFF          lea rax, [g_szCSAMR3IsEnabled wrt rip]
  6464 00002985 4C8D15(F2FFFFFF)        lea r10, [g_pfnCSAMR3IsEnabled wrt rip]
  6465                                 %line 4145+1 /home/se170/VirtualBox-4.3.28/out/linux.amd64/debug/obj/VMMR3LazyImp/VMMR3LazyLoad.asm
  6466 0000298C E84D170000              call LazyLoadResolver
  6467                                 %line 4149+1 /home/se170/VirtualBox-4.3.28/out/linux.amd64/debug/obj/VMMR3LazyImp/VMMR3LazyLoad.asm
  6468 00002991 E953D9FFFF              jmp CSAMR3IsEnabled
  6469                                 
  6470                                 ___LazyLoad___CSAMR3SetScanningEnabled:
  6471                                 %line 4153+1 /home/se170/VirtualBox-4.3.28/out/linux.amd64/debug/obj/VMMR3LazyImp/VMMR3LazyLoad.asm
  6472 00002996 488D054AE8FFFF          lea rax, [g_szCSAMR3SetScanningEnabled wrt rip]
  6473 0000299D 4C8D15(F2FFFFFF)        lea r10, [g_pfnCSAMR3SetScanningEnabled wrt rip]
  6474                                 %line 4161+1 /home/se170/VirtualBox-4.3.28/out/linux.amd64/debug/obj/VMMR3LazyImp/VMMR3LazyLoad.asm
  6475 000029A4 E835170000              call LazyLoadResolver
  6476                                 %line 4165+1 /home/se170/VirtualBox-4.3.28/out/linux.amd64/debug/obj/VMMR3LazyImp/VMMR3LazyLoad.asm
  6477 000029A9 E945D9FFFF              jmp CSAMR3SetScanningEnabled
  6478                                 
  6479                                 ___LazyLoad___DBGCCreate:
  6480                                 %line 4169+1 /home/se170/VirtualBox-4.3.28/out/linux.amd64/debug/obj/VMMR3LazyImp/VMMR3LazyLoad.asm
  6481 000029AE 488D054BE8FFFF          lea rax, [g_szDBGCCreate wrt rip]
  6482 000029B5 4C8D15(F2FFFFFF)        lea r10, [g_pfnDBGCCreate wrt rip]
  6483                                 %line 4177+1 /home/se170/VirtualBox-4.3.28/out/linux.amd64/debug/obj/VMMR3LazyImp/VMMR3LazyLoad.asm
  6484 000029BC E81D170000              call LazyLoadResolver
  6485                                 %line 4181+1 /home/se170/VirtualBox-4.3.28/out/linux.amd64/debug/obj/VMMR3LazyImp/VMMR3LazyLoad.asm
  6486 000029C1 E937D9FFFF              jmp DBGCCreate
  6487                                 
  6488                                 ___LazyLoad___DBGFR3CoreWrite:
  6489                                 %line 4185+1 /home/se170/VirtualBox-4.3.28/out/linux.amd64/debug/obj/VMMR3LazyImp/VMMR3LazyLoad.asm
  6490 000029C6 488D053EE8FFFF          lea rax, [g_szDBGFR3CoreWrite wrt rip]
  6491 000029CD 4C8D15(F2FFFFFF)        lea r10, [g_pfnDBGFR3CoreWrite wrt rip]
  6492                                 %line 4193+1 /home/se170/VirtualBox-4.3.28/out/linux.amd64/debug/obj/VMMR3LazyImp/VMMR3LazyLoad.asm
  6493 000029D4 E805170000              call LazyLoadResolver
  6494                                 %line 4197+1 /home/se170/VirtualBox-4.3.28/out/linux.amd64/debug/obj/VMMR3LazyImp/VMMR3LazyLoad.asm
  6495 000029D9 E929D9FFFF              jmp DBGFR3CoreWrite
  6496                                 
  6497                                 ___LazyLoad___DBGFR3Info:
  6498                                 %line 4201+1 /home/se170/VirtualBox-4.3.28/out/linux.amd64/debug/obj/VMMR3LazyImp/VMMR3LazyLoad.asm
  6499 000029DE 488D0536E8FFFF          lea rax, [g_szDBGFR3Info wrt rip]
  6500 000029E5 4C8D15(F2FFFFFF)        lea r10, [g_pfnDBGFR3Info wrt rip]
  6501                                 %line 4209+1 /home/se170/VirtualBox-4.3.28/out/linux.amd64/debug/obj/VMMR3LazyImp/VMMR3LazyLoad.asm
  6502 000029EC E8ED160000              call LazyLoadResolver
  6503                                 %line 4213+1 /home/se170/VirtualBox-4.3.28/out/linux.amd64/debug/obj/VMMR3LazyImp/VMMR3LazyLoad.asm
  6504 000029F1 E91BD9FFFF              jmp DBGFR3Info
  6505                                 
  6506                                 ___LazyLoad___DBGFR3InfoRegisterExternal:
  6507                                 %line 4217+1 /home/se170/VirtualBox-4.3.28/out/linux.amd64/debug/obj/VMMR3LazyImp/VMMR3LazyLoad.asm
  6508 000029F6 488D0529E8FFFF          lea rax, [g_szDBGFR3InfoRegisterExternal wrt rip]
  6509 000029FD 4C8D15(F2FFFFFF)        lea r10, [g_pfnDBGFR3InfoRegisterExternal wrt rip]
  6510                                 %line 4225+1 /home/se170/VirtualBox-4.3.28/out/linux.amd64/debug/obj/VMMR3LazyImp/VMMR3LazyLoad.asm
  6511 00002A04 E8D5160000              call LazyLoadResolver
  6512                                 %line 4229+1 /home/se170/VirtualBox-4.3.28/out/linux.amd64/debug/obj/VMMR3LazyImp/VMMR3LazyLoad.asm
  6513 00002A09 E90DD9FFFF              jmp DBGFR3InfoRegisterExternal
  6514                                 
  6515                                 ___LazyLoad___DBGFR3InjectNMI:
  6516                                 %line 4233+1 /home/se170/VirtualBox-4.3.28/out/linux.amd64/debug/obj/VMMR3LazyImp/VMMR3LazyLoad.asm
  6517 00002A0E 488D052CE8FFFF          lea rax, [g_szDBGFR3InjectNMI wrt rip]
  6518 00002A15 4C8D15(F2FFFFFF)        lea r10, [g_pfnDBGFR3InjectNMI wrt rip]
  6519                                 %line 4241+1 /home/se170/VirtualBox-4.3.28/out/linux.amd64/debug/obj/VMMR3LazyImp/VMMR3LazyLoad.asm
  6520 00002A1C E8BD160000              call LazyLoadResolver
  6521                                 %line 4245+1 /home/se170/VirtualBox-4.3.28/out/linux.amd64/debug/obj/VMMR3LazyImp/VMMR3LazyLoad.asm
  6522 00002A21 E9FFD8FFFF              jmp DBGFR3InjectNMI
  6523                                 
  6524                                 ___LazyLoad___DBGFR3LogModifyDestinations:
  6525                                 %line 4249+1 /home/se170/VirtualBox-4.3.28/out/linux.amd64/debug/obj/VMMR3LazyImp/VMMR3LazyLoad.asm
  6526 00002A26 488D0524E8FFFF          lea rax, [g_szDBGFR3LogModifyDestinations wrt rip]
  6527 00002A2D 4C8D15(F2FFFFFF)        lea r10, [g_pfnDBGFR3LogModifyDestinations wrt rip]
  6528                                 %line 4257+1 /home/se170/VirtualBox-4.3.28/out/linux.amd64/debug/obj/VMMR3LazyImp/VMMR3LazyLoad.asm
  6529 00002A34 E8A5160000              call LazyLoadResolver
  6530                                 %line 4261+1 /home/se170/VirtualBox-4.3.28/out/linux.amd64/debug/obj/VMMR3LazyImp/VMMR3LazyLoad.asm
  6531 00002A39 E9F1D8FFFF              jmp DBGFR3LogModifyDestinations
  6532                                 
  6533                                 ___LazyLoad___DBGFR3LogModifyFlags:
  6534                                 %line 4265+1 /home/se170/VirtualBox-4.3.28/out/linux.amd64/debug/obj/VMMR3LazyImp/VMMR3LazyLoad.asm
  6535 00002A3E 488D0528E8FFFF          lea rax, [g_szDBGFR3LogModifyFlags wrt rip]
  6536 00002A45 4C8D15(F2FFFFFF)        lea r10, [g_pfnDBGFR3LogModifyFlags wrt rip]
  6537                                 %line 4273+1 /home/se170/VirtualBox-4.3.28/out/linux.amd64/debug/obj/VMMR3LazyImp/VMMR3LazyLoad.asm
  6538 00002A4C E88D160000              call LazyLoadResolver
  6539                                 %line 4277+1 /home/se170/VirtualBox-4.3.28/out/linux.amd64/debug/obj/VMMR3LazyImp/VMMR3LazyLoad.asm
  6540 00002A51 E9E3D8FFFF              jmp DBGFR3LogModifyFlags
  6541                                 
  6542                                 ___LazyLoad___DBGFR3LogModifyGroups:
  6543                                 %line 4281+1 /home/se170/VirtualBox-4.3.28/out/linux.amd64/debug/obj/VMMR3LazyImp/VMMR3LazyLoad.asm
  6544 00002A56 488D0525E8FFFF          lea rax, [g_szDBGFR3LogModifyGroups wrt rip]
  6545 00002A5D 4C8D15(F2FFFFFF)        lea r10, [g_pfnDBGFR3LogModifyGroups wrt rip]
  6546                                 %line 4289+1 /home/se170/VirtualBox-4.3.28/out/linux.amd64/debug/obj/VMMR3LazyImp/VMMR3LazyLoad.asm
  6547 00002A64 E875160000              call LazyLoadResolver
  6548                                 %line 4293+1 /home/se170/VirtualBox-4.3.28/out/linux.amd64/debug/obj/VMMR3LazyImp/VMMR3LazyLoad.asm
  6549 00002A69 E9D5D8FFFF              jmp DBGFR3LogModifyGroups
  6550                                 
  6551                                 ___LazyLoad___DBGFR3OSDetect:
  6552                                 %line 4297+1 /home/se170/VirtualBox-4.3.28/out/linux.amd64/debug/obj/VMMR3LazyImp/VMMR3LazyLoad.asm
  6553 00002A6E 488D0523E8FFFF          lea rax, [g_szDBGFR3OSDetect wrt rip]
  6554 00002A75 4C8D15(F2FFFFFF)        lea r10, [g_pfnDBGFR3OSDetect wrt rip]
  6555                                 %line 4305+1 /home/se170/VirtualBox-4.3.28/out/linux.amd64/debug/obj/VMMR3LazyImp/VMMR3LazyLoad.asm
  6556 00002A7C E85D160000              call LazyLoadResolver
  6557                                 %line 4309+1 /home/se170/VirtualBox-4.3.28/out/linux.amd64/debug/obj/VMMR3LazyImp/VMMR3LazyLoad.asm
  6558 00002A81 E9C7D8FFFF              jmp DBGFR3OSDetect
  6559                                 
  6560                                 ___LazyLoad___DBGFR3OSQueryNameAndVersion:
  6561                                 %line 4313+1 /home/se170/VirtualBox-4.3.28/out/linux.amd64/debug/obj/VMMR3LazyImp/VMMR3LazyLoad.asm
  6562 00002A86 488D051AE8FFFF          lea rax, [g_szDBGFR3OSQueryNameAndVersion wrt rip]
  6563 00002A8D 4C8D15(F2FFFFFF)        lea r10, [g_pfnDBGFR3OSQueryNameAndVersion wrt rip]
  6564                                 %line 4321+1 /home/se170/VirtualBox-4.3.28/out/linux.amd64/debug/obj/VMMR3LazyImp/VMMR3LazyLoad.asm
  6565 00002A94 E845160000              call LazyLoadResolver
  6566                                 %line 4325+1 /home/se170/VirtualBox-4.3.28/out/linux.amd64/debug/obj/VMMR3LazyImp/VMMR3LazyLoad.asm
  6567 00002A99 E9B9D8FFFF              jmp DBGFR3OSQueryNameAndVersion
  6568                                 
  6569                                 ___LazyLoad___DBGFR3RegCpuQueryU32:
  6570                                 %line 4329+1 /home/se170/VirtualBox-4.3.28/out/linux.amd64/debug/obj/VMMR3LazyImp/VMMR3LazyLoad.asm
  6571 00002A9E 488D051EE8FFFF          lea rax, [g_szDBGFR3RegCpuQueryU32 wrt rip]
  6572 00002AA5 4C8D15(F2FFFFFF)        lea r10, [g_pfnDBGFR3RegCpuQueryU32 wrt rip]
  6573                                 %line 4337+1 /home/se170/VirtualBox-4.3.28/out/linux.amd64/debug/obj/VMMR3LazyImp/VMMR3LazyLoad.asm
  6574 00002AAC E82D160000              call LazyLoadResolver
  6575                                 %line 4341+1 /home/se170/VirtualBox-4.3.28/out/linux.amd64/debug/obj/VMMR3LazyImp/VMMR3LazyLoad.asm
  6576 00002AB1 E9ABD8FFFF              jmp DBGFR3RegCpuQueryU32
  6577                                 
  6578                                 ___LazyLoad___DBGFR3RegFormatValue:
  6579                                 %line 4345+1 /home/se170/VirtualBox-4.3.28/out/linux.amd64/debug/obj/VMMR3LazyImp/VMMR3LazyLoad.asm
  6580 00002AB6 488D051BE8FFFF          lea rax, [g_szDBGFR3RegFormatValue wrt rip]
  6581 00002ABD 4C8D15(F2FFFFFF)        lea r10, [g_pfnDBGFR3RegFormatValue wrt rip]
  6582                                 %line 4353+1 /home/se170/VirtualBox-4.3.28/out/linux.amd64/debug/obj/VMMR3LazyImp/VMMR3LazyLoad.asm
  6583 00002AC4 E815160000              call LazyLoadResolver
  6584                                 %line 4357+1 /home/se170/VirtualBox-4.3.28/out/linux.amd64/debug/obj/VMMR3LazyImp/VMMR3LazyLoad.asm
  6585 00002AC9 E99DD8FFFF              jmp DBGFR3RegFormatValue
  6586                                 
  6587                                 ___LazyLoad___DBGFR3RegNmQuery:
  6588                                 %line 4361+1 /home/se170/VirtualBox-4.3.28/out/linux.amd64/debug/obj/VMMR3LazyImp/VMMR3LazyLoad.asm
  6589 00002ACE 488D0518E8FFFF          lea rax, [g_szDBGFR3RegNmQuery wrt rip]
  6590 00002AD5 4C8D15(F2FFFFFF)        lea r10, [g_pfnDBGFR3RegNmQuery wrt rip]
  6591                                 %line 4369+1 /home/se170/VirtualBox-4.3.28/out/linux.amd64/debug/obj/VMMR3LazyImp/VMMR3LazyLoad.asm
  6592 00002ADC E8FD150000              call LazyLoadResolver
  6593                                 %line 4373+1 /home/se170/VirtualBox-4.3.28/out/linux.amd64/debug/obj/VMMR3LazyImp/VMMR3LazyLoad.asm
  6594 00002AE1 E98FD8FFFF              jmp DBGFR3RegNmQuery
  6595                                 
  6596                                 ___LazyLoad___DBGFR3RegNmQueryAll:
  6597                                 %line 4377+1 /home/se170/VirtualBox-4.3.28/out/linux.amd64/debug/obj/VMMR3LazyImp/VMMR3LazyLoad.asm
  6598 00002AE6 488D0511E8FFFF          lea rax, [g_szDBGFR3RegNmQueryAll wrt rip]
  6599 00002AED 4C8D15(F2FFFFFF)        lea r10, [g_pfnDBGFR3RegNmQueryAll wrt rip]
  6600                                 %line 4385+1 /home/se170/VirtualBox-4.3.28/out/linux.amd64/debug/obj/VMMR3LazyImp/VMMR3LazyLoad.asm
  6601 00002AF4 E8E5150000              call LazyLoadResolver
  6602                                 %line 4389+1 /home/se170/VirtualBox-4.3.28/out/linux.amd64/debug/obj/VMMR3LazyImp/VMMR3LazyLoad.asm
  6603 00002AF9 E981D8FFFF              jmp DBGFR3RegNmQueryAll
  6604                                 
  6605                                 ___LazyLoad___DBGFR3RegNmQueryAllCount:
  6606                                 %line 4393+1 /home/se170/VirtualBox-4.3.28/out/linux.amd64/debug/obj/VMMR3LazyImp/VMMR3LazyLoad.asm
  6607 00002AFE 488D050DE8FFFF          lea rax, [g_szDBGFR3RegNmQueryAllCount wrt rip]
  6608 00002B05 4C8D15(F2FFFFFF)        lea r10, [g_pfnDBGFR3RegNmQueryAllCount wrt rip]
  6609                                 %line 4401+1 /home/se170/VirtualBox-4.3.28/out/linux.amd64/debug/obj/VMMR3LazyImp/VMMR3LazyLoad.asm
  6610 00002B0C E8CD150000              call LazyLoadResolver
  6611                                 %line 4405+1 /home/se170/VirtualBox-4.3.28/out/linux.amd64/debug/obj/VMMR3LazyImp/VMMR3LazyLoad.asm
  6612 00002B11 E973D8FFFF              jmp DBGFR3RegNmQueryAllCount
  6613                                 
  6614                                 ___LazyLoad___DBGFR3OSDeregister:
  6615                                 %line 4409+1 /home/se170/VirtualBox-4.3.28/out/linux.amd64/debug/obj/VMMR3LazyImp/VMMR3LazyLoad.asm
  6616 00002B16 488D050EE8FFFF          lea rax, [g_szDBGFR3OSDeregister wrt rip]
  6617 00002B1D 4C8D15(F2FFFFFF)        lea r10, [g_pfnDBGFR3OSDeregister wrt rip]
  6618                                 %line 4417+1 /home/se170/VirtualBox-4.3.28/out/linux.amd64/debug/obj/VMMR3LazyImp/VMMR3LazyLoad.asm
  6619 00002B24 E8B5150000              call LazyLoadResolver
  6620                                 %line 4421+1 /home/se170/VirtualBox-4.3.28/out/linux.amd64/debug/obj/VMMR3LazyImp/VMMR3LazyLoad.asm
  6621 00002B29 E965D8FFFF              jmp DBGFR3OSDeregister
  6622                                 
  6623                                 ___LazyLoad___DBGFR3OSRegister:
  6624                                 %line 4425+1 /home/se170/VirtualBox-4.3.28/out/linux.amd64/debug/obj/VMMR3LazyImp/VMMR3LazyLoad.asm
  6625 00002B2E 488D0509E8FFFF          lea rax, [g_szDBGFR3OSRegister wrt rip]
  6626 00002B35 4C8D15(F2FFFFFF)        lea r10, [g_pfnDBGFR3OSRegister wrt rip]
  6627                                 %line 4433+1 /home/se170/VirtualBox-4.3.28/out/linux.amd64/debug/obj/VMMR3LazyImp/VMMR3LazyLoad.asm
  6628 00002B3C E89D150000              call LazyLoadResolver
  6629                                 %line 4437+1 /home/se170/VirtualBox-4.3.28/out/linux.amd64/debug/obj/VMMR3LazyImp/VMMR3LazyLoad.asm
  6630 00002B41 E957D8FFFF              jmp DBGFR3OSRegister
  6631                                 
  6632                                 ___LazyLoad___DBGFR3MemReadString:
  6633                                 %line 4441+1 /home/se170/VirtualBox-4.3.28/out/linux.amd64/debug/obj/VMMR3LazyImp/VMMR3LazyLoad.asm
  6634 00002B46 488D0502E8FFFF          lea rax, [g_szDBGFR3MemReadString wrt rip]
  6635 00002B4D 4C8D15(F2FFFFFF)        lea r10, [g_pfnDBGFR3MemReadString wrt rip]
  6636                                 %line 4449+1 /home/se170/VirtualBox-4.3.28/out/linux.amd64/debug/obj/VMMR3LazyImp/VMMR3LazyLoad.asm
  6637 00002B54 E885150000              call LazyLoadResolver
  6638                                 %line 4453+1 /home/se170/VirtualBox-4.3.28/out/linux.amd64/debug/obj/VMMR3LazyImp/VMMR3LazyLoad.asm
  6639 00002B59 E949D8FFFF              jmp DBGFR3MemReadString
  6640                                 
  6641                                 ___LazyLoad___DBGFR3MemRead:
  6642                                 %line 4457+1 /home/se170/VirtualBox-4.3.28/out/linux.amd64/debug/obj/VMMR3LazyImp/VMMR3LazyLoad.asm
  6643 00002B5E 488D05FEE7FFFF          lea rax, [g_szDBGFR3MemRead wrt rip]
  6644 00002B65 4C8D15(F2FFFFFF)        lea r10, [g_pfnDBGFR3MemRead wrt rip]
  6645                                 %line 4465+1 /home/se170/VirtualBox-4.3.28/out/linux.amd64/debug/obj/VMMR3LazyImp/VMMR3LazyLoad.asm
  6646 00002B6C E86D150000              call LazyLoadResolver
  6647                                 %line 4469+1 /home/se170/VirtualBox-4.3.28/out/linux.amd64/debug/obj/VMMR3LazyImp/VMMR3LazyLoad.asm
  6648 00002B71 E93BD8FFFF              jmp DBGFR3MemRead
  6649                                 
  6650                                 ___LazyLoad___DBGFR3MemScan:
  6651                                 %line 4473+1 /home/se170/VirtualBox-4.3.28/out/linux.amd64/debug/obj/VMMR3LazyImp/VMMR3LazyLoad.asm
  6652 00002B76 488D05F4E7FFFF          lea rax, [g_szDBGFR3MemScan wrt rip]
  6653 00002B7D 4C8D15(F2FFFFFF)        lea r10, [g_pfnDBGFR3MemScan wrt rip]
  6654                                 %line 4481+1 /home/se170/VirtualBox-4.3.28/out/linux.amd64/debug/obj/VMMR3LazyImp/VMMR3LazyLoad.asm
  6655 00002B84 E855150000              call LazyLoadResolver
  6656                                 %line 4485+1 /home/se170/VirtualBox-4.3.28/out/linux.amd64/debug/obj/VMMR3LazyImp/VMMR3LazyLoad.asm
  6657 00002B89 E92DD8FFFF              jmp DBGFR3MemScan
  6658                                 
  6659                                 ___LazyLoad___DBGFR3AddrFromFlat:
  6660                                 %line 4489+1 /home/se170/VirtualBox-4.3.28/out/linux.amd64/debug/obj/VMMR3LazyImp/VMMR3LazyLoad.asm
  6661 00002B8E 488D05EAE7FFFF          lea rax, [g_szDBGFR3AddrFromFlat wrt rip]
  6662 00002B95 4C8D15(F2FFFFFF)        lea r10, [g_pfnDBGFR3AddrFromFlat wrt rip]
  6663                                 %line 4497+1 /home/se170/VirtualBox-4.3.28/out/linux.amd64/debug/obj/VMMR3LazyImp/VMMR3LazyLoad.asm
  6664 00002B9C E83D150000              call LazyLoadResolver
  6665                                 %line 4501+1 /home/se170/VirtualBox-4.3.28/out/linux.amd64/debug/obj/VMMR3LazyImp/VMMR3LazyLoad.asm
  6666 00002BA1 E91FD8FFFF              jmp DBGFR3AddrFromFlat
  6667                                 
  6668                                 ___LazyLoad___DBGFR3AsSymbolByName:
  6669                                 %line 4505+1 /home/se170/VirtualBox-4.3.28/out/linux.amd64/debug/obj/VMMR3LazyImp/VMMR3LazyLoad.asm
  6670 00002BA6 488D05E5E7FFFF          lea rax, [g_szDBGFR3AsSymbolByName wrt rip]
  6671 00002BAD 4C8D15(F2FFFFFF)        lea r10, [g_pfnDBGFR3AsSymbolByName wrt rip]
  6672                                 %line 4513+1 /home/se170/VirtualBox-4.3.28/out/linux.amd64/debug/obj/VMMR3LazyImp/VMMR3LazyLoad.asm
  6673 00002BB4 E825150000              call LazyLoadResolver
  6674                                 %line 4517+1 /home/se170/VirtualBox-4.3.28/out/linux.amd64/debug/obj/VMMR3LazyImp/VMMR3LazyLoad.asm
  6675 00002BB9 E911D8FFFF              jmp DBGFR3AsSymbolByName
  6676                                 
  6677                                 ___LazyLoad___DBGFR3AsResolveAndRetain:
  6678                                 %line 4521+1 /home/se170/VirtualBox-4.3.28/out/linux.amd64/debug/obj/VMMR3LazyImp/VMMR3LazyLoad.asm
  6679 00002BBE 488D05E2E7FFFF          lea rax, [g_szDBGFR3AsResolveAndRetain wrt rip]
  6680 00002BC5 4C8D15(F2FFFFFF)        lea r10, [g_pfnDBGFR3AsResolveAndRetain wrt rip]
  6681                                 %line 4529+1 /home/se170/VirtualBox-4.3.28/out/linux.amd64/debug/obj/VMMR3LazyImp/VMMR3LazyLoad.asm
  6682 00002BCC E80D150000              call LazyLoadResolver
  6683                                 %line 4533+1 /home/se170/VirtualBox-4.3.28/out/linux.amd64/debug/obj/VMMR3LazyImp/VMMR3LazyLoad.asm
  6684 00002BD1 E903D8FFFF              jmp DBGFR3AsResolveAndRetain
  6685                                 
  6686                                 ___LazyLoad___DBGFR3AsSetAlias:
  6687                                 %line 4537+1 /home/se170/VirtualBox-4.3.28/out/linux.amd64/debug/obj/VMMR3LazyImp/VMMR3LazyLoad.asm
  6688 00002BD6 488D05E3E7FFFF          lea rax, [g_szDBGFR3AsSetAlias wrt rip]
  6689 00002BDD 4C8D15(F2FFFFFF)        lea r10, [g_pfnDBGFR3AsSetAlias wrt rip]
  6690                                 %line 4545+1 /home/se170/VirtualBox-4.3.28/out/linux.amd64/debug/obj/VMMR3LazyImp/VMMR3LazyLoad.asm
  6691 00002BE4 E8F5140000              call LazyLoadResolver
  6692                                 %line 4549+1 /home/se170/VirtualBox-4.3.28/out/linux.amd64/debug/obj/VMMR3LazyImp/VMMR3LazyLoad.asm
  6693 00002BE9 E9F5D7FFFF              jmp DBGFR3AsSetAlias
  6694                                 
  6695                                 ___LazyLoad___DBGFR3AddrAdd:
  6696                                 %line 4553+1 /home/se170/VirtualBox-4.3.28/out/linux.amd64/debug/obj/VMMR3LazyImp/VMMR3LazyLoad.asm
  6697 00002BEE 488D05DCE7FFFF          lea rax, [g_szDBGFR3AddrAdd wrt rip]
  6698 00002BF5 4C8D15(F2FFFFFF)        lea r10, [g_pfnDBGFR3AddrAdd wrt rip]
  6699                                 %line 4561+1 /home/se170/VirtualBox-4.3.28/out/linux.amd64/debug/obj/VMMR3LazyImp/VMMR3LazyLoad.asm
  6700 00002BFC E8DD140000              call LazyLoadResolver
  6701                                 %line 4565+1 /home/se170/VirtualBox-4.3.28/out/linux.amd64/debug/obj/VMMR3LazyImp/VMMR3LazyLoad.asm
  6702 00002C01 E9E7D7FFFF              jmp DBGFR3AddrAdd
  6703                                 
  6704                                 ___LazyLoad___DBGFR3AddrSub:
  6705                                 %line 4569+1 /home/se170/VirtualBox-4.3.28/out/linux.amd64/debug/obj/VMMR3LazyImp/VMMR3LazyLoad.asm
  6706 00002C06 488D05D2E7FFFF          lea rax, [g_szDBGFR3AddrSub wrt rip]
  6707 00002C0D 4C8D15(F2FFFFFF)        lea r10, [g_pfnDBGFR3AddrSub wrt rip]
  6708                                 %line 4577+1 /home/se170/VirtualBox-4.3.28/out/linux.amd64/debug/obj/VMMR3LazyImp/VMMR3LazyLoad.asm
  6709 00002C14 E8C5140000              call LazyLoadResolver
  6710                                 %line 4581+1 /home/se170/VirtualBox-4.3.28/out/linux.amd64/debug/obj/VMMR3LazyImp/VMMR3LazyLoad.asm
  6711 00002C19 E9D9D7FFFF              jmp DBGFR3AddrSub
  6712                                 
  6713                                 ___LazyLoad___DBGFR3AsGetConfig:
  6714                                 %line 4585+1 /home/se170/VirtualBox-4.3.28/out/linux.amd64/debug/obj/VMMR3LazyImp/VMMR3LazyLoad.asm
  6715 00002C1E 488D05C8E7FFFF          lea rax, [g_szDBGFR3AsGetConfig wrt rip]
  6716 00002C25 4C8D15(F2FFFFFF)        lea r10, [g_pfnDBGFR3AsGetConfig wrt rip]
  6717                                 %line 4593+1 /home/se170/VirtualBox-4.3.28/out/linux.amd64/debug/obj/VMMR3LazyImp/VMMR3LazyLoad.asm
  6718 00002C2C E8AD140000              call LazyLoadResolver
  6719                                 %line 4597+1 /home/se170/VirtualBox-4.3.28/out/linux.amd64/debug/obj/VMMR3LazyImp/VMMR3LazyLoad.asm
  6720 00002C31 E9CBD7FFFF              jmp DBGFR3AsGetConfig
  6721                                 
  6722                                 ___LazyLoad___DBGFR3CpuGetMode:
  6723                                 %line 4601+1 /home/se170/VirtualBox-4.3.28/out/linux.amd64/debug/obj/VMMR3LazyImp/VMMR3LazyLoad.asm
  6724 00002C36 488D05C2E7FFFF          lea rax, [g_szDBGFR3CpuGetMode wrt rip]
  6725 00002C3D 4C8D15(F2FFFFFF)        lea r10, [g_pfnDBGFR3CpuGetMode wrt rip]
  6726                                 %line 4609+1 /home/se170/VirtualBox-4.3.28/out/linux.amd64/debug/obj/VMMR3LazyImp/VMMR3LazyLoad.asm
  6727 00002C44 E895140000              call LazyLoadResolver
  6728                                 %line 4613+1 /home/se170/VirtualBox-4.3.28/out/linux.amd64/debug/obj/VMMR3LazyImp/VMMR3LazyLoad.asm
  6729 00002C49 E9BDD7FFFF              jmp DBGFR3CpuGetMode
  6730                                 
  6731                                 ___LazyLoad___DBGFR3AddrFromSelOff:
  6732                                 %line 4617+1 /home/se170/VirtualBox-4.3.28/out/linux.amd64/debug/obj/VMMR3LazyImp/VMMR3LazyLoad.asm
  6733 00002C4E 488D05BBE7FFFF          lea rax, [g_szDBGFR3AddrFromSelOff wrt rip]
  6734 00002C55 4C8D15(F2FFFFFF)        lea r10, [g_pfnDBGFR3AddrFromSelOff wrt rip]
  6735                                 %line 4625+1 /home/se170/VirtualBox-4.3.28/out/linux.amd64/debug/obj/VMMR3LazyImp/VMMR3LazyLoad.asm
  6736 00002C5C E87D140000              call LazyLoadResolver
  6737                                 %line 4629+1 /home/se170/VirtualBox-4.3.28/out/linux.amd64/debug/obj/VMMR3LazyImp/VMMR3LazyLoad.asm
  6738 00002C61 E9AFD7FFFF              jmp DBGFR3AddrFromSelOff
  6739                                 
  6740                                 ___LazyLoad___EMR3QueryExecutionPolicy:
  6741                                 %line 4633+1 /home/se170/VirtualBox-4.3.28/out/linux.amd64/debug/obj/VMMR3LazyImp/VMMR3LazyLoad.asm
  6742 00002C66 488D05B8E7FFFF          lea rax, [g_szEMR3QueryExecutionPolicy wrt rip]
  6743 00002C6D 4C8D15(F2FFFFFF)        lea r10, [g_pfnEMR3QueryExecutionPolicy wrt rip]
  6744                                 %line 4641+1 /home/se170/VirtualBox-4.3.28/out/linux.amd64/debug/obj/VMMR3LazyImp/VMMR3LazyLoad.asm
  6745 00002C74 E865140000              call LazyLoadResolver
  6746                                 %line 4645+1 /home/se170/VirtualBox-4.3.28/out/linux.amd64/debug/obj/VMMR3LazyImp/VMMR3LazyLoad.asm
  6747 00002C79 E9A1D7FFFF              jmp EMR3QueryExecutionPolicy
  6748                                 
  6749                                 ___LazyLoad___EMR3SetExecutionPolicy:
  6750                                 %line 4649+1 /home/se170/VirtualBox-4.3.28/out/linux.amd64/debug/obj/VMMR3LazyImp/VMMR3LazyLoad.asm
  6751 00002C7E 488D05B9E7FFFF          lea rax, [g_szEMR3SetExecutionPolicy wrt rip]
  6752 00002C85 4C8D15(F2FFFFFF)        lea r10, [g_pfnEMR3SetExecutionPolicy wrt rip]
  6753                                 %line 4657+1 /home/se170/VirtualBox-4.3.28/out/linux.amd64/debug/obj/VMMR3LazyImp/VMMR3LazyLoad.asm
  6754 00002C8C E84D140000              call LazyLoadResolver
  6755                                 %line 4661+1 /home/se170/VirtualBox-4.3.28/out/linux.amd64/debug/obj/VMMR3LazyImp/VMMR3LazyLoad.asm
  6756 00002C91 E993D7FFFF              jmp EMR3SetExecutionPolicy
  6757                                 
  6758                                 ___LazyLoad___FTMR3CancelStandby:
  6759                                 %line 4665+1 /home/se170/VirtualBox-4.3.28/out/linux.amd64/debug/obj/VMMR3LazyImp/VMMR3LazyLoad.asm
  6760 00002C96 488D05B8E7FFFF          lea rax, [g_szFTMR3CancelStandby wrt rip]
  6761 00002C9D 4C8D15(F2FFFFFF)        lea r10, [g_pfnFTMR3CancelStandby wrt rip]
  6762                                 %line 4673+1 /home/se170/VirtualBox-4.3.28/out/linux.amd64/debug/obj/VMMR3LazyImp/VMMR3LazyLoad.asm
  6763 00002CA4 E835140000              call LazyLoadResolver
  6764                                 %line 4677+1 /home/se170/VirtualBox-4.3.28/out/linux.amd64/debug/obj/VMMR3LazyImp/VMMR3LazyLoad.asm
  6765 00002CA9 E985D7FFFF              jmp FTMR3CancelStandby
  6766                                 
  6767                                 ___LazyLoad___FTMR3PowerOn:
  6768                                 %line 4681+1 /home/se170/VirtualBox-4.3.28/out/linux.amd64/debug/obj/VMMR3LazyImp/VMMR3LazyLoad.asm
  6769 00002CAE 488D05B3E7FFFF          lea rax, [g_szFTMR3PowerOn wrt rip]
  6770 00002CB5 4C8D15(F2FFFFFF)        lea r10, [g_pfnFTMR3PowerOn wrt rip]
  6771                                 %line 4689+1 /home/se170/VirtualBox-4.3.28/out/linux.amd64/debug/obj/VMMR3LazyImp/VMMR3LazyLoad.asm
  6772 00002CBC E81D140000              call LazyLoadResolver
  6773                                 %line 4693+1 /home/se170/VirtualBox-4.3.28/out/linux.amd64/debug/obj/VMMR3LazyImp/VMMR3LazyLoad.asm
  6774 00002CC1 E977D7FFFF              jmp FTMR3PowerOn
  6775                                 
  6776                                 ___LazyLoad___HMR3IsEnabled:
  6777                                 %line 4697+1 /home/se170/VirtualBox-4.3.28/out/linux.amd64/debug/obj/VMMR3LazyImp/VMMR3LazyLoad.asm
  6778 00002CC6 488D05A8E7FFFF          lea rax, [g_szHMR3IsEnabled wrt rip]
  6779 00002CCD 4C8D15(F2FFFFFF)        lea r10, [g_pfnHMR3IsEnabled wrt rip]
  6780                                 %line 4705+1 /home/se170/VirtualBox-4.3.28/out/linux.amd64/debug/obj/VMMR3LazyImp/VMMR3LazyLoad.asm
  6781 00002CD4 E805140000              call LazyLoadResolver
  6782                                 %line 4709+1 /home/se170/VirtualBox-4.3.28/out/linux.amd64/debug/obj/VMMR3LazyImp/VMMR3LazyLoad.asm
  6783 00002CD9 E969D7FFFF              jmp HMR3IsEnabled
  6784                                 
  6785                                 ___LazyLoad___HMR3IsNestedPagingActive:
  6786                                 %line 4713+1 /home/se170/VirtualBox-4.3.28/out/linux.amd64/debug/obj/VMMR3LazyImp/VMMR3LazyLoad.asm
  6787 00002CDE 488D059EE7FFFF          lea rax, [g_szHMR3IsNestedPagingActive wrt rip]
  6788 00002CE5 4C8D15(F2FFFFFF)        lea r10, [g_pfnHMR3IsNestedPagingActive wrt rip]
  6789                                 %line 4721+1 /home/se170/VirtualBox-4.3.28/out/linux.amd64/debug/obj/VMMR3LazyImp/VMMR3LazyLoad.asm
  6790 00002CEC E8ED130000              call LazyLoadResolver
  6791                                 %line 4725+1 /home/se170/VirtualBox-4.3.28/out/linux.amd64/debug/obj/VMMR3LazyImp/VMMR3LazyLoad.asm
  6792 00002CF1 E95BD7FFFF              jmp HMR3IsNestedPagingActive
  6793                                 
  6794                                 ___LazyLoad___HMR3IsUXActive:
  6795                                 %line 4729+1 /home/se170/VirtualBox-4.3.28/out/linux.amd64/debug/obj/VMMR3LazyImp/VMMR3LazyLoad.asm
  6796 00002CF6 488D059FE7FFFF          lea rax, [g_szHMR3IsUXActive wrt rip]
  6797 00002CFD 4C8D15(F2FFFFFF)        lea r10, [g_pfnHMR3IsUXActive wrt rip]
  6798                                 %line 4737+1 /home/se170/VirtualBox-4.3.28/out/linux.amd64/debug/obj/VMMR3LazyImp/VMMR3LazyLoad.asm
  6799 00002D04 E8D5130000              call LazyLoadResolver
  6800                                 %line 4741+1 /home/se170/VirtualBox-4.3.28/out/linux.amd64/debug/obj/VMMR3LazyImp/VMMR3LazyLoad.asm
  6801 00002D09 E94DD7FFFF              jmp HMR3IsUXActive
  6802                                 
  6803                                 ___LazyLoad___HMR3IsVpidActive:
  6804                                 %line 4745+1 /home/se170/VirtualBox-4.3.28/out/linux.amd64/debug/obj/VMMR3LazyImp/VMMR3LazyLoad.asm
  6805 00002D0E 488D0596E7FFFF          lea rax, [g_szHMR3IsVpidActive wrt rip]
  6806 00002D15 4C8D15(F2FFFFFF)        lea r10, [g_pfnHMR3IsVpidActive wrt rip]
  6807                                 %line 4753+1 /home/se170/VirtualBox-4.3.28/out/linux.amd64/debug/obj/VMMR3LazyImp/VMMR3LazyLoad.asm
  6808 00002D1C E8BD130000              call LazyLoadResolver
  6809                                 %line 4757+1 /home/se170/VirtualBox-4.3.28/out/linux.amd64/debug/obj/VMMR3LazyImp/VMMR3LazyLoad.asm
  6810 00002D21 E93FD7FFFF              jmp HMR3IsVpidActive
  6811                                 
  6812                                 ___LazyLoad___MMR3HeapFree:
  6813                                 %line 4761+1 /home/se170/VirtualBox-4.3.28/out/linux.amd64/debug/obj/VMMR3LazyImp/VMMR3LazyLoad.asm
  6814 00002D26 488D058FE7FFFF          lea rax, [g_szMMR3HeapFree wrt rip]
  6815 00002D2D 4C8D15(F2FFFFFF)        lea r10, [g_pfnMMR3HeapFree wrt rip]
  6816                                 %line 4769+1 /home/se170/VirtualBox-4.3.28/out/linux.amd64/debug/obj/VMMR3LazyImp/VMMR3LazyLoad.asm
  6817 00002D34 E8A5130000              call LazyLoadResolver
  6818                                 %line 4773+1 /home/se170/VirtualBox-4.3.28/out/linux.amd64/debug/obj/VMMR3LazyImp/VMMR3LazyLoad.asm
  6819 00002D39 E931D7FFFF              jmp MMR3HeapFree
  6820                                 
  6821                                 ___LazyLoad___MMR3HeapRealloc:
  6822                                 %line 4777+1 /home/se170/VirtualBox-4.3.28/out/linux.amd64/debug/obj/VMMR3LazyImp/VMMR3LazyLoad.asm
  6823 00002D3E 488D0584E7FFFF          lea rax, [g_szMMR3HeapRealloc wrt rip]
  6824 00002D45 4C8D15(F2FFFFFF)        lea r10, [g_pfnMMR3HeapRealloc wrt rip]
  6825                                 %line 4785+1 /home/se170/VirtualBox-4.3.28/out/linux.amd64/debug/obj/VMMR3LazyImp/VMMR3LazyLoad.asm
  6826 00002D4C E88D130000              call LazyLoadResolver
  6827                                 %line 4789+1 /home/se170/VirtualBox-4.3.28/out/linux.amd64/debug/obj/VMMR3LazyImp/VMMR3LazyLoad.asm
  6828 00002D51 E923D7FFFF              jmp MMR3HeapRealloc
  6829                                 
  6830                                 ___LazyLoad___PATMR3AllowPatching:
  6831                                 %line 4793+1 /home/se170/VirtualBox-4.3.28/out/linux.amd64/debug/obj/VMMR3LazyImp/VMMR3LazyLoad.asm
  6832 00002D56 488D057CE7FFFF          lea rax, [g_szPATMR3AllowPatching wrt rip]
  6833 00002D5D 4C8D15(F2FFFFFF)        lea r10, [g_pfnPATMR3AllowPatching wrt rip]
  6834                                 %line 4801+1 /home/se170/VirtualBox-4.3.28/out/linux.amd64/debug/obj/VMMR3LazyImp/VMMR3LazyLoad.asm
  6835 00002D64 E875130000              call LazyLoadResolver
  6836                                 %line 4805+1 /home/se170/VirtualBox-4.3.28/out/linux.amd64/debug/obj/VMMR3LazyImp/VMMR3LazyLoad.asm
  6837 00002D69 E915D7FFFF              jmp PATMR3AllowPatching
  6838                                 
  6839                                 ___LazyLoad___PATMR3IsEnabled:
  6840                                 %line 4809+1 /home/se170/VirtualBox-4.3.28/out/linux.amd64/debug/obj/VMMR3LazyImp/VMMR3LazyLoad.asm
  6841 00002D6E 488D0578E7FFFF          lea rax, [g_szPATMR3IsEnabled wrt rip]
  6842 00002D75 4C8D15(F2FFFFFF)        lea r10, [g_pfnPATMR3IsEnabled wrt rip]
  6843                                 %line 4817+1 /home/se170/VirtualBox-4.3.28/out/linux.amd64/debug/obj/VMMR3LazyImp/VMMR3LazyLoad.asm
  6844 00002D7C E85D130000              call LazyLoadResolver
  6845                                 %line 4821+1 /home/se170/VirtualBox-4.3.28/out/linux.amd64/debug/obj/VMMR3LazyImp/VMMR3LazyLoad.asm
  6846 00002D81 E907D7FFFF              jmp PATMR3IsEnabled
  6847                                 
  6848                                 ___LazyLoad___PDMR3AsyncCompletionBwMgrSetMaxForFile:
  6849                                 %line 4825+1 /home/se170/VirtualBox-4.3.28/out/linux.amd64/debug/obj/VMMR3LazyImp/VMMR3LazyLoad.asm
  6850 00002D86 488D0570E7FFFF          lea rax, [g_szPDMR3AsyncCompletionBwMgrSetMaxForFile wrt rip]
  6851 00002D8D 4C8D15(F2FFFFFF)        lea r10, [g_pfnPDMR3AsyncCompletionBwMgrSetMaxForFile wrt rip]
  6852                                 %line 4833+1 /home/se170/VirtualBox-4.3.28/out/linux.amd64/debug/obj/VMMR3LazyImp/VMMR3LazyLoad.asm
  6853 00002D94 E845130000              call LazyLoadResolver
  6854                                 %line 4837+1 /home/se170/VirtualBox-4.3.28/out/linux.amd64/debug/obj/VMMR3LazyImp/VMMR3LazyLoad.asm
  6855 00002D99 E9F9D6FFFF              jmp PDMR3AsyncCompletionBwMgrSetMaxForFile
  6856                                 
  6857                                 ___LazyLoad___PDMR3DeviceAttach:
  6858                                 %line 4841+1 /home/se170/VirtualBox-4.3.28/out/linux.amd64/debug/obj/VMMR3LazyImp/VMMR3LazyLoad.asm
  6859 00002D9E 488D057FE7FFFF          lea rax, [g_szPDMR3DeviceAttach wrt rip]
  6860 00002DA5 4C8D15(F2FFFFFF)        lea r10, [g_pfnPDMR3DeviceAttach wrt rip]
  6861                                 %line 4849+1 /home/se170/VirtualBox-4.3.28/out/linux.amd64/debug/obj/VMMR3LazyImp/VMMR3LazyLoad.asm
  6862 00002DAC E82D130000              call LazyLoadResolver
  6863                                 %line 4853+1 /home/se170/VirtualBox-4.3.28/out/linux.amd64/debug/obj/VMMR3LazyImp/VMMR3LazyLoad.asm
  6864 00002DB1 E9EBD6FFFF              jmp PDMR3DeviceAttach
  6865                                 
  6866                                 ___LazyLoad___PDMR3DeviceDetach:
  6867                                 %line 4857+1 /home/se170/VirtualBox-4.3.28/out/linux.amd64/debug/obj/VMMR3LazyImp/VMMR3LazyLoad.asm
  6868 00002DB6 488D0579E7FFFF          lea rax, [g_szPDMR3DeviceDetach wrt rip]
  6869 00002DBD 4C8D15(F2FFFFFF)        lea r10, [g_pfnPDMR3DeviceDetach wrt rip]
  6870                                 %line 4865+1 /home/se170/VirtualBox-4.3.28/out/linux.amd64/debug/obj/VMMR3LazyImp/VMMR3LazyLoad.asm
  6871 00002DC4 E815130000              call LazyLoadResolver
  6872                                 %line 4869+1 /home/se170/VirtualBox-4.3.28/out/linux.amd64/debug/obj/VMMR3LazyImp/VMMR3LazyLoad.asm
  6873 00002DC9 E9DDD6FFFF              jmp PDMR3DeviceDetach
  6874                                 
  6875                                 ___LazyLoad___PDMR3DriverAttach:
  6876                                 %line 4873+1 /home/se170/VirtualBox-4.3.28/out/linux.amd64/debug/obj/VMMR3LazyImp/VMMR3LazyLoad.asm
  6877 00002DCE 488D0573E7FFFF          lea rax, [g_szPDMR3DriverAttach wrt rip]
  6878 00002DD5 4C8D15(F2FFFFFF)        lea r10, [g_pfnPDMR3DriverAttach wrt rip]
  6879                                 %line 4881+1 /home/se170/VirtualBox-4.3.28/out/linux.amd64/debug/obj/VMMR3LazyImp/VMMR3LazyLoad.asm
  6880 00002DDC E8FD120000              call LazyLoadResolver
  6881                                 %line 4885+1 /home/se170/VirtualBox-4.3.28/out/linux.amd64/debug/obj/VMMR3LazyImp/VMMR3LazyLoad.asm
  6882 00002DE1 E9CFD6FFFF              jmp PDMR3DriverAttach
  6883                                 
  6884                                 ___LazyLoad___PDMR3NsBwGroupSetLimit:
  6885                                 %line 4889+1 /home/se170/VirtualBox-4.3.28/out/linux.amd64/debug/obj/VMMR3LazyImp/VMMR3LazyLoad.asm
  6886 00002DE6 488D056DE7FFFF          lea rax, [g_szPDMR3NsBwGroupSetLimit wrt rip]
  6887 00002DED 4C8D15(F2FFFFFF)        lea r10, [g_pfnPDMR3NsBwGroupSetLimit wrt rip]
  6888                                 %line 4897+1 /home/se170/VirtualBox-4.3.28/out/linux.amd64/debug/obj/VMMR3LazyImp/VMMR3LazyLoad.asm
  6889 00002DF4 E8E5120000              call LazyLoadResolver
  6890                                 %line 4901+1 /home/se170/VirtualBox-4.3.28/out/linux.amd64/debug/obj/VMMR3LazyImp/VMMR3LazyLoad.asm
  6891 00002DF9 E9C1D6FFFF              jmp PDMR3NsBwGroupSetLimit
  6892                                 
  6893                                 ___LazyLoad___PDMR3QueryDeviceLun:
  6894                                 %line 4905+1 /home/se170/VirtualBox-4.3.28/out/linux.amd64/debug/obj/VMMR3LazyImp/VMMR3LazyLoad.asm
  6895 00002DFE 488D056CE7FFFF          lea rax, [g_szPDMR3QueryDeviceLun wrt rip]
  6896 00002E05 4C8D15(F2FFFFFF)        lea r10, [g_pfnPDMR3QueryDeviceLun wrt rip]
  6897                                 %line 4913+1 /home/se170/VirtualBox-4.3.28/out/linux.amd64/debug/obj/VMMR3LazyImp/VMMR3LazyLoad.asm
  6898 00002E0C E8CD120000              call LazyLoadResolver
  6899                                 %line 4917+1 /home/se170/VirtualBox-4.3.28/out/linux.amd64/debug/obj/VMMR3LazyImp/VMMR3LazyLoad.asm
  6900 00002E11 E9B3D6FFFF              jmp PDMR3QueryDeviceLun
  6901                                 
  6902                                 ___LazyLoad___PDMR3QueryDriverOnLun:
  6903                                 %line 4921+1 /home/se170/VirtualBox-4.3.28/out/linux.amd64/debug/obj/VMMR3LazyImp/VMMR3LazyLoad.asm
  6904 00002E16 488D0568E7FFFF          lea rax, [g_szPDMR3QueryDriverOnLun wrt rip]
  6905 00002E1D 4C8D15(F2FFFFFF)        lea r10, [g_pfnPDMR3QueryDriverOnLun wrt rip]
  6906                                 %line 4929+1 /home/se170/VirtualBox-4.3.28/out/linux.amd64/debug/obj/VMMR3LazyImp/VMMR3LazyLoad.asm
  6907 00002E24 E8B5120000              call LazyLoadResolver
  6908                                 %line 4933+1 /home/se170/VirtualBox-4.3.28/out/linux.amd64/debug/obj/VMMR3LazyImp/VMMR3LazyLoad.asm
  6909 00002E29 E9A5D6FFFF              jmp PDMR3QueryDriverOnLun
  6910                                 
  6911                                 ___LazyLoad___PDMR3QueryLun:
  6912                                 %line 4937+1 /home/se170/VirtualBox-4.3.28/out/linux.amd64/debug/obj/VMMR3LazyImp/VMMR3LazyLoad.asm
  6913 00002E2E 488D0566E7FFFF          lea rax, [g_szPDMR3QueryLun wrt rip]
  6914 00002E35 4C8D15(F2FFFFFF)        lea r10, [g_pfnPDMR3QueryLun wrt rip]
  6915                                 %line 4945+1 /home/se170/VirtualBox-4.3.28/out/linux.amd64/debug/obj/VMMR3LazyImp/VMMR3LazyLoad.asm
  6916 00002E3C E89D120000              call LazyLoadResolver
  6917                                 %line 4949+1 /home/se170/VirtualBox-4.3.28/out/linux.amd64/debug/obj/VMMR3LazyImp/VMMR3LazyLoad.asm
  6918 00002E41 E997D6FFFF              jmp PDMR3QueryLun
  6919                                 
  6920                                 ___LazyLoad___PDMCritSectEnter:
  6921                                 %line 4953+1 /home/se170/VirtualBox-4.3.28/out/linux.amd64/debug/obj/VMMR3LazyImp/VMMR3LazyLoad.asm
  6922 00002E46 488D055CE7FFFF          lea rax, [g_szPDMCritSectEnter wrt rip]
  6923 00002E4D 4C8D15(F2FFFFFF)        lea r10, [g_pfnPDMCritSectEnter wrt rip]
  6924                                 %line 4961+1 /home/se170/VirtualBox-4.3.28/out/linux.amd64/debug/obj/VMMR3LazyImp/VMMR3LazyLoad.asm
  6925 00002E54 E885120000              call LazyLoadResolver
  6926                                 %line 4965+1 /home/se170/VirtualBox-4.3.28/out/linux.amd64/debug/obj/VMMR3LazyImp/VMMR3LazyLoad.asm
  6927 00002E59 E989D6FFFF              jmp PDMCritSectEnter
  6928                                 
  6929                                 ___LazyLoad___PDMCritSectEnterDebug:
  6930                                 %line 4969+1 /home/se170/VirtualBox-4.3.28/out/linux.amd64/debug/obj/VMMR3LazyImp/VMMR3LazyLoad.asm
  6931 00002E5E 488D0555E7FFFF          lea rax, [g_szPDMCritSectEnterDebug wrt rip]
  6932 00002E65 4C8D15(F2FFFFFF)        lea r10, [g_pfnPDMCritSectEnterDebug wrt rip]
  6933                                 %line 4977+1 /home/se170/VirtualBox-4.3.28/out/linux.amd64/debug/obj/VMMR3LazyImp/VMMR3LazyLoad.asm
  6934 00002E6C E86D120000              call LazyLoadResolver
  6935                                 %line 4981+1 /home/se170/VirtualBox-4.3.28/out/linux.amd64/debug/obj/VMMR3LazyImp/VMMR3LazyLoad.asm
  6936 00002E71 E97BD6FFFF              jmp PDMCritSectEnterDebug
  6937                                 
  6938                                 ___LazyLoad___PDMCritSectTryEnter:
  6939                                 %line 4985+1 /home/se170/VirtualBox-4.3.28/out/linux.amd64/debug/obj/VMMR3LazyImp/VMMR3LazyLoad.asm
  6940 00002E76 488D0553E7FFFF          lea rax, [g_szPDMCritSectTryEnter wrt rip]
  6941 00002E7D 4C8D15(F2FFFFFF)        lea r10, [g_pfnPDMCritSectTryEnter wrt rip]
  6942                                 %line 4993+1 /home/se170/VirtualBox-4.3.28/out/linux.amd64/debug/obj/VMMR3LazyImp/VMMR3LazyLoad.asm
  6943 00002E84 E855120000              call LazyLoadResolver
  6944                                 %line 4997+1 /home/se170/VirtualBox-4.3.28/out/linux.amd64/debug/obj/VMMR3LazyImp/VMMR3LazyLoad.asm
  6945 00002E89 E96DD6FFFF              jmp PDMCritSectTryEnter
  6946                                 
  6947                                 ___LazyLoad___PDMCritSectTryEnterDebug:
  6948                                 %line 5001+1 /home/se170/VirtualBox-4.3.28/out/linux.amd64/debug/obj/VMMR3LazyImp/VMMR3LazyLoad.asm
  6949 00002E8E 488D054FE7FFFF          lea rax, [g_szPDMCritSectTryEnterDebug wrt rip]
  6950 00002E95 4C8D15(F2FFFFFF)        lea r10, [g_pfnPDMCritSectTryEnterDebug wrt rip]
  6951                                 %line 5009+1 /home/se170/VirtualBox-4.3.28/out/linux.amd64/debug/obj/VMMR3LazyImp/VMMR3LazyLoad.asm
  6952 00002E9C E83D120000              call LazyLoadResolver
  6953                                 %line 5013+1 /home/se170/VirtualBox-4.3.28/out/linux.amd64/debug/obj/VMMR3LazyImp/VMMR3LazyLoad.asm
  6954 00002EA1 E95FD6FFFF              jmp PDMCritSectTryEnterDebug
  6955                                 
  6956                                 ___LazyLoad___PDMR3CritSectEnterEx:
  6957                                 %line 5017+1 /home/se170/VirtualBox-4.3.28/out/linux.amd64/debug/obj/VMMR3LazyImp/VMMR3LazyLoad.asm
  6958 00002EA6 488D0550E7FFFF          lea rax, [g_szPDMR3CritSectEnterEx wrt rip]
  6959 00002EAD 4C8D15(F2FFFFFF)        lea r10, [g_pfnPDMR3CritSectEnterEx wrt rip]
  6960                                 %line 5025+1 /home/se170/VirtualBox-4.3.28/out/linux.amd64/debug/obj/VMMR3LazyImp/VMMR3LazyLoad.asm
  6961 00002EB4 E825120000              call LazyLoadResolver
  6962                                 %line 5029+1 /home/se170/VirtualBox-4.3.28/out/linux.amd64/debug/obj/VMMR3LazyImp/VMMR3LazyLoad.asm
  6963 00002EB9 E951D6FFFF              jmp PDMR3CritSectEnterEx
  6964                                 
  6965                                 ___LazyLoad___PDMCritSectLeave:
  6966                                 %line 5033+1 /home/se170/VirtualBox-4.3.28/out/linux.amd64/debug/obj/VMMR3LazyImp/VMMR3LazyLoad.asm
  6967 00002EBE 488D054DE7FFFF          lea rax, [g_szPDMCritSectLeave wrt rip]
  6968 00002EC5 4C8D15(F2FFFFFF)        lea r10, [g_pfnPDMCritSectLeave wrt rip]
  6969                                 %line 5041+1 /home/se170/VirtualBox-4.3.28/out/linux.amd64/debug/obj/VMMR3LazyImp/VMMR3LazyLoad.asm
  6970 00002ECC E80D120000              call LazyLoadResolver
  6971                                 %line 5045+1 /home/se170/VirtualBox-4.3.28/out/linux.amd64/debug/obj/VMMR3LazyImp/VMMR3LazyLoad.asm
  6972 00002ED1 E943D6FFFF              jmp PDMCritSectLeave
  6973                                 
  6974                                 ___LazyLoad___PDMCritSectIsOwner:
  6975                                 %line 5049+1 /home/se170/VirtualBox-4.3.28/out/linux.amd64/debug/obj/VMMR3LazyImp/VMMR3LazyLoad.asm
  6976 00002ED6 488D0546E7FFFF          lea rax, [g_szPDMCritSectIsOwner wrt rip]
  6977 00002EDD 4C8D15(F2FFFFFF)        lea r10, [g_pfnPDMCritSectIsOwner wrt rip]
  6978                                 %line 5057+1 /home/se170/VirtualBox-4.3.28/out/linux.amd64/debug/obj/VMMR3LazyImp/VMMR3LazyLoad.asm
  6979 00002EE4 E8F5110000              call LazyLoadResolver
  6980                                 %line 5061+1 /home/se170/VirtualBox-4.3.28/out/linux.amd64/debug/obj/VMMR3LazyImp/VMMR3LazyLoad.asm
  6981 00002EE9 E935D6FFFF              jmp PDMCritSectIsOwner
  6982                                 
  6983                                 ___LazyLoad___PDMCritSectIsOwnerEx:
  6984                                 %line 5065+1 /home/se170/VirtualBox-4.3.28/out/linux.amd64/debug/obj/VMMR3LazyImp/VMMR3LazyLoad.asm
  6985 00002EEE 488D0541E7FFFF          lea rax, [g_szPDMCritSectIsOwnerEx wrt rip]
  6986 00002EF5 4C8D15(F2FFFFFF)        lea r10, [g_pfnPDMCritSectIsOwnerEx wrt rip]
  6987                                 %line 5073+1 /home/se170/VirtualBox-4.3.28/out/linux.amd64/debug/obj/VMMR3LazyImp/VMMR3LazyLoad.asm
  6988 00002EFC E8DD110000              call LazyLoadResolver
  6989                                 %line 5077+1 /home/se170/VirtualBox-4.3.28/out/linux.amd64/debug/obj/VMMR3LazyImp/VMMR3LazyLoad.asm
  6990 00002F01 E927D6FFFF              jmp PDMCritSectIsOwnerEx
  6991                                 
  6992                                 ___LazyLoad___PDMCritSectIsOwned:
  6993                                 %line 5081+1 /home/se170/VirtualBox-4.3.28/out/linux.amd64/debug/obj/VMMR3LazyImp/VMMR3LazyLoad.asm
  6994 00002F06 488D053EE7FFFF          lea rax, [g_szPDMCritSectIsOwned wrt rip]
  6995 00002F0D 4C8D15(F2FFFFFF)        lea r10, [g_pfnPDMCritSectIsOwned wrt rip]
  6996                                 %line 5089+1 /home/se170/VirtualBox-4.3.28/out/linux.amd64/debug/obj/VMMR3LazyImp/VMMR3LazyLoad.asm
  6997 00002F14 E8C5110000              call LazyLoadResolver
  6998                                 %line 5093+1 /home/se170/VirtualBox-4.3.28/out/linux.amd64/debug/obj/VMMR3LazyImp/VMMR3LazyLoad.asm
  6999 00002F19 E919D6FFFF              jmp PDMCritSectIsOwned
  7000                                 
  7001                                 ___LazyLoad___PDMCritSectIsInitialized:
  7002                                 %line 5097+1 /home/se170/VirtualBox-4.3.28/out/linux.amd64/debug/obj/VMMR3LazyImp/VMMR3LazyLoad.asm
  7003 00002F1E 488D0539E7FFFF          lea rax, [g_szPDMCritSectIsInitialized wrt rip]
  7004 00002F25 4C8D15(F2FFFFFF)        lea r10, [g_pfnPDMCritSectIsInitialized wrt rip]
  7005                                 %line 5105+1 /home/se170/VirtualBox-4.3.28/out/linux.amd64/debug/obj/VMMR3LazyImp/VMMR3LazyLoad.asm
  7006 00002F2C E8AD110000              call LazyLoadResolver
  7007                                 %line 5109+1 /home/se170/VirtualBox-4.3.28/out/linux.amd64/debug/obj/VMMR3LazyImp/VMMR3LazyLoad.asm
  7008 00002F31 E90BD6FFFF              jmp PDMCritSectIsInitialized
  7009                                 
  7010                                 ___LazyLoad___PDMCritSectHasWaiters:
  7011                                 %line 5113+1 /home/se170/VirtualBox-4.3.28/out/linux.amd64/debug/obj/VMMR3LazyImp/VMMR3LazyLoad.asm
  7012 00002F36 488D053AE7FFFF          lea rax, [g_szPDMCritSectHasWaiters wrt rip]
  7013 00002F3D 4C8D15(F2FFFFFF)        lea r10, [g_pfnPDMCritSectHasWaiters wrt rip]
  7014                                 %line 5121+1 /home/se170/VirtualBox-4.3.28/out/linux.amd64/debug/obj/VMMR3LazyImp/VMMR3LazyLoad.asm
  7015 00002F44 E895110000              call LazyLoadResolver
  7016                                 %line 5125+1 /home/se170/VirtualBox-4.3.28/out/linux.amd64/debug/obj/VMMR3LazyImp/VMMR3LazyLoad.asm
  7017 00002F49 E9FDD5FFFF              jmp PDMCritSectHasWaiters
  7018                                 
  7019                                 ___LazyLoad___PDMCritSectGetRecursion:
  7020                                 %line 5129+1 /home/se170/VirtualBox-4.3.28/out/linux.amd64/debug/obj/VMMR3LazyImp/VMMR3LazyLoad.asm
  7021 00002F4E 488D0538E7FFFF          lea rax, [g_szPDMCritSectGetRecursion wrt rip]
  7022 00002F55 4C8D15(F2FFFFFF)        lea r10, [g_pfnPDMCritSectGetRecursion wrt rip]
  7023                                 %line 5137+1 /home/se170/VirtualBox-4.3.28/out/linux.amd64/debug/obj/VMMR3LazyImp/VMMR3LazyLoad.asm
  7024 00002F5C E87D110000              call LazyLoadResolver
  7025                                 %line 5141+1 /home/se170/VirtualBox-4.3.28/out/linux.amd64/debug/obj/VMMR3LazyImp/VMMR3LazyLoad.asm
  7026 00002F61 E9EFD5FFFF              jmp PDMCritSectGetRecursion
  7027                                 
  7028                                 ___LazyLoad___PDMR3CritSectYield:
  7029                                 %line 5145+1 /home/se170/VirtualBox-4.3.28/out/linux.amd64/debug/obj/VMMR3LazyImp/VMMR3LazyLoad.asm
  7030 00002F66 488D0538E7FFFF          lea rax, [g_szPDMR3CritSectYield wrt rip]
  7031 00002F6D 4C8D15(F2FFFFFF)        lea r10, [g_pfnPDMR3CritSectYield wrt rip]
  7032                                 %line 5153+1 /home/se170/VirtualBox-4.3.28/out/linux.amd64/debug/obj/VMMR3LazyImp/VMMR3LazyLoad.asm
  7033 00002F74 E865110000              call LazyLoadResolver
  7034                                 %line 5157+1 /home/se170/VirtualBox-4.3.28/out/linux.amd64/debug/obj/VMMR3LazyImp/VMMR3LazyLoad.asm
  7035 00002F79 E9E1D5FFFF              jmp PDMR3CritSectYield
  7036                                 
  7037                                 ___LazyLoad___PDMR3CritSectName:
  7038                                 %line 5161+1 /home/se170/VirtualBox-4.3.28/out/linux.amd64/debug/obj/VMMR3LazyImp/VMMR3LazyLoad.asm
  7039 00002F7E 488D0533E7FFFF          lea rax, [g_szPDMR3CritSectName wrt rip]
  7040 00002F85 4C8D15(F2FFFFFF)        lea r10, [g_pfnPDMR3CritSectName wrt rip]
  7041                                 %line 5169+1 /home/se170/VirtualBox-4.3.28/out/linux.amd64/debug/obj/VMMR3LazyImp/VMMR3LazyLoad.asm
  7042 00002F8C E84D110000              call LazyLoadResolver
  7043                                 %line 5173+1 /home/se170/VirtualBox-4.3.28/out/linux.amd64/debug/obj/VMMR3LazyImp/VMMR3LazyLoad.asm
  7044 00002F91 E9D3D5FFFF              jmp PDMR3CritSectName
  7045                                 
  7046                                 ___LazyLoad___PDMR3CritSectScheduleExitEvent:
  7047                                 %line 5177+1 /home/se170/VirtualBox-4.3.28/out/linux.amd64/debug/obj/VMMR3LazyImp/VMMR3LazyLoad.asm
  7048 00002F96 488D052DE7FFFF          lea rax, [g_szPDMR3CritSectScheduleExitEvent wrt rip]
  7049 00002F9D 4C8D15(F2FFFFFF)        lea r10, [g_pfnPDMR3CritSectScheduleExitEvent wrt rip]
  7050                                 %line 5185+1 /home/se170/VirtualBox-4.3.28/out/linux.amd64/debug/obj/VMMR3LazyImp/VMMR3LazyLoad.asm
  7051 00002FA4 E835110000              call LazyLoadResolver
  7052                                 %line 5189+1 /home/se170/VirtualBox-4.3.28/out/linux.amd64/debug/obj/VMMR3LazyImp/VMMR3LazyLoad.asm
  7053 00002FA9 E9C5D5FFFF              jmp PDMR3CritSectScheduleExitEvent
  7054                                 
  7055                                 ___LazyLoad___PDMR3CritSectDelete:
  7056                                 %line 5193+1 /home/se170/VirtualBox-4.3.28/out/linux.amd64/debug/obj/VMMR3LazyImp/VMMR3LazyLoad.asm
  7057 00002FAE 488D0534E7FFFF          lea rax, [g_szPDMR3CritSectDelete wrt rip]
  7058 00002FB5 4C8D15(F2FFFFFF)        lea r10, [g_pfnPDMR3CritSectDelete wrt rip]
  7059                                 %line 5201+1 /home/se170/VirtualBox-4.3.28/out/linux.amd64/debug/obj/VMMR3LazyImp/VMMR3LazyLoad.asm
  7060 00002FBC E81D110000              call LazyLoadResolver
  7061                                 %line 5205+1 /home/se170/VirtualBox-4.3.28/out/linux.amd64/debug/obj/VMMR3LazyImp/VMMR3LazyLoad.asm
  7062 00002FC1 E9B7D5FFFF              jmp PDMR3CritSectDelete
  7063                                 
  7064                                 ___LazyLoad___PDMR3QueueDestroy:
  7065                                 %line 5209+1 /home/se170/VirtualBox-4.3.28/out/linux.amd64/debug/obj/VMMR3LazyImp/VMMR3LazyLoad.asm
  7066 00002FC6 488D0530E7FFFF          lea rax, [g_szPDMR3QueueDestroy wrt rip]
  7067 00002FCD 4C8D15(F2FFFFFF)        lea r10, [g_pfnPDMR3QueueDestroy wrt rip]
  7068                                 %line 5217+1 /home/se170/VirtualBox-4.3.28/out/linux.amd64/debug/obj/VMMR3LazyImp/VMMR3LazyLoad.asm
  7069 00002FD4 E805110000              call LazyLoadResolver
  7070                                 %line 5221+1 /home/se170/VirtualBox-4.3.28/out/linux.amd64/debug/obj/VMMR3LazyImp/VMMR3LazyLoad.asm
  7071 00002FD9 E9A9D5FFFF              jmp PDMR3QueueDestroy
  7072                                 
  7073                                 ___LazyLoad___PDMQueueAlloc:
  7074                                 %line 5225+1 /home/se170/VirtualBox-4.3.28/out/linux.amd64/debug/obj/VMMR3LazyImp/VMMR3LazyLoad.asm
  7075 00002FDE 488D052AE7FFFF          lea rax, [g_szPDMQueueAlloc wrt rip]
  7076 00002FE5 4C8D15(F2FFFFFF)        lea r10, [g_pfnPDMQueueAlloc wrt rip]
  7077                                 %line 5233+1 /home/se170/VirtualBox-4.3.28/out/linux.amd64/debug/obj/VMMR3LazyImp/VMMR3LazyLoad.asm
  7078 00002FEC E8ED100000              call LazyLoadResolver
  7079                                 %line 5237+1 /home/se170/VirtualBox-4.3.28/out/linux.amd64/debug/obj/VMMR3LazyImp/VMMR3LazyLoad.asm
  7080 00002FF1 E99BD5FFFF              jmp PDMQueueAlloc
  7081                                 
  7082                                 ___LazyLoad___PDMQueueInsert:
  7083                                 %line 5241+1 /home/se170/VirtualBox-4.3.28/out/linux.amd64/debug/obj/VMMR3LazyImp/VMMR3LazyLoad.asm
  7084 00002FF6 488D0520E7FFFF          lea rax, [g_szPDMQueueInsert wrt rip]
  7085 00002FFD 4C8D15(F2FFFFFF)        lea r10, [g_pfnPDMQueueInsert wrt rip]
  7086                                 %line 5249+1 /home/se170/VirtualBox-4.3.28/out/linux.amd64/debug/obj/VMMR3LazyImp/VMMR3LazyLoad.asm
  7087 00003004 E8D5100000              call LazyLoadResolver
  7088                                 %line 5253+1 /home/se170/VirtualBox-4.3.28/out/linux.amd64/debug/obj/VMMR3LazyImp/VMMR3LazyLoad.asm
  7089 00003009 E98DD5FFFF              jmp PDMQueueInsert
  7090                                 
  7091                                 ___LazyLoad___PDMQueueInsertEx:
  7092                                 %line 5257+1 /home/se170/VirtualBox-4.3.28/out/linux.amd64/debug/obj/VMMR3LazyImp/VMMR3LazyLoad.asm
  7093 0000300E 488D0517E7FFFF          lea rax, [g_szPDMQueueInsertEx wrt rip]
  7094 00003015 4C8D15(F2FFFFFF)        lea r10, [g_pfnPDMQueueInsertEx wrt rip]
  7095                                 %line 5265+1 /home/se170/VirtualBox-4.3.28/out/linux.amd64/debug/obj/VMMR3LazyImp/VMMR3LazyLoad.asm
  7096 0000301C E8BD100000              call LazyLoadResolver
  7097                                 %line 5269+1 /home/se170/VirtualBox-4.3.28/out/linux.amd64/debug/obj/VMMR3LazyImp/VMMR3LazyLoad.asm
  7098 00003021 E97FD5FFFF              jmp PDMQueueInsertEx
  7099                                 
  7100                                 ___LazyLoad___PDMQueueR0Ptr:
  7101                                 %line 5273+1 /home/se170/VirtualBox-4.3.28/out/linux.amd64/debug/obj/VMMR3LazyImp/VMMR3LazyLoad.asm
  7102 00003026 488D0510E7FFFF          lea rax, [g_szPDMQueueR0Ptr wrt rip]
  7103 0000302D 4C8D15(F2FFFFFF)        lea r10, [g_pfnPDMQueueR0Ptr wrt rip]
  7104                                 %line 5281+1 /home/se170/VirtualBox-4.3.28/out/linux.amd64/debug/obj/VMMR3LazyImp/VMMR3LazyLoad.asm
  7105 00003034 E8A5100000              call LazyLoadResolver
  7106                                 %line 5285+1 /home/se170/VirtualBox-4.3.28/out/linux.amd64/debug/obj/VMMR3LazyImp/VMMR3LazyLoad.asm
  7107 00003039 E971D5FFFF              jmp PDMQueueR0Ptr
  7108                                 
  7109                                 ___LazyLoad___PDMQueueRCPtr:
  7110                                 %line 5289+1 /home/se170/VirtualBox-4.3.28/out/linux.amd64/debug/obj/VMMR3LazyImp/VMMR3LazyLoad.asm
  7111 0000303E 488D0506E7FFFF          lea rax, [g_szPDMQueueRCPtr wrt rip]
  7112 00003045 4C8D15(F2FFFFFF)        lea r10, [g_pfnPDMQueueRCPtr wrt rip]
  7113                                 %line 5297+1 /home/se170/VirtualBox-4.3.28/out/linux.amd64/debug/obj/VMMR3LazyImp/VMMR3LazyLoad.asm
  7114 0000304C E88D100000              call LazyLoadResolver
  7115                                 %line 5301+1 /home/se170/VirtualBox-4.3.28/out/linux.amd64/debug/obj/VMMR3LazyImp/VMMR3LazyLoad.asm
  7116 00003051 E963D5FFFF              jmp PDMQueueRCPtr
  7117                                 
  7118                                 ___LazyLoad___PDMR3ThreadDestroy:
  7119                                 %line 5305+1 /home/se170/VirtualBox-4.3.28/out/linux.amd64/debug/obj/VMMR3LazyImp/VMMR3LazyLoad.asm
  7120 00003056 488D05FCE6FFFF          lea rax, [g_szPDMR3ThreadDestroy wrt rip]
  7121 0000305D 4C8D15(F2FFFFFF)        lea r10, [g_pfnPDMR3ThreadDestroy wrt rip]
  7122                                 %line 5313+1 /home/se170/VirtualBox-4.3.28/out/linux.amd64/debug/obj/VMMR3LazyImp/VMMR3LazyLoad.asm
  7123 00003064 E875100000              call LazyLoadResolver
  7124                                 %line 5317+1 /home/se170/VirtualBox-4.3.28/out/linux.amd64/debug/obj/VMMR3LazyImp/VMMR3LazyLoad.asm
  7125 00003069 E955D5FFFF              jmp PDMR3ThreadDestroy
  7126                                 
  7127                                 ___LazyLoad___PDMR3ThreadIAmRunning:
  7128                                 %line 5321+1 /home/se170/VirtualBox-4.3.28/out/linux.amd64/debug/obj/VMMR3LazyImp/VMMR3LazyLoad.asm
  7129 0000306E 488D05F7E6FFFF          lea rax, [g_szPDMR3ThreadIAmRunning wrt rip]
  7130 00003075 4C8D15(F2FFFFFF)        lea r10, [g_pfnPDMR3ThreadIAmRunning wrt rip]
  7131                                 %line 5329+1 /home/se170/VirtualBox-4.3.28/out/linux.amd64/debug/obj/VMMR3LazyImp/VMMR3LazyLoad.asm
  7132 0000307C E85D100000              call LazyLoadResolver
  7133                                 %line 5333+1 /home/se170/VirtualBox-4.3.28/out/linux.amd64/debug/obj/VMMR3LazyImp/VMMR3LazyLoad.asm
  7134 00003081 E947D5FFFF              jmp PDMR3ThreadIAmRunning
  7135                                 
  7136                                 ___LazyLoad___PDMR3ThreadIAmSuspending:
  7137                                 %line 5337+1 /home/se170/VirtualBox-4.3.28/out/linux.amd64/debug/obj/VMMR3LazyImp/VMMR3LazyLoad.asm
  7138 00003086 488D05F5E6FFFF          lea rax, [g_szPDMR3ThreadIAmSuspending wrt rip]
  7139 0000308D 4C8D15(F2FFFFFF)        lea r10, [g_pfnPDMR3ThreadIAmSuspending wrt rip]
  7140                                 %line 5345+1 /home/se170/VirtualBox-4.3.28/out/linux.amd64/debug/obj/VMMR3LazyImp/VMMR3LazyLoad.asm
  7141 00003094 E845100000              call LazyLoadResolver
  7142                                 %line 5349+1 /home/se170/VirtualBox-4.3.28/out/linux.amd64/debug/obj/VMMR3LazyImp/VMMR3LazyLoad.asm
  7143 00003099 E939D5FFFF              jmp PDMR3ThreadIAmSuspending
  7144                                 
  7145                                 ___LazyLoad___PDMR3ThreadResume:
  7146                                 %line 5353+1 /home/se170/VirtualBox-4.3.28/out/linux.amd64/debug/obj/VMMR3LazyImp/VMMR3LazyLoad.asm
  7147 0000309E 488D05F6E6FFFF          lea rax, [g_szPDMR3ThreadResume wrt rip]
  7148 000030A5 4C8D15(F2FFFFFF)        lea r10, [g_pfnPDMR3ThreadResume wrt rip]
  7149                                 %line 5361+1 /home/se170/VirtualBox-4.3.28/out/linux.amd64/debug/obj/VMMR3LazyImp/VMMR3LazyLoad.asm
  7150 000030AC E82D100000              call LazyLoadResolver
  7151                                 %line 5365+1 /home/se170/VirtualBox-4.3.28/out/linux.amd64/debug/obj/VMMR3LazyImp/VMMR3LazyLoad.asm
  7152 000030B1 E92BD5FFFF              jmp PDMR3ThreadResume
  7153                                 
  7154                                 ___LazyLoad___PDMR3ThreadSleep:
  7155                                 %line 5369+1 /home/se170/VirtualBox-4.3.28/out/linux.amd64/debug/obj/VMMR3LazyImp/VMMR3LazyLoad.asm
  7156 000030B6 488D05F0E6FFFF          lea rax, [g_szPDMR3ThreadSleep wrt rip]
  7157 000030BD 4C8D15(F2FFFFFF)        lea r10, [g_pfnPDMR3ThreadSleep wrt rip]
  7158                                 %line 5377+1 /home/se170/VirtualBox-4.3.28/out/linux.amd64/debug/obj/VMMR3LazyImp/VMMR3LazyLoad.asm
  7159 000030C4 E815100000              call LazyLoadResolver
  7160                                 %line 5381+1 /home/se170/VirtualBox-4.3.28/out/linux.amd64/debug/obj/VMMR3LazyImp/VMMR3LazyLoad.asm
  7161 000030C9 E91DD5FFFF              jmp PDMR3ThreadSleep
  7162                                 
  7163                                 ___LazyLoad___PDMR3ThreadSuspend:
  7164                                 %line 5385+1 /home/se170/VirtualBox-4.3.28/out/linux.amd64/debug/obj/VMMR3LazyImp/VMMR3LazyLoad.asm
  7165 000030CE 488D05E9E6FFFF          lea rax, [g_szPDMR3ThreadSuspend wrt rip]
  7166 000030D5 4C8D15(F2FFFFFF)        lea r10, [g_pfnPDMR3ThreadSuspend wrt rip]
  7167                                 %line 5393+1 /home/se170/VirtualBox-4.3.28/out/linux.amd64/debug/obj/VMMR3LazyImp/VMMR3LazyLoad.asm
  7168 000030DC E8FD0F0000              call LazyLoadResolver
  7169                                 %line 5397+1 /home/se170/VirtualBox-4.3.28/out/linux.amd64/debug/obj/VMMR3LazyImp/VMMR3LazyLoad.asm
  7170 000030E1 E90FD5FFFF              jmp PDMR3ThreadSuspend
  7171                                 
  7172                                 ___LazyLoad___PDMR3UsbCreateEmulatedDevice:
  7173                                 %line 5401+1 /home/se170/VirtualBox-4.3.28/out/linux.amd64/debug/obj/VMMR3LazyImp/VMMR3LazyLoad.asm
  7174 000030E6 488D05E4E6FFFF          lea rax, [g_szPDMR3UsbCreateEmulatedDevice wrt rip]
  7175 000030ED 4C8D15(F2FFFFFF)        lea r10, [g_pfnPDMR3UsbCreateEmulatedDevice wrt rip]
  7176                                 %line 5409+1 /home/se170/VirtualBox-4.3.28/out/linux.amd64/debug/obj/VMMR3LazyImp/VMMR3LazyLoad.asm
  7177 000030F4 E8E50F0000              call LazyLoadResolver
  7178                                 %line 5413+1 /home/se170/VirtualBox-4.3.28/out/linux.amd64/debug/obj/VMMR3LazyImp/VMMR3LazyLoad.asm
  7179 000030F9 E901D5FFFF              jmp PDMR3UsbCreateEmulatedDevice
  7180                                 
  7181                                 ___LazyLoad___PDMR3UsbCreateProxyDevice:
  7182                                 %line 5417+1 /home/se170/VirtualBox-4.3.28/out/linux.amd64/debug/obj/VMMR3LazyImp/VMMR3LazyLoad.asm
  7183 000030FE 488D05E9E6FFFF          lea rax, [g_szPDMR3UsbCreateProxyDevice wrt rip]
  7184 00003105 4C8D15(F2FFFFFF)        lea r10, [g_pfnPDMR3UsbCreateProxyDevice wrt rip]
  7185                                 %line 5425+1 /home/se170/VirtualBox-4.3.28/out/linux.amd64/debug/obj/VMMR3LazyImp/VMMR3LazyLoad.asm
  7186 0000310C E8CD0F0000              call LazyLoadResolver
  7187                                 %line 5429+1 /home/se170/VirtualBox-4.3.28/out/linux.amd64/debug/obj/VMMR3LazyImp/VMMR3LazyLoad.asm
  7188 00003111 E9F3D4FFFF              jmp PDMR3UsbCreateProxyDevice
  7189                                 
  7190                                 ___LazyLoad___PDMR3UsbDetachDevice:
  7191                                 %line 5433+1 /home/se170/VirtualBox-4.3.28/out/linux.amd64/debug/obj/VMMR3LazyImp/VMMR3LazyLoad.asm
  7192 00003116 488D05EBE6FFFF          lea rax, [g_szPDMR3UsbDetachDevice wrt rip]
  7193 0000311D 4C8D15(F2FFFFFF)        lea r10, [g_pfnPDMR3UsbDetachDevice wrt rip]
  7194                                 %line 5441+1 /home/se170/VirtualBox-4.3.28/out/linux.amd64/debug/obj/VMMR3LazyImp/VMMR3LazyLoad.asm
  7195 00003124 E8B50F0000              call LazyLoadResolver
  7196                                 %line 5445+1 /home/se170/VirtualBox-4.3.28/out/linux.amd64/debug/obj/VMMR3LazyImp/VMMR3LazyLoad.asm
  7197 00003129 E9E5D4FFFF              jmp PDMR3UsbDetachDevice
  7198                                 
  7199                                 ___LazyLoad___PDMR3UsbHasHub:
  7200                                 %line 5449+1 /home/se170/VirtualBox-4.3.28/out/linux.amd64/debug/obj/VMMR3LazyImp/VMMR3LazyLoad.asm
  7201 0000312E 488D05E8E6FFFF          lea rax, [g_szPDMR3UsbHasHub wrt rip]
  7202 00003135 4C8D15(F2FFFFFF)        lea r10, [g_pfnPDMR3UsbHasHub wrt rip]
  7203                                 %line 5457+1 /home/se170/VirtualBox-4.3.28/out/linux.amd64/debug/obj/VMMR3LazyImp/VMMR3LazyLoad.asm
  7204 0000313C E89D0F0000              call LazyLoadResolver
  7205                                 %line 5461+1 /home/se170/VirtualBox-4.3.28/out/linux.amd64/debug/obj/VMMR3LazyImp/VMMR3LazyLoad.asm
  7206 00003141 E9D7D4FFFF              jmp PDMR3UsbHasHub
  7207                                 
  7208                                 ___LazyLoad___PGMHandlerPhysicalPageTempOff:
  7209                                 %line 5465+1 /home/se170/VirtualBox-4.3.28/out/linux.amd64/debug/obj/VMMR3LazyImp/VMMR3LazyLoad.asm
  7210 00003146 488D05DFE6FFFF          lea rax, [g_szPGMHandlerPhysicalPageTempOff wrt rip]
  7211 0000314D 4C8D15(F2FFFFFF)        lea r10, [g_pfnPGMHandlerPhysicalPageTempOff wrt rip]
  7212                                 %line 5473+1 /home/se170/VirtualBox-4.3.28/out/linux.amd64/debug/obj/VMMR3LazyImp/VMMR3LazyLoad.asm
  7213 00003154 E8850F0000              call LazyLoadResolver
  7214                                 %line 5477+1 /home/se170/VirtualBox-4.3.28/out/linux.amd64/debug/obj/VMMR3LazyImp/VMMR3LazyLoad.asm
  7215 00003159 E9C9D4FFFF              jmp PGMHandlerPhysicalPageTempOff
  7216                                 
  7217                                 ___LazyLoad___PGMPhysReadGCPtr:
  7218                                 %line 5481+1 /home/se170/VirtualBox-4.3.28/out/linux.amd64/debug/obj/VMMR3LazyImp/VMMR3LazyLoad.asm
  7219 0000315E 488D05E5E6FFFF          lea rax, [g_szPGMPhysReadGCPtr wrt rip]
  7220 00003165 4C8D15(F2FFFFFF)        lea r10, [g_pfnPGMPhysReadGCPtr wrt rip]
  7221                                 %line 5489+1 /home/se170/VirtualBox-4.3.28/out/linux.amd64/debug/obj/VMMR3LazyImp/VMMR3LazyLoad.asm
  7222 0000316C E86D0F0000              call LazyLoadResolver
  7223                                 %line 5493+1 /home/se170/VirtualBox-4.3.28/out/linux.amd64/debug/obj/VMMR3LazyImp/VMMR3LazyLoad.asm
  7224 00003171 E9BBD4FFFF              jmp PGMPhysReadGCPtr
  7225                                 
  7226                                 ___LazyLoad___PGMPhysSimpleDirtyWriteGCPtr:
  7227                                 %line 5497+1 /home/se170/VirtualBox-4.3.28/out/linux.amd64/debug/obj/VMMR3LazyImp/VMMR3LazyLoad.asm
  7228 00003176 488D05DEE6FFFF          lea rax, [g_szPGMPhysSimpleDirtyWriteGCPtr wrt rip]
  7229 0000317D 4C8D15(F2FFFFFF)        lea r10, [g_pfnPGMPhysSimpleDirtyWriteGCPtr wrt rip]
  7230                                 %line 5505+1 /home/se170/VirtualBox-4.3.28/out/linux.amd64/debug/obj/VMMR3LazyImp/VMMR3LazyLoad.asm
  7231 00003184 E8550F0000              call LazyLoadResolver
  7232                                 %line 5509+1 /home/se170/VirtualBox-4.3.28/out/linux.amd64/debug/obj/VMMR3LazyImp/VMMR3LazyLoad.asm
  7233 00003189 E9ADD4FFFF              jmp PGMPhysSimpleDirtyWriteGCPtr
  7234                                 
  7235                                 ___LazyLoad___PGMPhysSimpleReadGCPtr:
  7236                                 %line 5513+1 /home/se170/VirtualBox-4.3.28/out/linux.amd64/debug/obj/VMMR3LazyImp/VMMR3LazyLoad.asm
  7237 0000318E 488D05E3E6FFFF          lea rax, [g_szPGMPhysSimpleReadGCPtr wrt rip]
  7238 00003195 4C8D15(F2FFFFFF)        lea r10, [g_pfnPGMPhysSimpleReadGCPtr wrt rip]
  7239                                 %line 5521+1 /home/se170/VirtualBox-4.3.28/out/linux.amd64/debug/obj/VMMR3LazyImp/VMMR3LazyLoad.asm
  7240 0000319C E83D0F0000              call LazyLoadResolver
  7241                                 %line 5525+1 /home/se170/VirtualBox-4.3.28/out/linux.amd64/debug/obj/VMMR3LazyImp/VMMR3LazyLoad.asm
  7242 000031A1 E99FD4FFFF              jmp PGMPhysSimpleReadGCPtr
  7243                                 
  7244                                 ___LazyLoad___PGMPhysSimpleWriteGCPhys:
  7245                                 %line 5529+1 /home/se170/VirtualBox-4.3.28/out/linux.amd64/debug/obj/VMMR3LazyImp/VMMR3LazyLoad.asm
  7246 000031A6 488D05E2E6FFFF          lea rax, [g_szPGMPhysSimpleWriteGCPhys wrt rip]
  7247 000031AD 4C8D15(F2FFFFFF)        lea r10, [g_pfnPGMPhysSimpleWriteGCPhys wrt rip]
  7248                                 %line 5537+1 /home/se170/VirtualBox-4.3.28/out/linux.amd64/debug/obj/VMMR3LazyImp/VMMR3LazyLoad.asm
  7249 000031B4 E8250F0000              call LazyLoadResolver
  7250                                 %line 5541+1 /home/se170/VirtualBox-4.3.28/out/linux.amd64/debug/obj/VMMR3LazyImp/VMMR3LazyLoad.asm
  7251 000031B9 E991D4FFFF              jmp PGMPhysSimpleWriteGCPhys
  7252                                 
  7253                                 ___LazyLoad___PGMPhysSimpleWriteGCPtr:
  7254                                 %line 5545+1 /home/se170/VirtualBox-4.3.28/out/linux.amd64/debug/obj/VMMR3LazyImp/VMMR3LazyLoad.asm
  7255 000031BE 488D05E3E6FFFF          lea rax, [g_szPGMPhysSimpleWriteGCPtr wrt rip]
  7256 000031C5 4C8D15(F2FFFFFF)        lea r10, [g_pfnPGMPhysSimpleWriteGCPtr wrt rip]
  7257                                 %line 5553+1 /home/se170/VirtualBox-4.3.28/out/linux.amd64/debug/obj/VMMR3LazyImp/VMMR3LazyLoad.asm
  7258 000031CC E80D0F0000              call LazyLoadResolver
  7259                                 %line 5557+1 /home/se170/VirtualBox-4.3.28/out/linux.amd64/debug/obj/VMMR3LazyImp/VMMR3LazyLoad.asm
  7260 000031D1 E983D4FFFF              jmp PGMPhysSimpleWriteGCPtr
  7261                                 
  7262                                 ___LazyLoad___PGMPhysWriteGCPtr:
  7263                                 %line 5561+1 /home/se170/VirtualBox-4.3.28/out/linux.amd64/debug/obj/VMMR3LazyImp/VMMR3LazyLoad.asm
  7264 000031D6 488D05E3E6FFFF          lea rax, [g_szPGMPhysWriteGCPtr wrt rip]
  7265 000031DD 4C8D15(F2FFFFFF)        lea r10, [g_pfnPGMPhysWriteGCPtr wrt rip]
  7266                                 %line 5569+1 /home/se170/VirtualBox-4.3.28/out/linux.amd64/debug/obj/VMMR3LazyImp/VMMR3LazyLoad.asm
  7267 000031E4 E8F50E0000              call LazyLoadResolver
  7268                                 %line 5573+1 /home/se170/VirtualBox-4.3.28/out/linux.amd64/debug/obj/VMMR3LazyImp/VMMR3LazyLoad.asm
  7269 000031E9 E975D4FFFF              jmp PGMPhysWriteGCPtr
  7270                                 
  7271                                 ___LazyLoad___PGMShwMakePageWritable:
  7272                                 %line 5577+1 /home/se170/VirtualBox-4.3.28/out/linux.amd64/debug/obj/VMMR3LazyImp/VMMR3LazyLoad.asm
  7273 000031EE 488D05DDE6FFFF          lea rax, [g_szPGMShwMakePageWritable wrt rip]
  7274 000031F5 4C8D15(F2FFFFFF)        lea r10, [g_pfnPGMShwMakePageWritable wrt rip]
  7275                                 %line 5585+1 /home/se170/VirtualBox-4.3.28/out/linux.amd64/debug/obj/VMMR3LazyImp/VMMR3LazyLoad.asm
  7276 000031FC E8DD0E0000              call LazyLoadResolver
  7277                                 %line 5589+1 /home/se170/VirtualBox-4.3.28/out/linux.amd64/debug/obj/VMMR3LazyImp/VMMR3LazyLoad.asm
  7278 00003201 E967D4FFFF              jmp PGMShwMakePageWritable
  7279                                 
  7280                                 ___LazyLoad___PGMR3QueryGlobalMemoryStats:
  7281                                 %line 5593+1 /home/se170/VirtualBox-4.3.28/out/linux.amd64/debug/obj/VMMR3LazyImp/VMMR3LazyLoad.asm
  7282 00003206 488D05DCE6FFFF          lea rax, [g_szPGMR3QueryGlobalMemoryStats wrt rip]
  7283 0000320D 4C8D15(F2FFFFFF)        lea r10, [g_pfnPGMR3QueryGlobalMemoryStats wrt rip]
  7284                                 %line 5601+1 /home/se170/VirtualBox-4.3.28/out/linux.amd64/debug/obj/VMMR3LazyImp/VMMR3LazyLoad.asm
  7285 00003214 E8C50E0000              call LazyLoadResolver
  7286                                 %line 5605+1 /home/se170/VirtualBox-4.3.28/out/linux.amd64/debug/obj/VMMR3LazyImp/VMMR3LazyLoad.asm
  7287 00003219 E959D4FFFF              jmp PGMR3QueryGlobalMemoryStats
  7288                                 
  7289                                 ___LazyLoad___PGMR3QueryMemoryStats:
  7290                                 %line 5609+1 /home/se170/VirtualBox-4.3.28/out/linux.amd64/debug/obj/VMMR3LazyImp/VMMR3LazyLoad.asm
  7291 0000321E 488D05E0E6FFFF          lea rax, [g_szPGMR3QueryMemoryStats wrt rip]
  7292 00003225 4C8D15(F2FFFFFF)        lea r10, [g_pfnPGMR3QueryMemoryStats wrt rip]
  7293                                 %line 5617+1 /home/se170/VirtualBox-4.3.28/out/linux.amd64/debug/obj/VMMR3LazyImp/VMMR3LazyLoad.asm
  7294 0000322C E8AD0E0000              call LazyLoadResolver
  7295                                 %line 5621+1 /home/se170/VirtualBox-4.3.28/out/linux.amd64/debug/obj/VMMR3LazyImp/VMMR3LazyLoad.asm
  7296 00003231 E94BD4FFFF              jmp PGMR3QueryMemoryStats
  7297                                 
  7298                                 ___LazyLoad___SSMR3Close:
  7299                                 %line 5625+1 /home/se170/VirtualBox-4.3.28/out/linux.amd64/debug/obj/VMMR3LazyImp/VMMR3LazyLoad.asm
  7300 00003236 488D05DEE6FFFF          lea rax, [g_szSSMR3Close wrt rip]
  7301 0000323D 4C8D15(F2FFFFFF)        lea r10, [g_pfnSSMR3Close wrt rip]
  7302                                 %line 5633+1 /home/se170/VirtualBox-4.3.28/out/linux.amd64/debug/obj/VMMR3LazyImp/VMMR3LazyLoad.asm
  7303 00003244 E8950E0000              call LazyLoadResolver
  7304                                 %line 5637+1 /home/se170/VirtualBox-4.3.28/out/linux.amd64/debug/obj/VMMR3LazyImp/VMMR3LazyLoad.asm
  7305 00003249 E93DD4FFFF              jmp SSMR3Close
  7306                                 
  7307                                 ___LazyLoad___SSMR3DeregisterExternal:
  7308                                 %line 5641+1 /home/se170/VirtualBox-4.3.28/out/linux.amd64/debug/obj/VMMR3LazyImp/VMMR3LazyLoad.asm
  7309 0000324E 488D05D1E6FFFF          lea rax, [g_szSSMR3DeregisterExternal wrt rip]
  7310 00003255 4C8D15(F2FFFFFF)        lea r10, [g_pfnSSMR3DeregisterExternal wrt rip]
  7311                                 %line 5649+1 /home/se170/VirtualBox-4.3.28/out/linux.amd64/debug/obj/VMMR3LazyImp/VMMR3LazyLoad.asm
  7312 0000325C E87D0E0000              call LazyLoadResolver
  7313                                 %line 5653+1 /home/se170/VirtualBox-4.3.28/out/linux.amd64/debug/obj/VMMR3LazyImp/VMMR3LazyLoad.asm
  7314 00003261 E92FD4FFFF              jmp SSMR3DeregisterExternal
  7315                                 
  7316                                 ___LazyLoad___SSMR3DeregisterInternal:
  7317                                 %line 5657+1 /home/se170/VirtualBox-4.3.28/out/linux.amd64/debug/obj/VMMR3LazyImp/VMMR3LazyLoad.asm
  7318 00003266 488D05D1E6FFFF          lea rax, [g_szSSMR3DeregisterInternal wrt rip]
  7319 0000326D 4C8D15(F2FFFFFF)        lea r10, [g_pfnSSMR3DeregisterInternal wrt rip]
  7320                                 %line 5665+1 /home/se170/VirtualBox-4.3.28/out/linux.amd64/debug/obj/VMMR3LazyImp/VMMR3LazyLoad.asm
  7321 00003274 E8650E0000              call LazyLoadResolver
  7322                                 %line 5669+1 /home/se170/VirtualBox-4.3.28/out/linux.amd64/debug/obj/VMMR3LazyImp/VMMR3LazyLoad.asm
  7323 00003279 E921D4FFFF              jmp SSMR3DeregisterInternal
  7324                                 
  7325                                 ___LazyLoad___SSMR3GetBool:
  7326                                 %line 5673+1 /home/se170/VirtualBox-4.3.28/out/linux.amd64/debug/obj/VMMR3LazyImp/VMMR3LazyLoad.asm
  7327 0000327E 488D05D1E6FFFF          lea rax, [g_szSSMR3GetBool wrt rip]
  7328 00003285 4C8D15(F2FFFFFF)        lea r10, [g_pfnSSMR3GetBool wrt rip]
  7329                                 %line 5681+1 /home/se170/VirtualBox-4.3.28/out/linux.amd64/debug/obj/VMMR3LazyImp/VMMR3LazyLoad.asm
  7330 0000328C E84D0E0000              call LazyLoadResolver
  7331                                 %line 5685+1 /home/se170/VirtualBox-4.3.28/out/linux.amd64/debug/obj/VMMR3LazyImp/VMMR3LazyLoad.asm
  7332 00003291 E913D4FFFF              jmp SSMR3GetBool
  7333                                 
  7334                                 ___LazyLoad___SSMR3GetGCPhys:
  7335                                 %line 5689+1 /home/se170/VirtualBox-4.3.28/out/linux.amd64/debug/obj/VMMR3LazyImp/VMMR3LazyLoad.asm
  7336 00003296 488D05C6E6FFFF          lea rax, [g_szSSMR3GetGCPhys wrt rip]
  7337 0000329D 4C8D15(F2FFFFFF)        lea r10, [g_pfnSSMR3GetGCPhys wrt rip]
  7338                                 %line 5697+1 /home/se170/VirtualBox-4.3.28/out/linux.amd64/debug/obj/VMMR3LazyImp/VMMR3LazyLoad.asm
  7339 000032A4 E8350E0000              call LazyLoadResolver
  7340                                 %line 5701+1 /home/se170/VirtualBox-4.3.28/out/linux.amd64/debug/obj/VMMR3LazyImp/VMMR3LazyLoad.asm
  7341 000032A9 E905D4FFFF              jmp SSMR3GetGCPhys
  7342                                 
  7343                                 ___LazyLoad___SSMR3GetGCPhys32:
  7344                                 %line 5705+1 /home/se170/VirtualBox-4.3.28/out/linux.amd64/debug/obj/VMMR3LazyImp/VMMR3LazyLoad.asm
  7345 000032AE 488D05BDE6FFFF          lea rax, [g_szSSMR3GetGCPhys32 wrt rip]
  7346 000032B5 4C8D15(F2FFFFFF)        lea r10, [g_pfnSSMR3GetGCPhys32 wrt rip]
  7347                                 %line 5713+1 /home/se170/VirtualBox-4.3.28/out/linux.amd64/debug/obj/VMMR3LazyImp/VMMR3LazyLoad.asm
  7348 000032BC E81D0E0000              call LazyLoadResolver
  7349                                 %line 5717+1 /home/se170/VirtualBox-4.3.28/out/linux.amd64/debug/obj/VMMR3LazyImp/VMMR3LazyLoad.asm
  7350 000032C1 E9F7D3FFFF              jmp SSMR3GetGCPhys32
  7351                                 
  7352                                 ___LazyLoad___SSMR3GetGCPhys64:
  7353                                 %line 5721+1 /home/se170/VirtualBox-4.3.28/out/linux.amd64/debug/obj/VMMR3LazyImp/VMMR3LazyLoad.asm
  7354 000032C6 488D05B6E6FFFF          lea rax, [g_szSSMR3GetGCPhys64 wrt rip]
  7355 000032CD 4C8D15(F2FFFFFF)        lea r10, [g_pfnSSMR3GetGCPhys64 wrt rip]
  7356                                 %line 5729+1 /home/se170/VirtualBox-4.3.28/out/linux.amd64/debug/obj/VMMR3LazyImp/VMMR3LazyLoad.asm
  7357 000032D4 E8050E0000              call LazyLoadResolver
  7358                                 %line 5733+1 /home/se170/VirtualBox-4.3.28/out/linux.amd64/debug/obj/VMMR3LazyImp/VMMR3LazyLoad.asm
  7359 000032D9 E9E9D3FFFF              jmp SSMR3GetGCPhys64
  7360                                 
  7361                                 ___LazyLoad___SSMR3GetGCPtr:
  7362                                 %line 5737+1 /home/se170/VirtualBox-4.3.28/out/linux.amd64/debug/obj/VMMR3LazyImp/VMMR3LazyLoad.asm
  7363 000032DE 488D05AFE6FFFF          lea rax, [g_szSSMR3GetGCPtr wrt rip]
  7364 000032E5 4C8D15(F2FFFFFF)        lea r10, [g_pfnSSMR3GetGCPtr wrt rip]
  7365                                 %line 5745+1 /home/se170/VirtualBox-4.3.28/out/linux.amd64/debug/obj/VMMR3LazyImp/VMMR3LazyLoad.asm
  7366 000032EC E8ED0D0000              call LazyLoadResolver
  7367                                 %line 5749+1 /home/se170/VirtualBox-4.3.28/out/linux.amd64/debug/obj/VMMR3LazyImp/VMMR3LazyLoad.asm
  7368 000032F1 E9DBD3FFFF              jmp SSMR3GetGCPtr
  7369                                 
  7370                                 ___LazyLoad___SSMR3GetGCUInt:
  7371                                 %line 5753+1 /home/se170/VirtualBox-4.3.28/out/linux.amd64/debug/obj/VMMR3LazyImp/VMMR3LazyLoad.asm
  7372 000032F6 488D05A5E6FFFF          lea rax, [g_szSSMR3GetGCUInt wrt rip]
  7373 000032FD 4C8D15(F2FFFFFF)        lea r10, [g_pfnSSMR3GetGCUInt wrt rip]
  7374                                 %line 5761+1 /home/se170/VirtualBox-4.3.28/out/linux.amd64/debug/obj/VMMR3LazyImp/VMMR3LazyLoad.asm
  7375 00003304 E8D50D0000              call LazyLoadResolver
  7376                                 %line 5765+1 /home/se170/VirtualBox-4.3.28/out/linux.amd64/debug/obj/VMMR3LazyImp/VMMR3LazyLoad.asm
  7377 00003309 E9CDD3FFFF              jmp SSMR3GetGCUInt
  7378                                 
  7379                                 ___LazyLoad___SSMR3GetGCUIntPtr:
  7380                                 %line 5769+1 /home/se170/VirtualBox-4.3.28/out/linux.amd64/debug/obj/VMMR3LazyImp/VMMR3LazyLoad.asm
  7381 0000330E 488D059CE6FFFF          lea rax, [g_szSSMR3GetGCUIntPtr wrt rip]
  7382 00003315 4C8D15(F2FFFFFF)        lea r10, [g_pfnSSMR3GetGCUIntPtr wrt rip]
  7383                                 %line 5777+1 /home/se170/VirtualBox-4.3.28/out/linux.amd64/debug/obj/VMMR3LazyImp/VMMR3LazyLoad.asm
  7384 0000331C E8BD0D0000              call LazyLoadResolver
  7385                                 %line 5781+1 /home/se170/VirtualBox-4.3.28/out/linux.amd64/debug/obj/VMMR3LazyImp/VMMR3LazyLoad.asm
  7386 00003321 E9BFD3FFFF              jmp SSMR3GetGCUIntPtr
  7387                                 
  7388                                 ___LazyLoad___SSMR3GetGCUIntReg:
  7389                                 %line 5785+1 /home/se170/VirtualBox-4.3.28/out/linux.amd64/debug/obj/VMMR3LazyImp/VMMR3LazyLoad.asm
  7390 00003326 488D0596E6FFFF          lea rax, [g_szSSMR3GetGCUIntReg wrt rip]
  7391 0000332D 4C8D15(F2FFFFFF)        lea r10, [g_pfnSSMR3GetGCUIntReg wrt rip]
  7392                                 %line 5793+1 /home/se170/VirtualBox-4.3.28/out/linux.amd64/debug/obj/VMMR3LazyImp/VMMR3LazyLoad.asm
  7393 00003334 E8A50D0000              call LazyLoadResolver
  7394                                 %line 5797+1 /home/se170/VirtualBox-4.3.28/out/linux.amd64/debug/obj/VMMR3LazyImp/VMMR3LazyLoad.asm
  7395 00003339 E9B1D3FFFF              jmp SSMR3GetGCUIntReg
  7396                                 
  7397                                 ___LazyLoad___SSMR3GetIOPort:
  7398                                 %line 5801+1 /home/se170/VirtualBox-4.3.28/out/linux.amd64/debug/obj/VMMR3LazyImp/VMMR3LazyLoad.asm
  7399 0000333E 488D0590E6FFFF          lea rax, [g_szSSMR3GetIOPort wrt rip]
  7400 00003345 4C8D15(F2FFFFFF)        lea r10, [g_pfnSSMR3GetIOPort wrt rip]
  7401                                 %line 5809+1 /home/se170/VirtualBox-4.3.28/out/linux.amd64/debug/obj/VMMR3LazyImp/VMMR3LazyLoad.asm
  7402 0000334C E88D0D0000              call LazyLoadResolver
  7403                                 %line 5813+1 /home/se170/VirtualBox-4.3.28/out/linux.amd64/debug/obj/VMMR3LazyImp/VMMR3LazyLoad.asm
  7404 00003351 E9A3D3FFFF              jmp SSMR3GetIOPort
  7405                                 
  7406                                 ___LazyLoad___SSMR3GetMem:
  7407                                 %line 5817+1 /home/se170/VirtualBox-4.3.28/out/linux.amd64/debug/obj/VMMR3LazyImp/VMMR3LazyLoad.asm
  7408 00003356 488D0587E6FFFF          lea rax, [g_szSSMR3GetMem wrt rip]
  7409 0000335D 4C8D15(F2FFFFFF)        lea r10, [g_pfnSSMR3GetMem wrt rip]
  7410                                 %line 5825+1 /home/se170/VirtualBox-4.3.28/out/linux.amd64/debug/obj/VMMR3LazyImp/VMMR3LazyLoad.asm
  7411 00003364 E8750D0000              call LazyLoadResolver
  7412                                 %line 5829+1 /home/se170/VirtualBox-4.3.28/out/linux.amd64/debug/obj/VMMR3LazyImp/VMMR3LazyLoad.asm
  7413 00003369 E995D3FFFF              jmp SSMR3GetMem
  7414                                 
  7415                                 ___LazyLoad___SSMR3GetRCPtr:
  7416                                 %line 5833+1 /home/se170/VirtualBox-4.3.28/out/linux.amd64/debug/obj/VMMR3LazyImp/VMMR3LazyLoad.asm
  7417 0000336E 488D057BE6FFFF          lea rax, [g_szSSMR3GetRCPtr wrt rip]
  7418 00003375 4C8D15(F2FFFFFF)        lea r10, [g_pfnSSMR3GetRCPtr wrt rip]
  7419                                 %line 5841+1 /home/se170/VirtualBox-4.3.28/out/linux.amd64/debug/obj/VMMR3LazyImp/VMMR3LazyLoad.asm
  7420 0000337C E85D0D0000              call LazyLoadResolver
  7421                                 %line 5845+1 /home/se170/VirtualBox-4.3.28/out/linux.amd64/debug/obj/VMMR3LazyImp/VMMR3LazyLoad.asm
  7422 00003381 E987D3FFFF              jmp SSMR3GetRCPtr
  7423                                 
  7424                                 ___LazyLoad___SSMR3GetS128:
  7425                                 %line 5849+1 /home/se170/VirtualBox-4.3.28/out/linux.amd64/debug/obj/VMMR3LazyImp/VMMR3LazyLoad.asm
  7426 00003386 488D0571E6FFFF          lea rax, [g_szSSMR3GetS128 wrt rip]
  7427 0000338D 4C8D15(F2FFFFFF)        lea r10, [g_pfnSSMR3GetS128 wrt rip]
  7428                                 %line 5857+1 /home/se170/VirtualBox-4.3.28/out/linux.amd64/debug/obj/VMMR3LazyImp/VMMR3LazyLoad.asm
  7429 00003394 E8450D0000              call LazyLoadResolver
  7430                                 %line 5861+1 /home/se170/VirtualBox-4.3.28/out/linux.amd64/debug/obj/VMMR3LazyImp/VMMR3LazyLoad.asm
  7431 00003399 E979D3FFFF              jmp SSMR3GetS128
  7432                                 
  7433                                 ___LazyLoad___SSMR3GetS16:
  7434                                 %line 5865+1 /home/se170/VirtualBox-4.3.28/out/linux.amd64/debug/obj/VMMR3LazyImp/VMMR3LazyLoad.asm
  7435 0000339E 488D0566E6FFFF          lea rax, [g_szSSMR3GetS16 wrt rip]
  7436 000033A5 4C8D15(F2FFFFFF)        lea r10, [g_pfnSSMR3GetS16 wrt rip]
  7437                                 %line 5873+1 /home/se170/VirtualBox-4.3.28/out/linux.amd64/debug/obj/VMMR3LazyImp/VMMR3LazyLoad.asm
  7438 000033AC E82D0D0000              call LazyLoadResolver
  7439                                 %line 5877+1 /home/se170/VirtualBox-4.3.28/out/linux.amd64/debug/obj/VMMR3LazyImp/VMMR3LazyLoad.asm
  7440 000033B1 E96BD3FFFF              jmp SSMR3GetS16
  7441                                 
  7442                                 ___LazyLoad___SSMR3GetS32:
  7443                                 %line 5881+1 /home/se170/VirtualBox-4.3.28/out/linux.amd64/debug/obj/VMMR3LazyImp/VMMR3LazyLoad.asm
  7444 000033B6 488D055AE6FFFF          lea rax, [g_szSSMR3GetS32 wrt rip]
  7445 000033BD 4C8D15(F2FFFFFF)        lea r10, [g_pfnSSMR3GetS32 wrt rip]
  7446                                 %line 5889+1 /home/se170/VirtualBox-4.3.28/out/linux.amd64/debug/obj/VMMR3LazyImp/VMMR3LazyLoad.asm
  7447 000033C4 E8150D0000              call LazyLoadResolver
  7448                                 %line 5893+1 /home/se170/VirtualBox-4.3.28/out/linux.amd64/debug/obj/VMMR3LazyImp/VMMR3LazyLoad.asm
  7449 000033C9 E95DD3FFFF              jmp SSMR3GetS32
  7450                                 
  7451                                 ___LazyLoad___SSMR3GetS64:
  7452                                 %line 5897+1 /home/se170/VirtualBox-4.3.28/out/linux.amd64/debug/obj/VMMR3LazyImp/VMMR3LazyLoad.asm
  7453 000033CE 488D054EE6FFFF          lea rax, [g_szSSMR3GetS64 wrt rip]
  7454 000033D5 4C8D15(F2FFFFFF)        lea r10, [g_pfnSSMR3GetS64 wrt rip]
  7455                                 %line 5905+1 /home/se170/VirtualBox-4.3.28/out/linux.amd64/debug/obj/VMMR3LazyImp/VMMR3LazyLoad.asm
  7456 000033DC E8FD0C0000              call LazyLoadResolver
  7457                                 %line 5909+1 /home/se170/VirtualBox-4.3.28/out/linux.amd64/debug/obj/VMMR3LazyImp/VMMR3LazyLoad.asm
  7458 000033E1 E94FD3FFFF              jmp SSMR3GetS64
  7459                                 
  7460                                 ___LazyLoad___SSMR3GetS8:
  7461                                 %line 5913+1 /home/se170/VirtualBox-4.3.28/out/linux.amd64/debug/obj/VMMR3LazyImp/VMMR3LazyLoad.asm
  7462 000033E6 488D0542E6FFFF          lea rax, [g_szSSMR3GetS8 wrt rip]
  7463 000033ED 4C8D15(F2FFFFFF)        lea r10, [g_pfnSSMR3GetS8 wrt rip]
  7464                                 %line 5921+1 /home/se170/VirtualBox-4.3.28/out/linux.amd64/debug/obj/VMMR3LazyImp/VMMR3LazyLoad.asm
  7465 000033F4 E8E50C0000              call LazyLoadResolver
  7466                                 %line 5925+1 /home/se170/VirtualBox-4.3.28/out/linux.amd64/debug/obj/VMMR3LazyImp/VMMR3LazyLoad.asm
  7467 000033F9 E941D3FFFF              jmp SSMR3GetS8
  7468                                 
  7469                                 ___LazyLoad___SSMR3GetSInt:
  7470                                 %line 5929+1 /home/se170/VirtualBox-4.3.28/out/linux.amd64/debug/obj/VMMR3LazyImp/VMMR3LazyLoad.asm
  7471 000033FE 488D0535E6FFFF          lea rax, [g_szSSMR3GetSInt wrt rip]
  7472 00003405 4C8D15(F2FFFFFF)        lea r10, [g_pfnSSMR3GetSInt wrt rip]
  7473                                 %line 5937+1 /home/se170/VirtualBox-4.3.28/out/linux.amd64/debug/obj/VMMR3LazyImp/VMMR3LazyLoad.asm
  7474 0000340C E8CD0C0000              call LazyLoadResolver
  7475                                 %line 5941+1 /home/se170/VirtualBox-4.3.28/out/linux.amd64/debug/obj/VMMR3LazyImp/VMMR3LazyLoad.asm
  7476 00003411 E933D3FFFF              jmp SSMR3GetSInt
  7477                                 
  7478                                 ___LazyLoad___SSMR3GetSel:
  7479                                 %line 5945+1 /home/se170/VirtualBox-4.3.28/out/linux.amd64/debug/obj/VMMR3LazyImp/VMMR3LazyLoad.asm
  7480 00003416 488D052AE6FFFF          lea rax, [g_szSSMR3GetSel wrt rip]
  7481 0000341D 4C8D15(F2FFFFFF)        lea r10, [g_pfnSSMR3GetSel wrt rip]
  7482                                 %line 5953+1 /home/se170/VirtualBox-4.3.28/out/linux.amd64/debug/obj/VMMR3LazyImp/VMMR3LazyLoad.asm
  7483 00003424 E8B50C0000              call LazyLoadResolver
  7484                                 %line 5957+1 /home/se170/VirtualBox-4.3.28/out/linux.amd64/debug/obj/VMMR3LazyImp/VMMR3LazyLoad.asm
  7485 00003429 E925D3FFFF              jmp SSMR3GetSel
  7486                                 
  7487                                 ___LazyLoad___SSMR3GetStrZ:
  7488                                 %line 5961+1 /home/se170/VirtualBox-4.3.28/out/linux.amd64/debug/obj/VMMR3LazyImp/VMMR3LazyLoad.asm
  7489 0000342E 488D051EE6FFFF          lea rax, [g_szSSMR3GetStrZ wrt rip]
  7490 00003435 4C8D15(F2FFFFFF)        lea r10, [g_pfnSSMR3GetStrZ wrt rip]
  7491                                 %line 5969+1 /home/se170/VirtualBox-4.3.28/out/linux.amd64/debug/obj/VMMR3LazyImp/VMMR3LazyLoad.asm
  7492 0000343C E89D0C0000              call LazyLoadResolver
  7493                                 %line 5973+1 /home/se170/VirtualBox-4.3.28/out/linux.amd64/debug/obj/VMMR3LazyImp/VMMR3LazyLoad.asm
  7494 00003441 E917D3FFFF              jmp SSMR3GetStrZ
  7495                                 
  7496                                 ___LazyLoad___SSMR3GetStrZEx:
  7497                                 %line 5977+1 /home/se170/VirtualBox-4.3.28/out/linux.amd64/debug/obj/VMMR3LazyImp/VMMR3LazyLoad.asm
  7498 00003446 488D0513E6FFFF          lea rax, [g_szSSMR3GetStrZEx wrt rip]
  7499 0000344D 4C8D15(F2FFFFFF)        lea r10, [g_pfnSSMR3GetStrZEx wrt rip]
  7500                                 %line 5985+1 /home/se170/VirtualBox-4.3.28/out/linux.amd64/debug/obj/VMMR3LazyImp/VMMR3LazyLoad.asm
  7501 00003454 E8850C0000              call LazyLoadResolver
  7502                                 %line 5989+1 /home/se170/VirtualBox-4.3.28/out/linux.amd64/debug/obj/VMMR3LazyImp/VMMR3LazyLoad.asm
  7503 00003459 E909D3FFFF              jmp SSMR3GetStrZEx
  7504                                 
  7505                                 ___LazyLoad___SSMR3GetStruct:
  7506                                 %line 5993+1 /home/se170/VirtualBox-4.3.28/out/linux.amd64/debug/obj/VMMR3LazyImp/VMMR3LazyLoad.asm
  7507 0000345E 488D050AE6FFFF          lea rax, [g_szSSMR3GetStruct wrt rip]
  7508 00003465 4C8D15(F2FFFFFF)        lea r10, [g_pfnSSMR3GetStruct wrt rip]
  7509                                 %line 6001+1 /home/se170/VirtualBox-4.3.28/out/linux.amd64/debug/obj/VMMR3LazyImp/VMMR3LazyLoad.asm
  7510 0000346C E86D0C0000              call LazyLoadResolver
  7511                                 %line 6005+1 /home/se170/VirtualBox-4.3.28/out/linux.amd64/debug/obj/VMMR3LazyImp/VMMR3LazyLoad.asm
  7512 00003471 E9FBD2FFFF              jmp SSMR3GetStruct
  7513                                 
  7514                                 ___LazyLoad___SSMR3GetStructEx:
  7515                                 %line 6009+1 /home/se170/VirtualBox-4.3.28/out/linux.amd64/debug/obj/VMMR3LazyImp/VMMR3LazyLoad.asm
  7516 00003476 488D0501E6FFFF          lea rax, [g_szSSMR3GetStructEx wrt rip]
  7517 0000347D 4C8D15(F2FFFFFF)        lea r10, [g_pfnSSMR3GetStructEx wrt rip]
  7518                                 %line 6017+1 /home/se170/VirtualBox-4.3.28/out/linux.amd64/debug/obj/VMMR3LazyImp/VMMR3LazyLoad.asm
  7519 00003484 E8550C0000              call LazyLoadResolver
  7520                                 %line 6021+1 /home/se170/VirtualBox-4.3.28/out/linux.amd64/debug/obj/VMMR3LazyImp/VMMR3LazyLoad.asm
  7521 00003489 E9EDD2FFFF              jmp SSMR3GetStructEx
  7522                                 
  7523                                 ___LazyLoad___SSMR3GetU128:
  7524                                 %line 6025+1 /home/se170/VirtualBox-4.3.28/out/linux.amd64/debug/obj/VMMR3LazyImp/VMMR3LazyLoad.asm
  7525 0000348E 488D05FAE5FFFF          lea rax, [g_szSSMR3GetU128 wrt rip]
  7526 00003495 4C8D15(F2FFFFFF)        lea r10, [g_pfnSSMR3GetU128 wrt rip]
  7527                                 %line 6033+1 /home/se170/VirtualBox-4.3.28/out/linux.amd64/debug/obj/VMMR3LazyImp/VMMR3LazyLoad.asm
  7528 0000349C E83D0C0000              call LazyLoadResolver
  7529                                 %line 6037+1 /home/se170/VirtualBox-4.3.28/out/linux.amd64/debug/obj/VMMR3LazyImp/VMMR3LazyLoad.asm
  7530 000034A1 E9DFD2FFFF              jmp SSMR3GetU128
  7531                                 
  7532                                 ___LazyLoad___SSMR3GetU16:
  7533                                 %line 6041+1 /home/se170/VirtualBox-4.3.28/out/linux.amd64/debug/obj/VMMR3LazyImp/VMMR3LazyLoad.asm
  7534 000034A6 488D05EFE5FFFF          lea rax, [g_szSSMR3GetU16 wrt rip]
  7535 000034AD 4C8D15(F2FFFFFF)        lea r10, [g_pfnSSMR3GetU16 wrt rip]
  7536                                 %line 6049+1 /home/se170/VirtualBox-4.3.28/out/linux.amd64/debug/obj/VMMR3LazyImp/VMMR3LazyLoad.asm
  7537 000034B4 E8250C0000              call LazyLoadResolver
  7538                                 %line 6053+1 /home/se170/VirtualBox-4.3.28/out/linux.amd64/debug/obj/VMMR3LazyImp/VMMR3LazyLoad.asm
  7539 000034B9 E9D1D2FFFF              jmp SSMR3GetU16
  7540                                 
  7541                                 ___LazyLoad___SSMR3GetU32:
  7542                                 %line 6057+1 /home/se170/VirtualBox-4.3.28/out/linux.amd64/debug/obj/VMMR3LazyImp/VMMR3LazyLoad.asm
  7543 000034BE 488D05E3E5FFFF          lea rax, [g_szSSMR3GetU32 wrt rip]
  7544 000034C5 4C8D15(F2FFFFFF)        lea r10, [g_pfnSSMR3GetU32 wrt rip]
  7545                                 %line 6065+1 /home/se170/VirtualBox-4.3.28/out/linux.amd64/debug/obj/VMMR3LazyImp/VMMR3LazyLoad.asm
  7546 000034CC E80D0C0000              call LazyLoadResolver
  7547                                 %line 6069+1 /home/se170/VirtualBox-4.3.28/out/linux.amd64/debug/obj/VMMR3LazyImp/VMMR3LazyLoad.asm
  7548 000034D1 E9C3D2FFFF              jmp SSMR3GetU32
  7549                                 
  7550                                 ___LazyLoad___SSMR3GetU64:
  7551                                 %line 6073+1 /home/se170/VirtualBox-4.3.28/out/linux.amd64/debug/obj/VMMR3LazyImp/VMMR3LazyLoad.asm
  7552 000034D6 488D05D7E5FFFF          lea rax, [g_szSSMR3GetU64 wrt rip]
  7553 000034DD 4C8D15(F2FFFFFF)        lea r10, [g_pfnSSMR3GetU64 wrt rip]
  7554                                 %line 6081+1 /home/se170/VirtualBox-4.3.28/out/linux.amd64/debug/obj/VMMR3LazyImp/VMMR3LazyLoad.asm
  7555 000034E4 E8F50B0000              call LazyLoadResolver
  7556                                 %line 6085+1 /home/se170/VirtualBox-4.3.28/out/linux.amd64/debug/obj/VMMR3LazyImp/VMMR3LazyLoad.asm
  7557 000034E9 E9B5D2FFFF              jmp SSMR3GetU64
  7558                                 
  7559                                 ___LazyLoad___SSMR3GetU8:
  7560                                 %line 6089+1 /home/se170/VirtualBox-4.3.28/out/linux.amd64/debug/obj/VMMR3LazyImp/VMMR3LazyLoad.asm
  7561 000034EE 488D05CBE5FFFF          lea rax, [g_szSSMR3GetU8 wrt rip]
  7562 000034F5 4C8D15(F2FFFFFF)        lea r10, [g_pfnSSMR3GetU8 wrt rip]
  7563                                 %line 6097+1 /home/se170/VirtualBox-4.3.28/out/linux.amd64/debug/obj/VMMR3LazyImp/VMMR3LazyLoad.asm
  7564 000034FC E8DD0B0000              call LazyLoadResolver
  7565                                 %line 6101+1 /home/se170/VirtualBox-4.3.28/out/linux.amd64/debug/obj/VMMR3LazyImp/VMMR3LazyLoad.asm
  7566 00003501 E9A7D2FFFF              jmp SSMR3GetU8
  7567                                 
  7568                                 ___LazyLoad___SSMR3GetUInt:
  7569                                 %line 6105+1 /home/se170/VirtualBox-4.3.28/out/linux.amd64/debug/obj/VMMR3LazyImp/VMMR3LazyLoad.asm
  7570 00003506 488D05BEE5FFFF          lea rax, [g_szSSMR3GetUInt wrt rip]
  7571 0000350D 4C8D15(F2FFFFFF)        lea r10, [g_pfnSSMR3GetUInt wrt rip]
  7572                                 %line 6113+1 /home/se170/VirtualBox-4.3.28/out/linux.amd64/debug/obj/VMMR3LazyImp/VMMR3LazyLoad.asm
  7573 00003514 E8C50B0000              call LazyLoadResolver
  7574                                 %line 6117+1 /home/se170/VirtualBox-4.3.28/out/linux.amd64/debug/obj/VMMR3LazyImp/VMMR3LazyLoad.asm
  7575 00003519 E999D2FFFF              jmp SSMR3GetUInt
  7576                                 
  7577                                 ___LazyLoad___SSMR3HandleGetAfter:
  7578                                 %line 6121+1 /home/se170/VirtualBox-4.3.28/out/linux.amd64/debug/obj/VMMR3LazyImp/VMMR3LazyLoad.asm
  7579 0000351E 488D05B3E5FFFF          lea rax, [g_szSSMR3HandleGetAfter wrt rip]
  7580 00003525 4C8D15(F2FFFFFF)        lea r10, [g_pfnSSMR3HandleGetAfter wrt rip]
  7581                                 %line 6129+1 /home/se170/VirtualBox-4.3.28/out/linux.amd64/debug/obj/VMMR3LazyImp/VMMR3LazyLoad.asm
  7582 0000352C E8AD0B0000              call LazyLoadResolver
  7583                                 %line 6133+1 /home/se170/VirtualBox-4.3.28/out/linux.amd64/debug/obj/VMMR3LazyImp/VMMR3LazyLoad.asm
  7584 00003531 E98BD2FFFF              jmp SSMR3HandleGetAfter
  7585                                 
  7586                                 ___LazyLoad___SSMR3HandleGetStatus:
  7587                                 %line 6137+1 /home/se170/VirtualBox-4.3.28/out/linux.amd64/debug/obj/VMMR3LazyImp/VMMR3LazyLoad.asm
  7588 00003536 488D05AFE5FFFF          lea rax, [g_szSSMR3HandleGetStatus wrt rip]
  7589 0000353D 4C8D15(F2FFFFFF)        lea r10, [g_pfnSSMR3HandleGetStatus wrt rip]
  7590                                 %line 6145+1 /home/se170/VirtualBox-4.3.28/out/linux.amd64/debug/obj/VMMR3LazyImp/VMMR3LazyLoad.asm
  7591 00003544 E8950B0000              call LazyLoadResolver
  7592                                 %line 6149+1 /home/se170/VirtualBox-4.3.28/out/linux.amd64/debug/obj/VMMR3LazyImp/VMMR3LazyLoad.asm
  7593 00003549 E97DD2FFFF              jmp SSMR3HandleGetStatus
  7594                                 
  7595                                 ___LazyLoad___SSMR3HandleHostBits:
  7596                                 %line 6153+1 /home/se170/VirtualBox-4.3.28/out/linux.amd64/debug/obj/VMMR3LazyImp/VMMR3LazyLoad.asm
  7597 0000354E 488D05ACE5FFFF          lea rax, [g_szSSMR3HandleHostBits wrt rip]
  7598 00003555 4C8D15(F2FFFFFF)        lea r10, [g_pfnSSMR3HandleHostBits wrt rip]
  7599                                 %line 6161+1 /home/se170/VirtualBox-4.3.28/out/linux.amd64/debug/obj/VMMR3LazyImp/VMMR3LazyLoad.asm
  7600 0000355C E87D0B0000              call LazyLoadResolver
  7601                                 %line 6165+1 /home/se170/VirtualBox-4.3.28/out/linux.amd64/debug/obj/VMMR3LazyImp/VMMR3LazyLoad.asm
  7602 00003561 E96FD2FFFF              jmp SSMR3HandleHostBits
  7603                                 
  7604                                 ___LazyLoad___SSMR3HandleHostOSAndArch:
  7605                                 %line 6169+1 /home/se170/VirtualBox-4.3.28/out/linux.amd64/debug/obj/VMMR3LazyImp/VMMR3LazyLoad.asm
  7606 00003566 488D05A8E5FFFF          lea rax, [g_szSSMR3HandleHostOSAndArch wrt rip]
  7607 0000356D 4C8D15(F2FFFFFF)        lea r10, [g_pfnSSMR3HandleHostOSAndArch wrt rip]
  7608                                 %line 6177+1 /home/se170/VirtualBox-4.3.28/out/linux.amd64/debug/obj/VMMR3LazyImp/VMMR3LazyLoad.asm
  7609 00003574 E8650B0000              call LazyLoadResolver
  7610                                 %line 6181+1 /home/se170/VirtualBox-4.3.28/out/linux.amd64/debug/obj/VMMR3LazyImp/VMMR3LazyLoad.asm
  7611 00003579 E961D2FFFF              jmp SSMR3HandleHostOSAndArch
  7612                                 
  7613                                 ___LazyLoad___SSMR3HandleIsLiveSave:
  7614                                 %line 6185+1 /home/se170/VirtualBox-4.3.28/out/linux.amd64/debug/obj/VMMR3LazyImp/VMMR3LazyLoad.asm
  7615 0000357E 488D05A9E5FFFF          lea rax, [g_szSSMR3HandleIsLiveSave wrt rip]
  7616 00003585 4C8D15(F2FFFFFF)        lea r10, [g_pfnSSMR3HandleIsLiveSave wrt rip]
  7617                                 %line 6193+1 /home/se170/VirtualBox-4.3.28/out/linux.amd64/debug/obj/VMMR3LazyImp/VMMR3LazyLoad.asm
  7618 0000358C E84D0B0000              call LazyLoadResolver
  7619                                 %line 6197+1 /home/se170/VirtualBox-4.3.28/out/linux.amd64/debug/obj/VMMR3LazyImp/VMMR3LazyLoad.asm
  7620 00003591 E953D2FFFF              jmp SSMR3HandleIsLiveSave
  7621                                 
  7622                                 ___LazyLoad___SSMR3HandleMaxDowntime:
  7623                                 %line 6201+1 /home/se170/VirtualBox-4.3.28/out/linux.amd64/debug/obj/VMMR3LazyImp/VMMR3LazyLoad.asm
  7624 00003596 488D05A7E5FFFF          lea rax, [g_szSSMR3HandleMaxDowntime wrt rip]
  7625 0000359D 4C8D15(F2FFFFFF)        lea r10, [g_pfnSSMR3HandleMaxDowntime wrt rip]
  7626                                 %line 6209+1 /home/se170/VirtualBox-4.3.28/out/linux.amd64/debug/obj/VMMR3LazyImp/VMMR3LazyLoad.asm
  7627 000035A4 E8350B0000              call LazyLoadResolver
  7628                                 %line 6213+1 /home/se170/VirtualBox-4.3.28/out/linux.amd64/debug/obj/VMMR3LazyImp/VMMR3LazyLoad.asm
  7629 000035A9 E945D2FFFF              jmp SSMR3HandleMaxDowntime
  7630                                 
  7631                                 ___LazyLoad___SSMR3HandleReportLivePercent:
  7632                                 %line 6217+1 /home/se170/VirtualBox-4.3.28/out/linux.amd64/debug/obj/VMMR3LazyImp/VMMR3LazyLoad.asm
  7633 000035AE 488D05A6E5FFFF          lea rax, [g_szSSMR3HandleReportLivePercent wrt rip]
  7634 000035B5 4C8D15(F2FFFFFF)        lea r10, [g_pfnSSMR3HandleReportLivePercent wrt rip]
  7635                                 %line 6225+1 /home/se170/VirtualBox-4.3.28/out/linux.amd64/debug/obj/VMMR3LazyImp/VMMR3LazyLoad.asm
  7636 000035BC E81D0B0000              call LazyLoadResolver
  7637                                 %line 6229+1 /home/se170/VirtualBox-4.3.28/out/linux.amd64/debug/obj/VMMR3LazyImp/VMMR3LazyLoad.asm
  7638 000035C1 E937D2FFFF              jmp SSMR3HandleReportLivePercent
  7639                                 
  7640                                 ___LazyLoad___SSMR3HandleRevision:
  7641                                 %line 6233+1 /home/se170/VirtualBox-4.3.28/out/linux.amd64/debug/obj/VMMR3LazyImp/VMMR3LazyLoad.asm
  7642 000035C6 488D05ABE5FFFF          lea rax, [g_szSSMR3HandleRevision wrt rip]
  7643 000035CD 4C8D15(F2FFFFFF)        lea r10, [g_pfnSSMR3HandleRevision wrt rip]
  7644                                 %line 6241+1 /home/se170/VirtualBox-4.3.28/out/linux.amd64/debug/obj/VMMR3LazyImp/VMMR3LazyLoad.asm
  7645 000035D4 E8050B0000              call LazyLoadResolver
  7646                                 %line 6245+1 /home/se170/VirtualBox-4.3.28/out/linux.amd64/debug/obj/VMMR3LazyImp/VMMR3LazyLoad.asm
  7647 000035D9 E929D2FFFF              jmp SSMR3HandleRevision
  7648                                 
  7649                                 ___LazyLoad___SSMR3HandleSetStatus:
  7650                                 %line 6249+1 /home/se170/VirtualBox-4.3.28/out/linux.amd64/debug/obj/VMMR3LazyImp/VMMR3LazyLoad.asm
  7651 000035DE 488D05A7E5FFFF          lea rax, [g_szSSMR3HandleSetStatus wrt rip]
  7652 000035E5 4C8D15(F2FFFFFF)        lea r10, [g_pfnSSMR3HandleSetStatus wrt rip]
  7653                                 %line 6257+1 /home/se170/VirtualBox-4.3.28/out/linux.amd64/debug/obj/VMMR3LazyImp/VMMR3LazyLoad.asm
  7654 000035EC E8ED0A0000              call LazyLoadResolver
  7655                                 %line 6261+1 /home/se170/VirtualBox-4.3.28/out/linux.amd64/debug/obj/VMMR3LazyImp/VMMR3LazyLoad.asm
  7656 000035F1 E91BD2FFFF              jmp SSMR3HandleSetStatus
  7657                                 
  7658                                 ___LazyLoad___SSMR3HandleVersion:
  7659                                 %line 6265+1 /home/se170/VirtualBox-4.3.28/out/linux.amd64/debug/obj/VMMR3LazyImp/VMMR3LazyLoad.asm
  7660 000035F6 488D05A4E5FFFF          lea rax, [g_szSSMR3HandleVersion wrt rip]
  7661 000035FD 4C8D15(F2FFFFFF)        lea r10, [g_pfnSSMR3HandleVersion wrt rip]
  7662                                 %line 6273+1 /home/se170/VirtualBox-4.3.28/out/linux.amd64/debug/obj/VMMR3LazyImp/VMMR3LazyLoad.asm
  7663 00003604 E8D50A0000              call LazyLoadResolver
  7664                                 %line 6277+1 /home/se170/VirtualBox-4.3.28/out/linux.amd64/debug/obj/VMMR3LazyImp/VMMR3LazyLoad.asm
  7665 00003609 E90DD2FFFF              jmp SSMR3HandleVersion
  7666                                 
  7667                                 ___LazyLoad___SSMR3Open:
  7668                                 %line 6281+1 /home/se170/VirtualBox-4.3.28/out/linux.amd64/debug/obj/VMMR3LazyImp/VMMR3LazyLoad.asm
  7669 0000360E 488D059FE5FFFF          lea rax, [g_szSSMR3Open wrt rip]
  7670 00003615 4C8D15(F2FFFFFF)        lea r10, [g_pfnSSMR3Open wrt rip]
  7671                                 %line 6289+1 /home/se170/VirtualBox-4.3.28/out/linux.amd64/debug/obj/VMMR3LazyImp/VMMR3LazyLoad.asm
  7672 0000361C E8BD0A0000              call LazyLoadResolver
  7673                                 %line 6293+1 /home/se170/VirtualBox-4.3.28/out/linux.amd64/debug/obj/VMMR3LazyImp/VMMR3LazyLoad.asm
  7674 00003621 E9FFD1FFFF              jmp SSMR3Open
  7675                                 
  7676                                 ___LazyLoad___SSMR3PutBool:
  7677                                 %line 6297+1 /home/se170/VirtualBox-4.3.28/out/linux.amd64/debug/obj/VMMR3LazyImp/VMMR3LazyLoad.asm
  7678 00003626 488D0591E5FFFF          lea rax, [g_szSSMR3PutBool wrt rip]
  7679 0000362D 4C8D15(F2FFFFFF)        lea r10, [g_pfnSSMR3PutBool wrt rip]
  7680                                 %line 6305+1 /home/se170/VirtualBox-4.3.28/out/linux.amd64/debug/obj/VMMR3LazyImp/VMMR3LazyLoad.asm
  7681 00003634 E8A50A0000              call LazyLoadResolver
  7682                                 %line 6309+1 /home/se170/VirtualBox-4.3.28/out/linux.amd64/debug/obj/VMMR3LazyImp/VMMR3LazyLoad.asm
  7683 00003639 E9F1D1FFFF              jmp SSMR3PutBool
  7684                                 
  7685                                 ___LazyLoad___SSMR3PutGCPhys:
  7686                                 %line 6313+1 /home/se170/VirtualBox-4.3.28/out/linux.amd64/debug/obj/VMMR3LazyImp/VMMR3LazyLoad.asm
  7687 0000363E 488D0586E5FFFF          lea rax, [g_szSSMR3PutGCPhys wrt rip]
  7688 00003645 4C8D15(F2FFFFFF)        lea r10, [g_pfnSSMR3PutGCPhys wrt rip]
  7689                                 %line 6321+1 /home/se170/VirtualBox-4.3.28/out/linux.amd64/debug/obj/VMMR3LazyImp/VMMR3LazyLoad.asm
  7690 0000364C E88D0A0000              call LazyLoadResolver
  7691                                 %line 6325+1 /home/se170/VirtualBox-4.3.28/out/linux.amd64/debug/obj/VMMR3LazyImp/VMMR3LazyLoad.asm
  7692 00003651 E9E3D1FFFF              jmp SSMR3PutGCPhys
  7693                                 
  7694                                 ___LazyLoad___SSMR3PutGCPhys32:
  7695                                 %line 6329+1 /home/se170/VirtualBox-4.3.28/out/linux.amd64/debug/obj/VMMR3LazyImp/VMMR3LazyLoad.asm
  7696 00003656 488D057DE5FFFF          lea rax, [g_szSSMR3PutGCPhys32 wrt rip]
  7697 0000365D 4C8D15(F2FFFFFF)        lea r10, [g_pfnSSMR3PutGCPhys32 wrt rip]
  7698                                 %line 6337+1 /home/se170/VirtualBox-4.3.28/out/linux.amd64/debug/obj/VMMR3LazyImp/VMMR3LazyLoad.asm
  7699 00003664 E8750A0000              call LazyLoadResolver
  7700                                 %line 6341+1 /home/se170/VirtualBox-4.3.28/out/linux.amd64/debug/obj/VMMR3LazyImp/VMMR3LazyLoad.asm
  7701 00003669 E9D5D1FFFF              jmp SSMR3PutGCPhys32
  7702                                 
  7703                                 ___LazyLoad___SSMR3PutGCPhys64:
  7704                                 %line 6345+1 /home/se170/VirtualBox-4.3.28/out/linux.amd64/debug/obj/VMMR3LazyImp/VMMR3LazyLoad.asm
  7705 0000366E 488D0576E5FFFF          lea rax, [g_szSSMR3PutGCPhys64 wrt rip]
  7706 00003675 4C8D15(F2FFFFFF)        lea r10, [g_pfnSSMR3PutGCPhys64 wrt rip]
  7707                                 %line 6353+1 /home/se170/VirtualBox-4.3.28/out/linux.amd64/debug/obj/VMMR3LazyImp/VMMR3LazyLoad.asm
  7708 0000367C E85D0A0000              call LazyLoadResolver
  7709                                 %line 6357+1 /home/se170/VirtualBox-4.3.28/out/linux.amd64/debug/obj/VMMR3LazyImp/VMMR3LazyLoad.asm
  7710 00003681 E9C7D1FFFF              jmp SSMR3PutGCPhys64
  7711                                 
  7712                                 ___LazyLoad___SSMR3PutGCPtr:
  7713                                 %line 6361+1 /home/se170/VirtualBox-4.3.28/out/linux.amd64/debug/obj/VMMR3LazyImp/VMMR3LazyLoad.asm
  7714 00003686 488D056FE5FFFF          lea rax, [g_szSSMR3PutGCPtr wrt rip]
  7715 0000368D 4C8D15(F2FFFFFF)        lea r10, [g_pfnSSMR3PutGCPtr wrt rip]
  7716                                 %line 6369+1 /home/se170/VirtualBox-4.3.28/out/linux.amd64/debug/obj/VMMR3LazyImp/VMMR3LazyLoad.asm
  7717 00003694 E8450A0000              call LazyLoadResolver
  7718                                 %line 6373+1 /home/se170/VirtualBox-4.3.28/out/linux.amd64/debug/obj/VMMR3LazyImp/VMMR3LazyLoad.asm
  7719 00003699 E9B9D1FFFF              jmp SSMR3PutGCPtr
  7720                                 
  7721                                 ___LazyLoad___SSMR3PutGCUInt:
  7722                                 %line 6377+1 /home/se170/VirtualBox-4.3.28/out/linux.amd64/debug/obj/VMMR3LazyImp/VMMR3LazyLoad.asm
  7723 0000369E 488D0565E5FFFF          lea rax, [g_szSSMR3PutGCUInt wrt rip]
  7724 000036A5 4C8D15(F2FFFFFF)        lea r10, [g_pfnSSMR3PutGCUInt wrt rip]
  7725                                 %line 6385+1 /home/se170/VirtualBox-4.3.28/out/linux.amd64/debug/obj/VMMR3LazyImp/VMMR3LazyLoad.asm
  7726 000036AC E82D0A0000              call LazyLoadResolver
  7727                                 %line 6389+1 /home/se170/VirtualBox-4.3.28/out/linux.amd64/debug/obj/VMMR3LazyImp/VMMR3LazyLoad.asm
  7728 000036B1 E9ABD1FFFF              jmp SSMR3PutGCUInt
  7729                                 
  7730                                 ___LazyLoad___SSMR3PutGCUIntPtr:
  7731                                 %line 6393+1 /home/se170/VirtualBox-4.3.28/out/linux.amd64/debug/obj/VMMR3LazyImp/VMMR3LazyLoad.asm
  7732 000036B6 488D055CE5FFFF          lea rax, [g_szSSMR3PutGCUIntPtr wrt rip]
  7733 000036BD 4C8D15(F2FFFFFF)        lea r10, [g_pfnSSMR3PutGCUIntPtr wrt rip]
  7734                                 %line 6401+1 /home/se170/VirtualBox-4.3.28/out/linux.amd64/debug/obj/VMMR3LazyImp/VMMR3LazyLoad.asm
  7735 000036C4 E8150A0000              call LazyLoadResolver
  7736                                 %line 6405+1 /home/se170/VirtualBox-4.3.28/out/linux.amd64/debug/obj/VMMR3LazyImp/VMMR3LazyLoad.asm
  7737 000036C9 E99DD1FFFF              jmp SSMR3PutGCUIntPtr
  7738                                 
  7739                                 ___LazyLoad___SSMR3PutGCUIntReg:
  7740                                 %line 6409+1 /home/se170/VirtualBox-4.3.28/out/linux.amd64/debug/obj/VMMR3LazyImp/VMMR3LazyLoad.asm
  7741 000036CE 488D0556E5FFFF          lea rax, [g_szSSMR3PutGCUIntReg wrt rip]
  7742 000036D5 4C8D15(F2FFFFFF)        lea r10, [g_pfnSSMR3PutGCUIntReg wrt rip]
  7743                                 %line 6417+1 /home/se170/VirtualBox-4.3.28/out/linux.amd64/debug/obj/VMMR3LazyImp/VMMR3LazyLoad.asm
  7744 000036DC E8FD090000              call LazyLoadResolver
  7745                                 %line 6421+1 /home/se170/VirtualBox-4.3.28/out/linux.amd64/debug/obj/VMMR3LazyImp/VMMR3LazyLoad.asm
  7746 000036E1 E98FD1FFFF              jmp SSMR3PutGCUIntReg
  7747                                 
  7748                                 ___LazyLoad___SSMR3PutIOPort:
  7749                                 %line 6425+1 /home/se170/VirtualBox-4.3.28/out/linux.amd64/debug/obj/VMMR3LazyImp/VMMR3LazyLoad.asm
  7750 000036E6 488D0550E5FFFF          lea rax, [g_szSSMR3PutIOPort wrt rip]
  7751 000036ED 4C8D15(F2FFFFFF)        lea r10, [g_pfnSSMR3PutIOPort wrt rip]
  7752                                 %line 6433+1 /home/se170/VirtualBox-4.3.28/out/linux.amd64/debug/obj/VMMR3LazyImp/VMMR3LazyLoad.asm
  7753 000036F4 E8E5090000              call LazyLoadResolver
  7754                                 %line 6437+1 /home/se170/VirtualBox-4.3.28/out/linux.amd64/debug/obj/VMMR3LazyImp/VMMR3LazyLoad.asm
  7755 000036F9 E981D1FFFF              jmp SSMR3PutIOPort
  7756                                 
  7757                                 ___LazyLoad___SSMR3PutMem:
  7758                                 %line 6441+1 /home/se170/VirtualBox-4.3.28/out/linux.amd64/debug/obj/VMMR3LazyImp/VMMR3LazyLoad.asm
  7759 000036FE 488D0547E5FFFF          lea rax, [g_szSSMR3PutMem wrt rip]
  7760 00003705 4C8D15(F2FFFFFF)        lea r10, [g_pfnSSMR3PutMem wrt rip]
  7761                                 %line 6449+1 /home/se170/VirtualBox-4.3.28/out/linux.amd64/debug/obj/VMMR3LazyImp/VMMR3LazyLoad.asm
  7762 0000370C E8CD090000              call LazyLoadResolver
  7763                                 %line 6453+1 /home/se170/VirtualBox-4.3.28/out/linux.amd64/debug/obj/VMMR3LazyImp/VMMR3LazyLoad.asm
  7764 00003711 E973D1FFFF              jmp SSMR3PutMem
  7765                                 
  7766                                 ___LazyLoad___SSMR3PutRCPtr:
  7767                                 %line 6457+1 /home/se170/VirtualBox-4.3.28/out/linux.amd64/debug/obj/VMMR3LazyImp/VMMR3LazyLoad.asm
  7768 00003716 488D053BE5FFFF          lea rax, [g_szSSMR3PutRCPtr wrt rip]
  7769 0000371D 4C8D15(F2FFFFFF)        lea r10, [g_pfnSSMR3PutRCPtr wrt rip]
  7770                                 %line 6465+1 /home/se170/VirtualBox-4.3.28/out/linux.amd64/debug/obj/VMMR3LazyImp/VMMR3LazyLoad.asm
  7771 00003724 E8B5090000              call LazyLoadResolver
  7772                                 %line 6469+1 /home/se170/VirtualBox-4.3.28/out/linux.amd64/debug/obj/VMMR3LazyImp/VMMR3LazyLoad.asm
  7773 00003729 E965D1FFFF              jmp SSMR3PutRCPtr
  7774                                 
  7775                                 ___LazyLoad___SSMR3PutS128:
  7776                                 %line 6473+1 /home/se170/VirtualBox-4.3.28/out/linux.amd64/debug/obj/VMMR3LazyImp/VMMR3LazyLoad.asm
  7777 0000372E 488D0531E5FFFF          lea rax, [g_szSSMR3PutS128 wrt rip]
  7778 00003735 4C8D15(F2FFFFFF)        lea r10, [g_pfnSSMR3PutS128 wrt rip]
  7779                                 %line 6481+1 /home/se170/VirtualBox-4.3.28/out/linux.amd64/debug/obj/VMMR3LazyImp/VMMR3LazyLoad.asm
  7780 0000373C E89D090000              call LazyLoadResolver
  7781                                 %line 6485+1 /home/se170/VirtualBox-4.3.28/out/linux.amd64/debug/obj/VMMR3LazyImp/VMMR3LazyLoad.asm
  7782 00003741 E957D1FFFF              jmp SSMR3PutS128
  7783                                 
  7784                                 ___LazyLoad___SSMR3PutS16:
  7785                                 %line 6489+1 /home/se170/VirtualBox-4.3.28/out/linux.amd64/debug/obj/VMMR3LazyImp/VMMR3LazyLoad.asm
  7786 00003746 488D0526E5FFFF          lea rax, [g_szSSMR3PutS16 wrt rip]
  7787 0000374D 4C8D15(F2FFFFFF)        lea r10, [g_pfnSSMR3PutS16 wrt rip]
  7788                                 %line 6497+1 /home/se170/VirtualBox-4.3.28/out/linux.amd64/debug/obj/VMMR3LazyImp/VMMR3LazyLoad.asm
  7789 00003754 E885090000              call LazyLoadResolver
  7790                                 %line 6501+1 /home/se170/VirtualBox-4.3.28/out/linux.amd64/debug/obj/VMMR3LazyImp/VMMR3LazyLoad.asm
  7791 00003759 E949D1FFFF              jmp SSMR3PutS16
  7792                                 
  7793                                 ___LazyLoad___SSMR3PutS32:
  7794                                 %line 6505+1 /home/se170/VirtualBox-4.3.28/out/linux.amd64/debug/obj/VMMR3LazyImp/VMMR3LazyLoad.asm
  7795 0000375E 488D051AE5FFFF          lea rax, [g_szSSMR3PutS32 wrt rip]
  7796 00003765 4C8D15(F2FFFFFF)        lea r10, [g_pfnSSMR3PutS32 wrt rip]
  7797                                 %line 6513+1 /home/se170/VirtualBox-4.3.28/out/linux.amd64/debug/obj/VMMR3LazyImp/VMMR3LazyLoad.asm
  7798 0000376C E86D090000              call LazyLoadResolver
  7799                                 %line 6517+1 /home/se170/VirtualBox-4.3.28/out/linux.amd64/debug/obj/VMMR3LazyImp/VMMR3LazyLoad.asm
  7800 00003771 E93BD1FFFF              jmp SSMR3PutS32
  7801                                 
  7802                                 ___LazyLoad___SSMR3PutS64:
  7803                                 %line 6521+1 /home/se170/VirtualBox-4.3.28/out/linux.amd64/debug/obj/VMMR3LazyImp/VMMR3LazyLoad.asm
  7804 00003776 488D050EE5FFFF          lea rax, [g_szSSMR3PutS64 wrt rip]
  7805 0000377D 4C8D15(F2FFFFFF)        lea r10, [g_pfnSSMR3PutS64 wrt rip]
  7806                                 %line 6529+1 /home/se170/VirtualBox-4.3.28/out/linux.amd64/debug/obj/VMMR3LazyImp/VMMR3LazyLoad.asm
  7807 00003784 E855090000              call LazyLoadResolver
  7808                                 %line 6533+1 /home/se170/VirtualBox-4.3.28/out/linux.amd64/debug/obj/VMMR3LazyImp/VMMR3LazyLoad.asm
  7809 00003789 E92DD1FFFF              jmp SSMR3PutS64
  7810                                 
  7811                                 ___LazyLoad___SSMR3PutS8:
  7812                                 %line 6537+1 /home/se170/VirtualBox-4.3.28/out/linux.amd64/debug/obj/VMMR3LazyImp/VMMR3LazyLoad.asm
  7813 0000378E 488D0502E5FFFF          lea rax, [g_szSSMR3PutS8 wrt rip]
  7814 00003795 4C8D15(F2FFFFFF)        lea r10, [g_pfnSSMR3PutS8 wrt rip]
  7815                                 %line 6545+1 /home/se170/VirtualBox-4.3.28/out/linux.amd64/debug/obj/VMMR3LazyImp/VMMR3LazyLoad.asm
  7816 0000379C E83D090000              call LazyLoadResolver
  7817                                 %line 6549+1 /home/se170/VirtualBox-4.3.28/out/linux.amd64/debug/obj/VMMR3LazyImp/VMMR3LazyLoad.asm
  7818 000037A1 E91FD1FFFF              jmp SSMR3PutS8
  7819                                 
  7820                                 ___LazyLoad___SSMR3PutSInt:
  7821                                 %line 6553+1 /home/se170/VirtualBox-4.3.28/out/linux.amd64/debug/obj/VMMR3LazyImp/VMMR3LazyLoad.asm
  7822 000037A6 488D05F5E4FFFF          lea rax, [g_szSSMR3PutSInt wrt rip]
  7823 000037AD 4C8D15(F2FFFFFF)        lea r10, [g_pfnSSMR3PutSInt wrt rip]
  7824                                 %line 6561+1 /home/se170/VirtualBox-4.3.28/out/linux.amd64/debug/obj/VMMR3LazyImp/VMMR3LazyLoad.asm
  7825 000037B4 E825090000              call LazyLoadResolver
  7826                                 %line 6565+1 /home/se170/VirtualBox-4.3.28/out/linux.amd64/debug/obj/VMMR3LazyImp/VMMR3LazyLoad.asm
  7827 000037B9 E911D1FFFF              jmp SSMR3PutSInt
  7828                                 
  7829                                 ___LazyLoad___SSMR3PutSel:
  7830                                 %line 6569+1 /home/se170/VirtualBox-4.3.28/out/linux.amd64/debug/obj/VMMR3LazyImp/VMMR3LazyLoad.asm
  7831 000037BE 488D05EAE4FFFF          lea rax, [g_szSSMR3PutSel wrt rip]
  7832 000037C5 4C8D15(F2FFFFFF)        lea r10, [g_pfnSSMR3PutSel wrt rip]
  7833                                 %line 6577+1 /home/se170/VirtualBox-4.3.28/out/linux.amd64/debug/obj/VMMR3LazyImp/VMMR3LazyLoad.asm
  7834 000037CC E80D090000              call LazyLoadResolver
  7835                                 %line 6581+1 /home/se170/VirtualBox-4.3.28/out/linux.amd64/debug/obj/VMMR3LazyImp/VMMR3LazyLoad.asm
  7836 000037D1 E903D1FFFF              jmp SSMR3PutSel
  7837                                 
  7838                                 ___LazyLoad___SSMR3PutStrZ:
  7839                                 %line 6585+1 /home/se170/VirtualBox-4.3.28/out/linux.amd64/debug/obj/VMMR3LazyImp/VMMR3LazyLoad.asm
  7840 000037D6 488D05DEE4FFFF          lea rax, [g_szSSMR3PutStrZ wrt rip]
  7841 000037DD 4C8D15(F2FFFFFF)        lea r10, [g_pfnSSMR3PutStrZ wrt rip]
  7842                                 %line 6593+1 /home/se170/VirtualBox-4.3.28/out/linux.amd64/debug/obj/VMMR3LazyImp/VMMR3LazyLoad.asm
  7843 000037E4 E8F5080000              call LazyLoadResolver
  7844                                 %line 6597+1 /home/se170/VirtualBox-4.3.28/out/linux.amd64/debug/obj/VMMR3LazyImp/VMMR3LazyLoad.asm
  7845 000037E9 E9F5D0FFFF              jmp SSMR3PutStrZ
  7846                                 
  7847                                 ___LazyLoad___SSMR3PutStruct:
  7848                                 %line 6601+1 /home/se170/VirtualBox-4.3.28/out/linux.amd64/debug/obj/VMMR3LazyImp/VMMR3LazyLoad.asm
  7849 000037EE 488D05D3E4FFFF          lea rax, [g_szSSMR3PutStruct wrt rip]
  7850 000037F5 4C8D15(F2FFFFFF)        lea r10, [g_pfnSSMR3PutStruct wrt rip]
  7851                                 %line 6609+1 /home/se170/VirtualBox-4.3.28/out/linux.amd64/debug/obj/VMMR3LazyImp/VMMR3LazyLoad.asm
  7852 000037FC E8DD080000              call LazyLoadResolver
  7853                                 %line 6613+1 /home/se170/VirtualBox-4.3.28/out/linux.amd64/debug/obj/VMMR3LazyImp/VMMR3LazyLoad.asm
  7854 00003801 E9E7D0FFFF              jmp SSMR3PutStruct
  7855                                 
  7856                                 ___LazyLoad___SSMR3PutStructEx:
  7857                                 %line 6617+1 /home/se170/VirtualBox-4.3.28/out/linux.amd64/debug/obj/VMMR3LazyImp/VMMR3LazyLoad.asm
  7858 00003806 488D05CAE4FFFF          lea rax, [g_szSSMR3PutStructEx wrt rip]
  7859 0000380D 4C8D15(F2FFFFFF)        lea r10, [g_pfnSSMR3PutStructEx wrt rip]
  7860                                 %line 6625+1 /home/se170/VirtualBox-4.3.28/out/linux.amd64/debug/obj/VMMR3LazyImp/VMMR3LazyLoad.asm
  7861 00003814 E8C5080000              call LazyLoadResolver
  7862                                 %line 6629+1 /home/se170/VirtualBox-4.3.28/out/linux.amd64/debug/obj/VMMR3LazyImp/VMMR3LazyLoad.asm
  7863 00003819 E9D9D0FFFF              jmp SSMR3PutStructEx
  7864                                 
  7865                                 ___LazyLoad___SSMR3PutU128:
  7866                                 %line 6633+1 /home/se170/VirtualBox-4.3.28/out/linux.amd64/debug/obj/VMMR3LazyImp/VMMR3LazyLoad.asm
  7867 0000381E 488D05C3E4FFFF          lea rax, [g_szSSMR3PutU128 wrt rip]
  7868 00003825 4C8D15(F2FFFFFF)        lea r10, [g_pfnSSMR3PutU128 wrt rip]
  7869                                 %line 6641+1 /home/se170/VirtualBox-4.3.28/out/linux.amd64/debug/obj/VMMR3LazyImp/VMMR3LazyLoad.asm
  7870 0000382C E8AD080000              call LazyLoadResolver
  7871                                 %line 6645+1 /home/se170/VirtualBox-4.3.28/out/linux.amd64/debug/obj/VMMR3LazyImp/VMMR3LazyLoad.asm
  7872 00003831 E9CBD0FFFF              jmp SSMR3PutU128
  7873                                 
  7874                                 ___LazyLoad___SSMR3PutU16:
  7875                                 %line 6649+1 /home/se170/VirtualBox-4.3.28/out/linux.amd64/debug/obj/VMMR3LazyImp/VMMR3LazyLoad.asm
  7876 00003836 488D05B8E4FFFF          lea rax, [g_szSSMR3PutU16 wrt rip]
  7877 0000383D 4C8D15(F2FFFFFF)        lea r10, [g_pfnSSMR3PutU16 wrt rip]
  7878                                 %line 6657+1 /home/se170/VirtualBox-4.3.28/out/linux.amd64/debug/obj/VMMR3LazyImp/VMMR3LazyLoad.asm
  7879 00003844 E895080000              call LazyLoadResolver
  7880                                 %line 6661+1 /home/se170/VirtualBox-4.3.28/out/linux.amd64/debug/obj/VMMR3LazyImp/VMMR3LazyLoad.asm
  7881 00003849 E9BDD0FFFF              jmp SSMR3PutU16
  7882                                 
  7883                                 ___LazyLoad___SSMR3PutU32:
  7884                                 %line 6665+1 /home/se170/VirtualBox-4.3.28/out/linux.amd64/debug/obj/VMMR3LazyImp/VMMR3LazyLoad.asm
  7885 0000384E 488D05ACE4FFFF          lea rax, [g_szSSMR3PutU32 wrt rip]
  7886 00003855 4C8D15(F2FFFFFF)        lea r10, [g_pfnSSMR3PutU32 wrt rip]
  7887                                 %line 6673+1 /home/se170/VirtualBox-4.3.28/out/linux.amd64/debug/obj/VMMR3LazyImp/VMMR3LazyLoad.asm
  7888 0000385C E87D080000              call LazyLoadResolver
  7889                                 %line 6677+1 /home/se170/VirtualBox-4.3.28/out/linux.amd64/debug/obj/VMMR3LazyImp/VMMR3LazyLoad.asm
  7890 00003861 E9AFD0FFFF              jmp SSMR3PutU32
  7891                                 
  7892                                 ___LazyLoad___SSMR3PutU64:
  7893                                 %line 6681+1 /home/se170/VirtualBox-4.3.28/out/linux.amd64/debug/obj/VMMR3LazyImp/VMMR3LazyLoad.asm
  7894 00003866 488D05A0E4FFFF          lea rax, [g_szSSMR3PutU64 wrt rip]
  7895 0000386D 4C8D15(F2FFFFFF)        lea r10, [g_pfnSSMR3PutU64 wrt rip]
  7896                                 %line 6689+1 /home/se170/VirtualBox-4.3.28/out/linux.amd64/debug/obj/VMMR3LazyImp/VMMR3LazyLoad.asm
  7897 00003874 E865080000              call LazyLoadResolver
  7898                                 %line 6693+1 /home/se170/VirtualBox-4.3.28/out/linux.amd64/debug/obj/VMMR3LazyImp/VMMR3LazyLoad.asm
  7899 00003879 E9A1D0FFFF              jmp SSMR3PutU64
  7900                                 
  7901                                 ___LazyLoad___SSMR3PutU8:
  7902                                 %line 6697+1 /home/se170/VirtualBox-4.3.28/out/linux.amd64/debug/obj/VMMR3LazyImp/VMMR3LazyLoad.asm
  7903 0000387E 488D0594E4FFFF          lea rax, [g_szSSMR3PutU8 wrt rip]
  7904 00003885 4C8D15(F2FFFFFF)        lea r10, [g_pfnSSMR3PutU8 wrt rip]
  7905                                 %line 6705+1 /home/se170/VirtualBox-4.3.28/out/linux.amd64/debug/obj/VMMR3LazyImp/VMMR3LazyLoad.asm
  7906 0000388C E84D080000              call LazyLoadResolver
  7907                                 %line 6709+1 /home/se170/VirtualBox-4.3.28/out/linux.amd64/debug/obj/VMMR3LazyImp/VMMR3LazyLoad.asm
  7908 00003891 E993D0FFFF              jmp SSMR3PutU8
  7909                                 
  7910                                 ___LazyLoad___SSMR3PutUInt:
  7911                                 %line 6713+1 /home/se170/VirtualBox-4.3.28/out/linux.amd64/debug/obj/VMMR3LazyImp/VMMR3LazyLoad.asm
  7912 00003896 488D0587E4FFFF          lea rax, [g_szSSMR3PutUInt wrt rip]
  7913 0000389D 4C8D15(F2FFFFFF)        lea r10, [g_pfnSSMR3PutUInt wrt rip]
  7914                                 %line 6721+1 /home/se170/VirtualBox-4.3.28/out/linux.amd64/debug/obj/VMMR3LazyImp/VMMR3LazyLoad.asm
  7915 000038A4 E835080000              call LazyLoadResolver
  7916                                 %line 6725+1 /home/se170/VirtualBox-4.3.28/out/linux.amd64/debug/obj/VMMR3LazyImp/VMMR3LazyLoad.asm
  7917 000038A9 E985D0FFFF              jmp SSMR3PutUInt
  7918                                 
  7919                                 ___LazyLoad___SSMR3Seek:
  7920                                 %line 6729+1 /home/se170/VirtualBox-4.3.28/out/linux.amd64/debug/obj/VMMR3LazyImp/VMMR3LazyLoad.asm
  7921 000038AE 488D057CE4FFFF          lea rax, [g_szSSMR3Seek wrt rip]
  7922 000038B5 4C8D15(F2FFFFFF)        lea r10, [g_pfnSSMR3Seek wrt rip]
  7923                                 %line 6737+1 /home/se170/VirtualBox-4.3.28/out/linux.amd64/debug/obj/VMMR3LazyImp/VMMR3LazyLoad.asm
  7924 000038BC E81D080000              call LazyLoadResolver
  7925                                 %line 6741+1 /home/se170/VirtualBox-4.3.28/out/linux.amd64/debug/obj/VMMR3LazyImp/VMMR3LazyLoad.asm
  7926 000038C1 E977D0FFFF              jmp SSMR3Seek
  7927                                 
  7928                                 ___LazyLoad___SSMR3SetCfgError:
  7929                                 %line 6745+1 /home/se170/VirtualBox-4.3.28/out/linux.amd64/debug/obj/VMMR3LazyImp/VMMR3LazyLoad.asm
  7930 000038C6 488D056EE4FFFF          lea rax, [g_szSSMR3SetCfgError wrt rip]
  7931 000038CD 4C8D15(F2FFFFFF)        lea r10, [g_pfnSSMR3SetCfgError wrt rip]
  7932                                 %line 6753+1 /home/se170/VirtualBox-4.3.28/out/linux.amd64/debug/obj/VMMR3LazyImp/VMMR3LazyLoad.asm
  7933 000038D4 E805080000              call LazyLoadResolver
  7934                                 %line 6757+1 /home/se170/VirtualBox-4.3.28/out/linux.amd64/debug/obj/VMMR3LazyImp/VMMR3LazyLoad.asm
  7935 000038D9 E969D0FFFF              jmp SSMR3SetCfgError
  7936                                 
  7937                                 ___LazyLoad___SSMR3SetLoadError:
  7938                                 %line 6761+1 /home/se170/VirtualBox-4.3.28/out/linux.amd64/debug/obj/VMMR3LazyImp/VMMR3LazyLoad.asm
  7939 000038DE 488D0567E4FFFF          lea rax, [g_szSSMR3SetLoadError wrt rip]
  7940 000038E5 4C8D15(F2FFFFFF)        lea r10, [g_pfnSSMR3SetLoadError wrt rip]
  7941                                 %line 6769+1 /home/se170/VirtualBox-4.3.28/out/linux.amd64/debug/obj/VMMR3LazyImp/VMMR3LazyLoad.asm
  7942 000038EC E8ED070000              call LazyLoadResolver
  7943                                 %line 6773+1 /home/se170/VirtualBox-4.3.28/out/linux.amd64/debug/obj/VMMR3LazyImp/VMMR3LazyLoad.asm
  7944 000038F1 E95BD0FFFF              jmp SSMR3SetLoadError
  7945                                 
  7946                                 ___LazyLoad___SSMR3SetLoadErrorV:
  7947                                 %line 6777+1 /home/se170/VirtualBox-4.3.28/out/linux.amd64/debug/obj/VMMR3LazyImp/VMMR3LazyLoad.asm
  7948 000038F6 488D0561E4FFFF          lea rax, [g_szSSMR3SetLoadErrorV wrt rip]
  7949 000038FD 4C8D15(F2FFFFFF)        lea r10, [g_pfnSSMR3SetLoadErrorV wrt rip]
  7950                                 %line 6785+1 /home/se170/VirtualBox-4.3.28/out/linux.amd64/debug/obj/VMMR3LazyImp/VMMR3LazyLoad.asm
  7951 00003904 E8D5070000              call LazyLoadResolver
  7952                                 %line 6789+1 /home/se170/VirtualBox-4.3.28/out/linux.amd64/debug/obj/VMMR3LazyImp/VMMR3LazyLoad.asm
  7953 00003909 E94DD0FFFF              jmp SSMR3SetLoadErrorV
  7954                                 
  7955                                 ___LazyLoad___SSMR3Skip:
  7956                                 %line 6793+1 /home/se170/VirtualBox-4.3.28/out/linux.amd64/debug/obj/VMMR3LazyImp/VMMR3LazyLoad.asm
  7957 0000390E 488D055CE4FFFF          lea rax, [g_szSSMR3Skip wrt rip]
  7958 00003915 4C8D15(F2FFFFFF)        lea r10, [g_pfnSSMR3Skip wrt rip]
  7959                                 %line 6801+1 /home/se170/VirtualBox-4.3.28/out/linux.amd64/debug/obj/VMMR3LazyImp/VMMR3LazyLoad.asm
  7960 0000391C E8BD070000              call LazyLoadResolver
  7961                                 %line 6805+1 /home/se170/VirtualBox-4.3.28/out/linux.amd64/debug/obj/VMMR3LazyImp/VMMR3LazyLoad.asm
  7962 00003921 E93FD0FFFF              jmp SSMR3Skip
  7963                                 
  7964                                 ___LazyLoad___SSMR3SkipToEndOfUnit:
  7965                                 %line 6809+1 /home/se170/VirtualBox-4.3.28/out/linux.amd64/debug/obj/VMMR3LazyImp/VMMR3LazyLoad.asm
  7966 00003926 488D054EE4FFFF          lea rax, [g_szSSMR3SkipToEndOfUnit wrt rip]
  7967 0000392D 4C8D15(F2FFFFFF)        lea r10, [g_pfnSSMR3SkipToEndOfUnit wrt rip]
  7968                                 %line 6817+1 /home/se170/VirtualBox-4.3.28/out/linux.amd64/debug/obj/VMMR3LazyImp/VMMR3LazyLoad.asm
  7969 00003934 E8A5070000              call LazyLoadResolver
  7970                                 %line 6821+1 /home/se170/VirtualBox-4.3.28/out/linux.amd64/debug/obj/VMMR3LazyImp/VMMR3LazyLoad.asm
  7971 00003939 E931D0FFFF              jmp SSMR3SkipToEndOfUnit
  7972                                 
  7973                                 ___LazyLoad___SSMR3ValidateFile:
  7974                                 %line 6825+1 /home/se170/VirtualBox-4.3.28/out/linux.amd64/debug/obj/VMMR3LazyImp/VMMR3LazyLoad.asm
  7975 0000393E 488D054BE4FFFF          lea rax, [g_szSSMR3ValidateFile wrt rip]
  7976 00003945 4C8D15(F2FFFFFF)        lea r10, [g_pfnSSMR3ValidateFile wrt rip]
  7977                                 %line 6833+1 /home/se170/VirtualBox-4.3.28/out/linux.amd64/debug/obj/VMMR3LazyImp/VMMR3LazyLoad.asm
  7978 0000394C E88D070000              call LazyLoadResolver
  7979                                 %line 6837+1 /home/se170/VirtualBox-4.3.28/out/linux.amd64/debug/obj/VMMR3LazyImp/VMMR3LazyLoad.asm
  7980 00003951 E923D0FFFF              jmp SSMR3ValidateFile
  7981                                 
  7982                                 ___LazyLoad___SSMR3Cancel:
  7983                                 %line 6841+1 /home/se170/VirtualBox-4.3.28/out/linux.amd64/debug/obj/VMMR3LazyImp/VMMR3LazyLoad.asm
  7984 00003956 488D0545E4FFFF          lea rax, [g_szSSMR3Cancel wrt rip]
  7985 0000395D 4C8D15(F2FFFFFF)        lea r10, [g_pfnSSMR3Cancel wrt rip]
  7986                                 %line 6849+1 /home/se170/VirtualBox-4.3.28/out/linux.amd64/debug/obj/VMMR3LazyImp/VMMR3LazyLoad.asm
  7987 00003964 E875070000              call LazyLoadResolver
  7988                                 %line 6853+1 /home/se170/VirtualBox-4.3.28/out/linux.amd64/debug/obj/VMMR3LazyImp/VMMR3LazyLoad.asm
  7989 00003969 E915D0FFFF              jmp SSMR3Cancel
  7990                                 
  7991                                 ___LazyLoad___SSMR3RegisterExternal:
  7992                                 %line 6857+1 /home/se170/VirtualBox-4.3.28/out/linux.amd64/debug/obj/VMMR3LazyImp/VMMR3LazyLoad.asm
  7993 0000396E 488D0539E4FFFF          lea rax, [g_szSSMR3RegisterExternal wrt rip]
  7994 00003975 4C8D15(F2FFFFFF)        lea r10, [g_pfnSSMR3RegisterExternal wrt rip]
  7995                                 %line 6865+1 /home/se170/VirtualBox-4.3.28/out/linux.amd64/debug/obj/VMMR3LazyImp/VMMR3LazyLoad.asm
  7996 0000397C E85D070000              call LazyLoadResolver
  7997                                 %line 6869+1 /home/se170/VirtualBox-4.3.28/out/linux.amd64/debug/obj/VMMR3LazyImp/VMMR3LazyLoad.asm
  7998 00003981 E907D0FFFF              jmp SSMR3RegisterExternal
  7999                                 
  8000                                 ___LazyLoad___STAMR3Dump:
  8001                                 %line 6873+1 /home/se170/VirtualBox-4.3.28/out/linux.amd64/debug/obj/VMMR3LazyImp/VMMR3LazyLoad.asm
  8002 00003986 488D0537E4FFFF          lea rax, [g_szSTAMR3Dump wrt rip]
  8003 0000398D 4C8D15(F2FFFFFF)        lea r10, [g_pfnSTAMR3Dump wrt rip]
  8004                                 %line 6881+1 /home/se170/VirtualBox-4.3.28/out/linux.amd64/debug/obj/VMMR3LazyImp/VMMR3LazyLoad.asm
  8005 00003994 E845070000              call LazyLoadResolver
  8006                                 %line 6885+1 /home/se170/VirtualBox-4.3.28/out/linux.amd64/debug/obj/VMMR3LazyImp/VMMR3LazyLoad.asm
  8007 00003999 E9F9CFFFFF              jmp STAMR3Dump
  8008                                 
  8009                                 ___LazyLoad___STAMR3Enum:
  8010                                 %line 6889+1 /home/se170/VirtualBox-4.3.28/out/linux.amd64/debug/obj/VMMR3LazyImp/VMMR3LazyLoad.asm
  8011 0000399E 488D052AE4FFFF          lea rax, [g_szSTAMR3Enum wrt rip]
  8012 000039A5 4C8D15(F2FFFFFF)        lea r10, [g_pfnSTAMR3Enum wrt rip]
  8013                                 %line 6897+1 /home/se170/VirtualBox-4.3.28/out/linux.amd64/debug/obj/VMMR3LazyImp/VMMR3LazyLoad.asm
  8014 000039AC E82D070000              call LazyLoadResolver
  8015                                 %line 6901+1 /home/se170/VirtualBox-4.3.28/out/linux.amd64/debug/obj/VMMR3LazyImp/VMMR3LazyLoad.asm
  8016 000039B1 E9EBCFFFFF              jmp STAMR3Enum
  8017                                 
  8018                                 ___LazyLoad___STAMR3Reset:
  8019                                 %line 6905+1 /home/se170/VirtualBox-4.3.28/out/linux.amd64/debug/obj/VMMR3LazyImp/VMMR3LazyLoad.asm
  8020 000039B6 488D051DE4FFFF          lea rax, [g_szSTAMR3Reset wrt rip]
  8021 000039BD 4C8D15(F2FFFFFF)        lea r10, [g_pfnSTAMR3Reset wrt rip]
  8022                                 %line 6913+1 /home/se170/VirtualBox-4.3.28/out/linux.amd64/debug/obj/VMMR3LazyImp/VMMR3LazyLoad.asm
  8023 000039C4 E815070000              call LazyLoadResolver
  8024                                 %line 6917+1 /home/se170/VirtualBox-4.3.28/out/linux.amd64/debug/obj/VMMR3LazyImp/VMMR3LazyLoad.asm
  8025 000039C9 E9DDCFFFFF              jmp STAMR3Reset
  8026                                 
  8027                                 ___LazyLoad___STAMR3Snapshot:
  8028                                 %line 6921+1 /home/se170/VirtualBox-4.3.28/out/linux.amd64/debug/obj/VMMR3LazyImp/VMMR3LazyLoad.asm
  8029 000039CE 488D0511E4FFFF          lea rax, [g_szSTAMR3Snapshot wrt rip]
  8030 000039D5 4C8D15(F2FFFFFF)        lea r10, [g_pfnSTAMR3Snapshot wrt rip]
  8031                                 %line 6929+1 /home/se170/VirtualBox-4.3.28/out/linux.amd64/debug/obj/VMMR3LazyImp/VMMR3LazyLoad.asm
  8032 000039DC E8FD060000              call LazyLoadResolver
  8033                                 %line 6933+1 /home/se170/VirtualBox-4.3.28/out/linux.amd64/debug/obj/VMMR3LazyImp/VMMR3LazyLoad.asm
  8034 000039E1 E9CFCFFFFF              jmp STAMR3Snapshot
  8035                                 
  8036                                 ___LazyLoad___STAMR3SnapshotFree:
  8037                                 %line 6937+1 /home/se170/VirtualBox-4.3.28/out/linux.amd64/debug/obj/VMMR3LazyImp/VMMR3LazyLoad.asm
  8038 000039E6 488D0508E4FFFF          lea rax, [g_szSTAMR3SnapshotFree wrt rip]
  8039 000039ED 4C8D15(F2FFFFFF)        lea r10, [g_pfnSTAMR3SnapshotFree wrt rip]
  8040                                 %line 6945+1 /home/se170/VirtualBox-4.3.28/out/linux.amd64/debug/obj/VMMR3LazyImp/VMMR3LazyLoad.asm
  8041 000039F4 E8E5060000              call LazyLoadResolver
  8042                                 %line 6949+1 /home/se170/VirtualBox-4.3.28/out/linux.amd64/debug/obj/VMMR3LazyImp/VMMR3LazyLoad.asm
  8043 000039F9 E9C1CFFFFF              jmp STAMR3SnapshotFree
  8044                                 
  8045                                 ___LazyLoad___STAMR3GetUnit:
  8046                                 %line 6953+1 /home/se170/VirtualBox-4.3.28/out/linux.amd64/debug/obj/VMMR3LazyImp/VMMR3LazyLoad.asm
  8047 000039FE 488D0503E4FFFF          lea rax, [g_szSTAMR3GetUnit wrt rip]
  8048 00003A05 4C8D15(F2FFFFFF)        lea r10, [g_pfnSTAMR3GetUnit wrt rip]
  8049                                 %line 6961+1 /home/se170/VirtualBox-4.3.28/out/linux.amd64/debug/obj/VMMR3LazyImp/VMMR3LazyLoad.asm
  8050 00003A0C E8CD060000              call LazyLoadResolver
  8051                                 %line 6965+1 /home/se170/VirtualBox-4.3.28/out/linux.amd64/debug/obj/VMMR3LazyImp/VMMR3LazyLoad.asm
  8052 00003A11 E9B3CFFFFF              jmp STAMR3GetUnit
  8053                                 
  8054                                 ___LazyLoad___TMR3TimerSetCritSect:
  8055                                 %line 6969+1 /home/se170/VirtualBox-4.3.28/out/linux.amd64/debug/obj/VMMR3LazyImp/VMMR3LazyLoad.asm
  8056 00003A16 488D05F9E3FFFF          lea rax, [g_szTMR3TimerSetCritSect wrt rip]
  8057 00003A1D 4C8D15(F2FFFFFF)        lea r10, [g_pfnTMR3TimerSetCritSect wrt rip]
  8058                                 %line 6977+1 /home/se170/VirtualBox-4.3.28/out/linux.amd64/debug/obj/VMMR3LazyImp/VMMR3LazyLoad.asm
  8059 00003A24 E8B5060000              call LazyLoadResolver
  8060                                 %line 6981+1 /home/se170/VirtualBox-4.3.28/out/linux.amd64/debug/obj/VMMR3LazyImp/VMMR3LazyLoad.asm
  8061 00003A29 E9A5CFFFFF              jmp TMR3TimerSetCritSect
  8062                                 
  8063                                 ___LazyLoad___TMR3TimerLoad:
  8064                                 %line 6985+1 /home/se170/VirtualBox-4.3.28/out/linux.amd64/debug/obj/VMMR3LazyImp/VMMR3LazyLoad.asm
  8065 00003A2E 488D05F6E3FFFF          lea rax, [g_szTMR3TimerLoad wrt rip]
  8066 00003A35 4C8D15(F2FFFFFF)        lea r10, [g_pfnTMR3TimerLoad wrt rip]
  8067                                 %line 6993+1 /home/se170/VirtualBox-4.3.28/out/linux.amd64/debug/obj/VMMR3LazyImp/VMMR3LazyLoad.asm
  8068 00003A3C E89D060000              call LazyLoadResolver
  8069                                 %line 6997+1 /home/se170/VirtualBox-4.3.28/out/linux.amd64/debug/obj/VMMR3LazyImp/VMMR3LazyLoad.asm
  8070 00003A41 E997CFFFFF              jmp TMR3TimerLoad
  8071                                 
  8072                                 ___LazyLoad___TMR3TimerSave:
  8073                                 %line 7001+1 /home/se170/VirtualBox-4.3.28/out/linux.amd64/debug/obj/VMMR3LazyImp/VMMR3LazyLoad.asm
  8074 00003A46 488D05ECE3FFFF          lea rax, [g_szTMR3TimerSave wrt rip]
  8075 00003A4D 4C8D15(F2FFFFFF)        lea r10, [g_pfnTMR3TimerSave wrt rip]
  8076                                 %line 7009+1 /home/se170/VirtualBox-4.3.28/out/linux.amd64/debug/obj/VMMR3LazyImp/VMMR3LazyLoad.asm
  8077 00003A54 E885060000              call LazyLoadResolver
  8078                                 %line 7013+1 /home/se170/VirtualBox-4.3.28/out/linux.amd64/debug/obj/VMMR3LazyImp/VMMR3LazyLoad.asm
  8079 00003A59 E989CFFFFF              jmp TMR3TimerSave
  8080                                 
  8081                                 ___LazyLoad___TMR3TimerDestroy:
  8082                                 %line 7017+1 /home/se170/VirtualBox-4.3.28/out/linux.amd64/debug/obj/VMMR3LazyImp/VMMR3LazyLoad.asm
  8083 00003A5E 488D05E2E3FFFF          lea rax, [g_szTMR3TimerDestroy wrt rip]
  8084 00003A65 4C8D15(F2FFFFFF)        lea r10, [g_pfnTMR3TimerDestroy wrt rip]
  8085                                 %line 7025+1 /home/se170/VirtualBox-4.3.28/out/linux.amd64/debug/obj/VMMR3LazyImp/VMMR3LazyLoad.asm
  8086 00003A6C E86D060000              call LazyLoadResolver
  8087                                 %line 7029+1 /home/se170/VirtualBox-4.3.28/out/linux.amd64/debug/obj/VMMR3LazyImp/VMMR3LazyLoad.asm
  8088 00003A71 E97BCFFFFF              jmp TMR3TimerDestroy
  8089                                 
  8090                                 ___LazyLoad___TMTimerFromMicro:
  8091                                 %line 7033+1 /home/se170/VirtualBox-4.3.28/out/linux.amd64/debug/obj/VMMR3LazyImp/VMMR3LazyLoad.asm
  8092 00003A76 488D05DBE3FFFF          lea rax, [g_szTMTimerFromMicro wrt rip]
  8093 00003A7D 4C8D15(F2FFFFFF)        lea r10, [g_pfnTMTimerFromMicro wrt rip]
  8094                                 %line 7041+1 /home/se170/VirtualBox-4.3.28/out/linux.amd64/debug/obj/VMMR3LazyImp/VMMR3LazyLoad.asm
  8095 00003A84 E855060000              call LazyLoadResolver
  8096                                 %line 7045+1 /home/se170/VirtualBox-4.3.28/out/linux.amd64/debug/obj/VMMR3LazyImp/VMMR3LazyLoad.asm
  8097 00003A89 E96DCFFFFF              jmp TMTimerFromMicro
  8098                                 
  8099                                 ___LazyLoad___TMTimerFromMilli:
  8100                                 %line 7049+1 /home/se170/VirtualBox-4.3.28/out/linux.amd64/debug/obj/VMMR3LazyImp/VMMR3LazyLoad.asm
  8101 00003A8E 488D05D4E3FFFF          lea rax, [g_szTMTimerFromMilli wrt rip]
  8102 00003A95 4C8D15(F2FFFFFF)        lea r10, [g_pfnTMTimerFromMilli wrt rip]
  8103                                 %line 7057+1 /home/se170/VirtualBox-4.3.28/out/linux.amd64/debug/obj/VMMR3LazyImp/VMMR3LazyLoad.asm
  8104 00003A9C E83D060000              call LazyLoadResolver
  8105                                 %line 7061+1 /home/se170/VirtualBox-4.3.28/out/linux.amd64/debug/obj/VMMR3LazyImp/VMMR3LazyLoad.asm
  8106 00003AA1 E95FCFFFFF              jmp TMTimerFromMilli
  8107                                 
  8108                                 ___LazyLoad___TMTimerFromNano:
  8109                                 %line 7065+1 /home/se170/VirtualBox-4.3.28/out/linux.amd64/debug/obj/VMMR3LazyImp/VMMR3LazyLoad.asm
  8110 00003AA6 488D05CDE3FFFF          lea rax, [g_szTMTimerFromNano wrt rip]
  8111 00003AAD 4C8D15(F2FFFFFF)        lea r10, [g_pfnTMTimerFromNano wrt rip]
  8112                                 %line 7073+1 /home/se170/VirtualBox-4.3.28/out/linux.amd64/debug/obj/VMMR3LazyImp/VMMR3LazyLoad.asm
  8113 00003AB4 E825060000              call LazyLoadResolver
  8114                                 %line 7077+1 /home/se170/VirtualBox-4.3.28/out/linux.amd64/debug/obj/VMMR3LazyImp/VMMR3LazyLoad.asm
  8115 00003AB9 E951CFFFFF              jmp TMTimerFromNano
  8116                                 
  8117                                 ___LazyLoad___TMTimerGet:
  8118                                 %line 7081+1 /home/se170/VirtualBox-4.3.28/out/linux.amd64/debug/obj/VMMR3LazyImp/VMMR3LazyLoad.asm
  8119 00003ABE 488D05C5E3FFFF          lea rax, [g_szTMTimerGet wrt rip]
  8120 00003AC5 4C8D15(F2FFFFFF)        lea r10, [g_pfnTMTimerGet wrt rip]
  8121                                 %line 7089+1 /home/se170/VirtualBox-4.3.28/out/linux.amd64/debug/obj/VMMR3LazyImp/VMMR3LazyLoad.asm
  8122 00003ACC E80D060000              call LazyLoadResolver
  8123                                 %line 7093+1 /home/se170/VirtualBox-4.3.28/out/linux.amd64/debug/obj/VMMR3LazyImp/VMMR3LazyLoad.asm
  8124 00003AD1 E943CFFFFF              jmp TMTimerGet
  8125                                 
  8126                                 ___LazyLoad___TMTimerGetFreq:
  8127                                 %line 7097+1 /home/se170/VirtualBox-4.3.28/out/linux.amd64/debug/obj/VMMR3LazyImp/VMMR3LazyLoad.asm
  8128 00003AD6 488D05B8E3FFFF          lea rax, [g_szTMTimerGetFreq wrt rip]
  8129 00003ADD 4C8D15(F2FFFFFF)        lea r10, [g_pfnTMTimerGetFreq wrt rip]
  8130                                 %line 7105+1 /home/se170/VirtualBox-4.3.28/out/linux.amd64/debug/obj/VMMR3LazyImp/VMMR3LazyLoad.asm
  8131 00003AE4 E8F5050000              call LazyLoadResolver
  8132                                 %line 7109+1 /home/se170/VirtualBox-4.3.28/out/linux.amd64/debug/obj/VMMR3LazyImp/VMMR3LazyLoad.asm
  8133 00003AE9 E935CFFFFF              jmp TMTimerGetFreq
  8134                                 
  8135                                 ___LazyLoad___TMTimerGetMicro:
  8136                                 %line 7113+1 /home/se170/VirtualBox-4.3.28/out/linux.amd64/debug/obj/VMMR3LazyImp/VMMR3LazyLoad.asm
  8137 00003AEE 488D05AFE3FFFF          lea rax, [g_szTMTimerGetMicro wrt rip]
  8138 00003AF5 4C8D15(F2FFFFFF)        lea r10, [g_pfnTMTimerGetMicro wrt rip]
  8139                                 %line 7121+1 /home/se170/VirtualBox-4.3.28/out/linux.amd64/debug/obj/VMMR3LazyImp/VMMR3LazyLoad.asm
  8140 00003AFC E8DD050000              call LazyLoadResolver
  8141                                 %line 7125+1 /home/se170/VirtualBox-4.3.28/out/linux.amd64/debug/obj/VMMR3LazyImp/VMMR3LazyLoad.asm
  8142 00003B01 E927CFFFFF              jmp TMTimerGetMicro
  8143                                 
  8144                                 ___LazyLoad___TMTimerGetMilli:
  8145                                 %line 7129+1 /home/se170/VirtualBox-4.3.28/out/linux.amd64/debug/obj/VMMR3LazyImp/VMMR3LazyLoad.asm
  8146 00003B06 488D05A7E3FFFF          lea rax, [g_szTMTimerGetMilli wrt rip]
  8147 00003B0D 4C8D15(F2FFFFFF)        lea r10, [g_pfnTMTimerGetMilli wrt rip]
  8148                                 %line 7137+1 /home/se170/VirtualBox-4.3.28/out/linux.amd64/debug/obj/VMMR3LazyImp/VMMR3LazyLoad.asm
  8149 00003B14 E8C5050000              call LazyLoadResolver
  8150                                 %line 7141+1 /home/se170/VirtualBox-4.3.28/out/linux.amd64/debug/obj/VMMR3LazyImp/VMMR3LazyLoad.asm
  8151 00003B19 E919CFFFFF              jmp TMTimerGetMilli
  8152                                 
  8153                                 ___LazyLoad___TMTimerGetNano:
  8154                                 %line 7145+1 /home/se170/VirtualBox-4.3.28/out/linux.amd64/debug/obj/VMMR3LazyImp/VMMR3LazyLoad.asm
  8155 00003B1E 488D059FE3FFFF          lea rax, [g_szTMTimerGetNano wrt rip]
  8156 00003B25 4C8D15(F2FFFFFF)        lea r10, [g_pfnTMTimerGetNano wrt rip]
  8157                                 %line 7153+1 /home/se170/VirtualBox-4.3.28/out/linux.amd64/debug/obj/VMMR3LazyImp/VMMR3LazyLoad.asm
  8158 00003B2C E8AD050000              call LazyLoadResolver
  8159                                 %line 7157+1 /home/se170/VirtualBox-4.3.28/out/linux.amd64/debug/obj/VMMR3LazyImp/VMMR3LazyLoad.asm
  8160 00003B31 E90BCFFFFF              jmp TMTimerGetNano
  8161                                 
  8162                                 ___LazyLoad___TMTimerIsActive:
  8163                                 %line 7161+1 /home/se170/VirtualBox-4.3.28/out/linux.amd64/debug/obj/VMMR3LazyImp/VMMR3LazyLoad.asm
  8164 00003B36 488D0596E3FFFF          lea rax, [g_szTMTimerIsActive wrt rip]
  8165 00003B3D 4C8D15(F2FFFFFF)        lea r10, [g_pfnTMTimerIsActive wrt rip]
  8166                                 %line 7169+1 /home/se170/VirtualBox-4.3.28/out/linux.amd64/debug/obj/VMMR3LazyImp/VMMR3LazyLoad.asm
  8167 00003B44 E895050000              call LazyLoadResolver
  8168                                 %line 7173+1 /home/se170/VirtualBox-4.3.28/out/linux.amd64/debug/obj/VMMR3LazyImp/VMMR3LazyLoad.asm
  8169 00003B49 E9FDCEFFFF              jmp TMTimerIsActive
  8170                                 
  8171                                 ___LazyLoad___TMTimerIsLockOwner:
  8172                                 %line 7177+1 /home/se170/VirtualBox-4.3.28/out/linux.amd64/debug/obj/VMMR3LazyImp/VMMR3LazyLoad.asm
  8173 00003B4E 488D058EE3FFFF          lea rax, [g_szTMTimerIsLockOwner wrt rip]
  8174 00003B55 4C8D15(F2FFFFFF)        lea r10, [g_pfnTMTimerIsLockOwner wrt rip]
  8175                                 %line 7185+1 /home/se170/VirtualBox-4.3.28/out/linux.amd64/debug/obj/VMMR3LazyImp/VMMR3LazyLoad.asm
  8176 00003B5C E87D050000              call LazyLoadResolver
  8177                                 %line 7189+1 /home/se170/VirtualBox-4.3.28/out/linux.amd64/debug/obj/VMMR3LazyImp/VMMR3LazyLoad.asm
  8178 00003B61 E9EFCEFFFF              jmp TMTimerIsLockOwner
  8179                                 
  8180                                 ___LazyLoad___TMTimerLock:
  8181                                 %line 7193+1 /home/se170/VirtualBox-4.3.28/out/linux.amd64/debug/obj/VMMR3LazyImp/VMMR3LazyLoad.asm
  8182 00003B66 488D0589E3FFFF          lea rax, [g_szTMTimerLock wrt rip]
  8183 00003B6D 4C8D15(F2FFFFFF)        lea r10, [g_pfnTMTimerLock wrt rip]
  8184                                 %line 7201+1 /home/se170/VirtualBox-4.3.28/out/linux.amd64/debug/obj/VMMR3LazyImp/VMMR3LazyLoad.asm
  8185 00003B74 E865050000              call LazyLoadResolver
  8186                                 %line 7205+1 /home/se170/VirtualBox-4.3.28/out/linux.amd64/debug/obj/VMMR3LazyImp/VMMR3LazyLoad.asm
  8187 00003B79 E9E1CEFFFF              jmp TMTimerLock
  8188                                 
  8189                                 ___LazyLoad___TMTimerR0Ptr:
  8190                                 %line 7209+1 /home/se170/VirtualBox-4.3.28/out/linux.amd64/debug/obj/VMMR3LazyImp/VMMR3LazyLoad.asm
  8191 00003B7E 488D057DE3FFFF          lea rax, [g_szTMTimerR0Ptr wrt rip]
  8192 00003B85 4C8D15(F2FFFFFF)        lea r10, [g_pfnTMTimerR0Ptr wrt rip]
  8193                                 %line 7217+1 /home/se170/VirtualBox-4.3.28/out/linux.amd64/debug/obj/VMMR3LazyImp/VMMR3LazyLoad.asm
  8194 00003B8C E84D050000              call LazyLoadResolver
  8195                                 %line 7221+1 /home/se170/VirtualBox-4.3.28/out/linux.amd64/debug/obj/VMMR3LazyImp/VMMR3LazyLoad.asm
  8196 00003B91 E9D3CEFFFF              jmp TMTimerR0Ptr
  8197                                 
  8198                                 ___LazyLoad___TMTimerR3Ptr:
  8199                                 %line 7225+1 /home/se170/VirtualBox-4.3.28/out/linux.amd64/debug/obj/VMMR3LazyImp/VMMR3LazyLoad.asm
  8200 00003B96 488D0572E3FFFF          lea rax, [g_szTMTimerR3Ptr wrt rip]
  8201 00003B9D 4C8D15(F2FFFFFF)        lea r10, [g_pfnTMTimerR3Ptr wrt rip]
  8202                                 %line 7233+1 /home/se170/VirtualBox-4.3.28/out/linux.amd64/debug/obj/VMMR3LazyImp/VMMR3LazyLoad.asm
  8203 00003BA4 E835050000              call LazyLoadResolver
  8204                                 %line 7237+1 /home/se170/VirtualBox-4.3.28/out/linux.amd64/debug/obj/VMMR3LazyImp/VMMR3LazyLoad.asm
  8205 00003BA9 E9C5CEFFFF              jmp TMTimerR3Ptr
  8206                                 
  8207                                 ___LazyLoad___TMTimerRCPtr:
  8208                                 %line 7241+1 /home/se170/VirtualBox-4.3.28/out/linux.amd64/debug/obj/VMMR3LazyImp/VMMR3LazyLoad.asm
  8209 00003BAE 488D0567E3FFFF          lea rax, [g_szTMTimerRCPtr wrt rip]
  8210 00003BB5 4C8D15(F2FFFFFF)        lea r10, [g_pfnTMTimerRCPtr wrt rip]
  8211                                 %line 7249+1 /home/se170/VirtualBox-4.3.28/out/linux.amd64/debug/obj/VMMR3LazyImp/VMMR3LazyLoad.asm
  8212 00003BBC E81D050000              call LazyLoadResolver
  8213                                 %line 7253+1 /home/se170/VirtualBox-4.3.28/out/linux.amd64/debug/obj/VMMR3LazyImp/VMMR3LazyLoad.asm
  8214 00003BC1 E9B7CEFFFF              jmp TMTimerRCPtr
  8215                                 
  8216                                 ___LazyLoad___TMTimerSet:
  8217                                 %line 7257+1 /home/se170/VirtualBox-4.3.28/out/linux.amd64/debug/obj/VMMR3LazyImp/VMMR3LazyLoad.asm
  8218 00003BC6 488D055CE3FFFF          lea rax, [g_szTMTimerSet wrt rip]
  8219 00003BCD 4C8D15(F2FFFFFF)        lea r10, [g_pfnTMTimerSet wrt rip]
  8220                                 %line 7265+1 /home/se170/VirtualBox-4.3.28/out/linux.amd64/debug/obj/VMMR3LazyImp/VMMR3LazyLoad.asm
  8221 00003BD4 E805050000              call LazyLoadResolver
  8222                                 %line 7269+1 /home/se170/VirtualBox-4.3.28/out/linux.amd64/debug/obj/VMMR3LazyImp/VMMR3LazyLoad.asm
  8223 00003BD9 E9A9CEFFFF              jmp TMTimerSet
  8224                                 
  8225                                 ___LazyLoad___TMTimerSetFrequencyHint:
  8226                                 %line 7273+1 /home/se170/VirtualBox-4.3.28/out/linux.amd64/debug/obj/VMMR3LazyImp/VMMR3LazyLoad.asm
  8227 00003BDE 488D054FE3FFFF          lea rax, [g_szTMTimerSetFrequencyHint wrt rip]
  8228 00003BE5 4C8D15(F2FFFFFF)        lea r10, [g_pfnTMTimerSetFrequencyHint wrt rip]
  8229                                 %line 7281+1 /home/se170/VirtualBox-4.3.28/out/linux.amd64/debug/obj/VMMR3LazyImp/VMMR3LazyLoad.asm
  8230 00003BEC E8ED040000              call LazyLoadResolver
  8231                                 %line 7285+1 /home/se170/VirtualBox-4.3.28/out/linux.amd64/debug/obj/VMMR3LazyImp/VMMR3LazyLoad.asm
  8232 00003BF1 E99BCEFFFF              jmp TMTimerSetFrequencyHint
  8233                                 
  8234                                 ___LazyLoad___TMTimerSetMicro:
  8235                                 %line 7289+1 /home/se170/VirtualBox-4.3.28/out/linux.amd64/debug/obj/VMMR3LazyImp/VMMR3LazyLoad.asm
  8236 00003BF6 488D054FE3FFFF          lea rax, [g_szTMTimerSetMicro wrt rip]
  8237 00003BFD 4C8D15(F2FFFFFF)        lea r10, [g_pfnTMTimerSetMicro wrt rip]
  8238                                 %line 7297+1 /home/se170/VirtualBox-4.3.28/out/linux.amd64/debug/obj/VMMR3LazyImp/VMMR3LazyLoad.asm
  8239 00003C04 E8D5040000              call LazyLoadResolver
  8240                                 %line 7301+1 /home/se170/VirtualBox-4.3.28/out/linux.amd64/debug/obj/VMMR3LazyImp/VMMR3LazyLoad.asm
  8241 00003C09 E98DCEFFFF              jmp TMTimerSetMicro
  8242                                 
  8243                                 ___LazyLoad___TMTimerSetMillies:
  8244                                 %line 7305+1 /home/se170/VirtualBox-4.3.28/out/linux.amd64/debug/obj/VMMR3LazyImp/VMMR3LazyLoad.asm
  8245 00003C0E 488D0547E3FFFF          lea rax, [g_szTMTimerSetMillies wrt rip]
  8246 00003C15 4C8D15(F2FFFFFF)        lea r10, [g_pfnTMTimerSetMillies wrt rip]
  8247                                 %line 7313+1 /home/se170/VirtualBox-4.3.28/out/linux.amd64/debug/obj/VMMR3LazyImp/VMMR3LazyLoad.asm
  8248 00003C1C E8BD040000              call LazyLoadResolver
  8249                                 %line 7317+1 /home/se170/VirtualBox-4.3.28/out/linux.amd64/debug/obj/VMMR3LazyImp/VMMR3LazyLoad.asm
  8250 00003C21 E97FCEFFFF              jmp TMTimerSetMillies
  8251                                 
  8252                                 ___LazyLoad___TMTimerSetNano:
  8253                                 %line 7321+1 /home/se170/VirtualBox-4.3.28/out/linux.amd64/debug/obj/VMMR3LazyImp/VMMR3LazyLoad.asm
  8254 00003C26 488D0541E3FFFF          lea rax, [g_szTMTimerSetNano wrt rip]
  8255 00003C2D 4C8D15(F2FFFFFF)        lea r10, [g_pfnTMTimerSetNano wrt rip]
  8256                                 %line 7329+1 /home/se170/VirtualBox-4.3.28/out/linux.amd64/debug/obj/VMMR3LazyImp/VMMR3LazyLoad.asm
  8257 00003C34 E8A5040000              call LazyLoadResolver
  8258                                 %line 7333+1 /home/se170/VirtualBox-4.3.28/out/linux.amd64/debug/obj/VMMR3LazyImp/VMMR3LazyLoad.asm
  8259 00003C39 E971CEFFFF              jmp TMTimerSetNano
  8260                                 
  8261                                 ___LazyLoad___TMTimerSetRelative:
  8262                                 %line 7337+1 /home/se170/VirtualBox-4.3.28/out/linux.amd64/debug/obj/VMMR3LazyImp/VMMR3LazyLoad.asm
  8263 00003C3E 488D0538E3FFFF          lea rax, [g_szTMTimerSetRelative wrt rip]
  8264 00003C45 4C8D15(F2FFFFFF)        lea r10, [g_pfnTMTimerSetRelative wrt rip]
  8265                                 %line 7345+1 /home/se170/VirtualBox-4.3.28/out/linux.amd64/debug/obj/VMMR3LazyImp/VMMR3LazyLoad.asm
  8266 00003C4C E88D040000              call LazyLoadResolver
  8267                                 %line 7349+1 /home/se170/VirtualBox-4.3.28/out/linux.amd64/debug/obj/VMMR3LazyImp/VMMR3LazyLoad.asm
  8268 00003C51 E963CEFFFF              jmp TMTimerSetRelative
  8269                                 
  8270                                 ___LazyLoad___TMTimerStop:
  8271                                 %line 7353+1 /home/se170/VirtualBox-4.3.28/out/linux.amd64/debug/obj/VMMR3LazyImp/VMMR3LazyLoad.asm
  8272 00003C56 488D0533E3FFFF          lea rax, [g_szTMTimerStop wrt rip]
  8273 00003C5D 4C8D15(F2FFFFFF)        lea r10, [g_pfnTMTimerStop wrt rip]
  8274                                 %line 7361+1 /home/se170/VirtualBox-4.3.28/out/linux.amd64/debug/obj/VMMR3LazyImp/VMMR3LazyLoad.asm
  8275 00003C64 E875040000              call LazyLoadResolver
  8276                                 %line 7365+1 /home/se170/VirtualBox-4.3.28/out/linux.amd64/debug/obj/VMMR3LazyImp/VMMR3LazyLoad.asm
  8277 00003C69 E955CEFFFF              jmp TMTimerStop
  8278                                 
  8279                                 ___LazyLoad___TMTimerToMicro:
  8280                                 %line 7369+1 /home/se170/VirtualBox-4.3.28/out/linux.amd64/debug/obj/VMMR3LazyImp/VMMR3LazyLoad.asm
  8281 00003C6E 488D0527E3FFFF          lea rax, [g_szTMTimerToMicro wrt rip]
  8282 00003C75 4C8D15(F2FFFFFF)        lea r10, [g_pfnTMTimerToMicro wrt rip]
  8283                                 %line 7377+1 /home/se170/VirtualBox-4.3.28/out/linux.amd64/debug/obj/VMMR3LazyImp/VMMR3LazyLoad.asm
  8284 00003C7C E85D040000              call LazyLoadResolver
  8285                                 %line 7381+1 /home/se170/VirtualBox-4.3.28/out/linux.amd64/debug/obj/VMMR3LazyImp/VMMR3LazyLoad.asm
  8286 00003C81 E947CEFFFF              jmp TMTimerToMicro
  8287                                 
  8288                                 ___LazyLoad___TMTimerToMilli:
  8289                                 %line 7385+1 /home/se170/VirtualBox-4.3.28/out/linux.amd64/debug/obj/VMMR3LazyImp/VMMR3LazyLoad.asm
  8290 00003C86 488D051EE3FFFF          lea rax, [g_szTMTimerToMilli wrt rip]
  8291 00003C8D 4C8D15(F2FFFFFF)        lea r10, [g_pfnTMTimerToMilli wrt rip]
  8292                                 %line 7393+1 /home/se170/VirtualBox-4.3.28/out/linux.amd64/debug/obj/VMMR3LazyImp/VMMR3LazyLoad.asm
  8293 00003C94 E845040000              call LazyLoadResolver
  8294                                 %line 7397+1 /home/se170/VirtualBox-4.3.28/out/linux.amd64/debug/obj/VMMR3LazyImp/VMMR3LazyLoad.asm
  8295 00003C99 E939CEFFFF              jmp TMTimerToMilli
  8296                                 
  8297                                 ___LazyLoad___TMTimerToNano:
  8298                                 %line 7401+1 /home/se170/VirtualBox-4.3.28/out/linux.amd64/debug/obj/VMMR3LazyImp/VMMR3LazyLoad.asm
  8299 00003C9E 488D0515E3FFFF          lea rax, [g_szTMTimerToNano wrt rip]
  8300 00003CA5 4C8D15(F2FFFFFF)        lea r10, [g_pfnTMTimerToNano wrt rip]
  8301                                 %line 7409+1 /home/se170/VirtualBox-4.3.28/out/linux.amd64/debug/obj/VMMR3LazyImp/VMMR3LazyLoad.asm
  8302 00003CAC E82D040000              call LazyLoadResolver
  8303                                 %line 7413+1 /home/se170/VirtualBox-4.3.28/out/linux.amd64/debug/obj/VMMR3LazyImp/VMMR3LazyLoad.asm
  8304 00003CB1 E92BCEFFFF              jmp TMTimerToNano
  8305                                 
  8306                                 ___LazyLoad___TMTimerUnlock:
  8307                                 %line 7417+1 /home/se170/VirtualBox-4.3.28/out/linux.amd64/debug/obj/VMMR3LazyImp/VMMR3LazyLoad.asm
  8308 00003CB6 488D050BE3FFFF          lea rax, [g_szTMTimerUnlock wrt rip]
  8309 00003CBD 4C8D15(F2FFFFFF)        lea r10, [g_pfnTMTimerUnlock wrt rip]
  8310                                 %line 7425+1 /home/se170/VirtualBox-4.3.28/out/linux.amd64/debug/obj/VMMR3LazyImp/VMMR3LazyLoad.asm
  8311 00003CC4 E815040000              call LazyLoadResolver
  8312                                 %line 7429+1 /home/se170/VirtualBox-4.3.28/out/linux.amd64/debug/obj/VMMR3LazyImp/VMMR3LazyLoad.asm
  8313 00003CC9 E91DCEFFFF              jmp TMTimerUnlock
  8314                                 
  8315                                 ___LazyLoad___TMR3GetWarpDrive:
  8316                                 %line 7433+1 /home/se170/VirtualBox-4.3.28/out/linux.amd64/debug/obj/VMMR3LazyImp/VMMR3LazyLoad.asm
  8317 00003CCE 488D0501E3FFFF          lea rax, [g_szTMR3GetWarpDrive wrt rip]
  8318 00003CD5 4C8D15(F2FFFFFF)        lea r10, [g_pfnTMR3GetWarpDrive wrt rip]
  8319                                 %line 7441+1 /home/se170/VirtualBox-4.3.28/out/linux.amd64/debug/obj/VMMR3LazyImp/VMMR3LazyLoad.asm
  8320 00003CDC E8FD030000              call LazyLoadResolver
  8321                                 %line 7445+1 /home/se170/VirtualBox-4.3.28/out/linux.amd64/debug/obj/VMMR3LazyImp/VMMR3LazyLoad.asm
  8322 00003CE1 E90FCEFFFF              jmp TMR3GetWarpDrive
  8323                                 
  8324                                 ___LazyLoad___TMR3SetWarpDrive:
  8325                                 %line 7449+1 /home/se170/VirtualBox-4.3.28/out/linux.amd64/debug/obj/VMMR3LazyImp/VMMR3LazyLoad.asm
  8326 00003CE6 488D05FAE2FFFF          lea rax, [g_szTMR3SetWarpDrive wrt rip]
  8327 00003CED 4C8D15(F2FFFFFF)        lea r10, [g_pfnTMR3SetWarpDrive wrt rip]
  8328                                 %line 7457+1 /home/se170/VirtualBox-4.3.28/out/linux.amd64/debug/obj/VMMR3LazyImp/VMMR3LazyLoad.asm
  8329 00003CF4 E8E5030000              call LazyLoadResolver
  8330                                 %line 7461+1 /home/se170/VirtualBox-4.3.28/out/linux.amd64/debug/obj/VMMR3LazyImp/VMMR3LazyLoad.asm
  8331 00003CF9 E901CEFFFF              jmp TMR3SetWarpDrive
  8332                                 
  8333                                 ___LazyLoad___VMMGetCpu:
  8334                                 %line 7465+1 /home/se170/VirtualBox-4.3.28/out/linux.amd64/debug/obj/VMMR3LazyImp/VMMR3LazyLoad.asm
  8335 00003CFE 488D05F3E2FFFF          lea rax, [g_szVMMGetCpu wrt rip]
  8336 00003D05 4C8D15(F2FFFFFF)        lea r10, [g_pfnVMMGetCpu wrt rip]
  8337                                 %line 7473+1 /home/se170/VirtualBox-4.3.28/out/linux.amd64/debug/obj/VMMR3LazyImp/VMMR3LazyLoad.asm
  8338 00003D0C E8CD030000              call LazyLoadResolver
  8339                                 %line 7477+1 /home/se170/VirtualBox-4.3.28/out/linux.amd64/debug/obj/VMMR3LazyImp/VMMR3LazyLoad.asm
  8340 00003D11 E9F3CDFFFF              jmp VMMGetCpu
  8341                                 
  8342                                 ___LazyLoad___VMMGetSvnRev:
  8343                                 %line 7481+1 /home/se170/VirtualBox-4.3.28/out/linux.amd64/debug/obj/VMMR3LazyImp/VMMR3LazyLoad.asm
  8344 00003D16 488D05E5E2FFFF          lea rax, [g_szVMMGetSvnRev wrt rip]
  8345 00003D1D 4C8D15(F2FFFFFF)        lea r10, [g_pfnVMMGetSvnRev wrt rip]
  8346                                 %line 7489+1 /home/se170/VirtualBox-4.3.28/out/linux.amd64/debug/obj/VMMR3LazyImp/VMMR3LazyLoad.asm
  8347 00003D24 E8B5030000              call LazyLoadResolver
  8348                                 %line 7493+1 /home/se170/VirtualBox-4.3.28/out/linux.amd64/debug/obj/VMMR3LazyImp/VMMR3LazyLoad.asm
  8349 00003D29 E9E5CDFFFF              jmp VMMGetSvnRev
  8350                                 
  8351                                 ___LazyLoad___VMSetError:
  8352                                 %line 7497+1 /home/se170/VirtualBox-4.3.28/out/linux.amd64/debug/obj/VMMR3LazyImp/VMMR3LazyLoad.asm
  8353 00003D2E 488D05DAE2FFFF          lea rax, [g_szVMSetError wrt rip]
  8354 00003D35 4C8D15(F2FFFFFF)        lea r10, [g_pfnVMSetError wrt rip]
  8355                                 %line 7505+1 /home/se170/VirtualBox-4.3.28/out/linux.amd64/debug/obj/VMMR3LazyImp/VMMR3LazyLoad.asm
  8356 00003D3C E89D030000              call LazyLoadResolver
  8357                                 %line 7509+1 /home/se170/VirtualBox-4.3.28/out/linux.amd64/debug/obj/VMMR3LazyImp/VMMR3LazyLoad.asm
  8358 00003D41 E9D7CDFFFF              jmp VMSetError
  8359                                 
  8360                                 ___LazyLoad___VMSetErrorV:
  8361                                 %line 7513+1 /home/se170/VirtualBox-4.3.28/out/linux.amd64/debug/obj/VMMR3LazyImp/VMMR3LazyLoad.asm
  8362 00003D46 488D05CDE2FFFF          lea rax, [g_szVMSetErrorV wrt rip]
  8363 00003D4D 4C8D15(F2FFFFFF)        lea r10, [g_pfnVMSetErrorV wrt rip]
  8364                                 %line 7521+1 /home/se170/VirtualBox-4.3.28/out/linux.amd64/debug/obj/VMMR3LazyImp/VMMR3LazyLoad.asm
  8365 00003D54 E885030000              call LazyLoadResolver
  8366                                 %line 7525+1 /home/se170/VirtualBox-4.3.28/out/linux.amd64/debug/obj/VMMR3LazyImp/VMMR3LazyLoad.asm
  8367 00003D59 E9C9CDFFFF              jmp VMSetErrorV
  8368                                 
  8369                                 ___LazyLoad___VMR3AtErrorDeregister:
  8370                                 %line 7529+1 /home/se170/VirtualBox-4.3.28/out/linux.amd64/debug/obj/VMMR3LazyImp/VMMR3LazyLoad.asm
  8371 00003D5E 488D05C1E2FFFF          lea rax, [g_szVMR3AtErrorDeregister wrt rip]
  8372 00003D65 4C8D15(F2FFFFFF)        lea r10, [g_pfnVMR3AtErrorDeregister wrt rip]
  8373                                 %line 7537+1 /home/se170/VirtualBox-4.3.28/out/linux.amd64/debug/obj/VMMR3LazyImp/VMMR3LazyLoad.asm
  8374 00003D6C E86D030000              call LazyLoadResolver
  8375                                 %line 7541+1 /home/se170/VirtualBox-4.3.28/out/linux.amd64/debug/obj/VMMR3LazyImp/VMMR3LazyLoad.asm
  8376 00003D71 E9BBCDFFFF              jmp VMR3AtErrorDeregister
  8377                                 
  8378                                 ___LazyLoad___VMR3AtErrorRegister:
  8379                                 %line 7545+1 /home/se170/VirtualBox-4.3.28/out/linux.amd64/debug/obj/VMMR3LazyImp/VMMR3LazyLoad.asm
  8380 00003D76 488D05BFE2FFFF          lea rax, [g_szVMR3AtErrorRegister wrt rip]
  8381 00003D7D 4C8D15(F2FFFFFF)        lea r10, [g_pfnVMR3AtErrorRegister wrt rip]
  8382                                 %line 7553+1 /home/se170/VirtualBox-4.3.28/out/linux.amd64/debug/obj/VMMR3LazyImp/VMMR3LazyLoad.asm
  8383 00003D84 E855030000              call LazyLoadResolver
  8384                                 %line 7557+1 /home/se170/VirtualBox-4.3.28/out/linux.amd64/debug/obj/VMMR3LazyImp/VMMR3LazyLoad.asm
  8385 00003D89 E9ADCDFFFF              jmp VMR3AtErrorRegister
  8386                                 
  8387                                 ___LazyLoad___VMR3AtRuntimeErrorRegister:
  8388                                 %line 7561+1 /home/se170/VirtualBox-4.3.28/out/linux.amd64/debug/obj/VMMR3LazyImp/VMMR3LazyLoad.asm
  8389 00003D8E 488D05BBE2FFFF          lea rax, [g_szVMR3AtRuntimeErrorRegister wrt rip]
  8390 00003D95 4C8D15(F2FFFFFF)        lea r10, [g_pfnVMR3AtRuntimeErrorRegister wrt rip]
  8391                                 %line 7569+1 /home/se170/VirtualBox-4.3.28/out/linux.amd64/debug/obj/VMMR3LazyImp/VMMR3LazyLoad.asm
  8392 00003D9C E83D030000              call LazyLoadResolver
  8393                                 %line 7573+1 /home/se170/VirtualBox-4.3.28/out/linux.amd64/debug/obj/VMMR3LazyImp/VMMR3LazyLoad.asm
  8394 00003DA1 E99FCDFFFF              jmp VMR3AtRuntimeErrorRegister
  8395                                 
  8396                                 ___LazyLoad___VMR3AtStateRegister:
  8397                                 %line 7577+1 /home/se170/VirtualBox-4.3.28/out/linux.amd64/debug/obj/VMMR3LazyImp/VMMR3LazyLoad.asm
  8398 00003DA6 488D05BEE2FFFF          lea rax, [g_szVMR3AtStateRegister wrt rip]
  8399 00003DAD 4C8D15(F2FFFFFF)        lea r10, [g_pfnVMR3AtStateRegister wrt rip]
  8400                                 %line 7585+1 /home/se170/VirtualBox-4.3.28/out/linux.amd64/debug/obj/VMMR3LazyImp/VMMR3LazyLoad.asm
  8401 00003DB4 E825030000              call LazyLoadResolver
  8402                                 %line 7589+1 /home/se170/VirtualBox-4.3.28/out/linux.amd64/debug/obj/VMMR3LazyImp/VMMR3LazyLoad.asm
  8403 00003DB9 E991CDFFFF              jmp VMR3AtStateRegister
  8404                                 
  8405                                 ___LazyLoad___VMR3Create:
  8406                                 %line 7593+1 /home/se170/VirtualBox-4.3.28/out/linux.amd64/debug/obj/VMMR3LazyImp/VMMR3LazyLoad.asm
  8407 00003DBE 488D05BAE2FFFF          lea rax, [g_szVMR3Create wrt rip]
  8408 00003DC5 4C8D15(F2FFFFFF)        lea r10, [g_pfnVMR3Create wrt rip]
  8409                                 %line 7601+1 /home/se170/VirtualBox-4.3.28/out/linux.amd64/debug/obj/VMMR3LazyImp/VMMR3LazyLoad.asm
  8410 00003DCC E80D030000              call LazyLoadResolver
  8411                                 %line 7605+1 /home/se170/VirtualBox-4.3.28/out/linux.amd64/debug/obj/VMMR3LazyImp/VMMR3LazyLoad.asm
  8412 00003DD1 E983CDFFFF              jmp VMR3Create
  8413                                 
  8414                                 ___LazyLoad___VMR3Destroy:
  8415                                 %line 7609+1 /home/se170/VirtualBox-4.3.28/out/linux.amd64/debug/obj/VMMR3LazyImp/VMMR3LazyLoad.asm
  8416 00003DD6 488D05ADE2FFFF          lea rax, [g_szVMR3Destroy wrt rip]
  8417 00003DDD 4C8D15(F2FFFFFF)        lea r10, [g_pfnVMR3Destroy wrt rip]
  8418                                 %line 7617+1 /home/se170/VirtualBox-4.3.28/out/linux.amd64/debug/obj/VMMR3LazyImp/VMMR3LazyLoad.asm
  8419 00003DE4 E8F5020000              call LazyLoadResolver
  8420                                 %line 7621+1 /home/se170/VirtualBox-4.3.28/out/linux.amd64/debug/obj/VMMR3LazyImp/VMMR3LazyLoad.asm
  8421 00003DE9 E975CDFFFF              jmp VMR3Destroy
  8422                                 
  8423                                 ___LazyLoad___VMR3GetCpuCoreAndPackageIdFromCpuId:
  8424                                 %line 7625+1 /home/se170/VirtualBox-4.3.28/out/linux.amd64/debug/obj/VMMR3LazyImp/VMMR3LazyLoad.asm
  8425 00003DEE 488D05A1E2FFFF          lea rax, [g_szVMR3GetCpuCoreAndPackageIdFromCpuId wrt rip]
  8426 00003DF5 4C8D15(F2FFFFFF)        lea r10, [g_pfnVMR3GetCpuCoreAndPackageIdFromCpuId wrt rip]
  8427                                 %line 7633+1 /home/se170/VirtualBox-4.3.28/out/linux.amd64/debug/obj/VMMR3LazyImp/VMMR3LazyLoad.asm
  8428 00003DFC E8DD020000              call LazyLoadResolver
  8429                                 %line 7637+1 /home/se170/VirtualBox-4.3.28/out/linux.amd64/debug/obj/VMMR3LazyImp/VMMR3LazyLoad.asm
  8430 00003E01 E967CDFFFF              jmp VMR3GetCpuCoreAndPackageIdFromCpuId
  8431                                 
  8432                                 ___LazyLoad___VMR3GetStateName:
  8433                                 %line 7641+1 /home/se170/VirtualBox-4.3.28/out/linux.amd64/debug/obj/VMMR3LazyImp/VMMR3LazyLoad.asm
  8434 00003E06 488D05ADE2FFFF          lea rax, [g_szVMR3GetStateName wrt rip]
  8435 00003E0D 4C8D15(F2FFFFFF)        lea r10, [g_pfnVMR3GetStateName wrt rip]
  8436                                 %line 7649+1 /home/se170/VirtualBox-4.3.28/out/linux.amd64/debug/obj/VMMR3LazyImp/VMMR3LazyLoad.asm
  8437 00003E14 E8C5020000              call LazyLoadResolver
  8438                                 %line 7653+1 /home/se170/VirtualBox-4.3.28/out/linux.amd64/debug/obj/VMMR3LazyImp/VMMR3LazyLoad.asm
  8439 00003E19 E959CDFFFF              jmp VMR3GetStateName
  8440                                 
  8441                                 ___LazyLoad___VMR3GetStateU:
  8442                                 %line 7657+1 /home/se170/VirtualBox-4.3.28/out/linux.amd64/debug/obj/VMMR3LazyImp/VMMR3LazyLoad.asm
  8443 00003E1E 488D05A6E2FFFF          lea rax, [g_szVMR3GetStateU wrt rip]
  8444 00003E25 4C8D15(F2FFFFFF)        lea r10, [g_pfnVMR3GetStateU wrt rip]
  8445                                 %line 7665+1 /home/se170/VirtualBox-4.3.28/out/linux.amd64/debug/obj/VMMR3LazyImp/VMMR3LazyLoad.asm
  8446 00003E2C E8AD020000              call LazyLoadResolver
  8447                                 %line 7669+1 /home/se170/VirtualBox-4.3.28/out/linux.amd64/debug/obj/VMMR3LazyImp/VMMR3LazyLoad.asm
  8448 00003E31 E94BCDFFFF              jmp VMR3GetStateU
  8449                                 
  8450                                 ___LazyLoad___VMR3GetVM:
  8451                                 %line 7673+1 /home/se170/VirtualBox-4.3.28/out/linux.amd64/debug/obj/VMMR3LazyImp/VMMR3LazyLoad.asm
  8452 00003E36 488D059CE2FFFF          lea rax, [g_szVMR3GetVM wrt rip]
  8453 00003E3D 4C8D15(F2FFFFFF)        lea r10, [g_pfnVMR3GetVM wrt rip]
  8454                                 %line 7681+1 /home/se170/VirtualBox-4.3.28/out/linux.amd64/debug/obj/VMMR3LazyImp/VMMR3LazyLoad.asm
  8455 00003E44 E895020000              call LazyLoadResolver
  8456                                 %line 7685+1 /home/se170/VirtualBox-4.3.28/out/linux.amd64/debug/obj/VMMR3LazyImp/VMMR3LazyLoad.asm
  8457 00003E49 E93DCDFFFF              jmp VMR3GetVM
  8458                                 
  8459                                 ___LazyLoad___VMR3HotPlugCpu:
  8460                                 %line 7689+1 /home/se170/VirtualBox-4.3.28/out/linux.amd64/debug/obj/VMMR3LazyImp/VMMR3LazyLoad.asm
  8461 00003E4E 488D058EE2FFFF          lea rax, [g_szVMR3HotPlugCpu wrt rip]
  8462 00003E55 4C8D15(F2FFFFFF)        lea r10, [g_pfnVMR3HotPlugCpu wrt rip]
  8463                                 %line 7697+1 /home/se170/VirtualBox-4.3.28/out/linux.amd64/debug/obj/VMMR3LazyImp/VMMR3LazyLoad.asm
  8464 00003E5C E87D020000              call LazyLoadResolver
  8465                                 %line 7701+1 /home/se170/VirtualBox-4.3.28/out/linux.amd64/debug/obj/VMMR3LazyImp/VMMR3LazyLoad.asm
  8466 00003E61 E92FCDFFFF              jmp VMR3HotPlugCpu
  8467                                 
  8468                                 ___LazyLoad___VMR3HotUnplugCpu:
  8469                                 %line 7705+1 /home/se170/VirtualBox-4.3.28/out/linux.amd64/debug/obj/VMMR3LazyImp/VMMR3LazyLoad.asm
  8470 00003E66 488D0585E2FFFF          lea rax, [g_szVMR3HotUnplugCpu wrt rip]
  8471 00003E6D 4C8D15(F2FFFFFF)        lea r10, [g_pfnVMR3HotUnplugCpu wrt rip]
  8472                                 %line 7713+1 /home/se170/VirtualBox-4.3.28/out/linux.amd64/debug/obj/VMMR3LazyImp/VMMR3LazyLoad.asm
  8473 00003E74 E865020000              call LazyLoadResolver
  8474                                 %line 7717+1 /home/se170/VirtualBox-4.3.28/out/linux.amd64/debug/obj/VMMR3LazyImp/VMMR3LazyLoad.asm
  8475 00003E79 E921CDFFFF              jmp VMR3HotUnplugCpu
  8476                                 
  8477                                 ___LazyLoad___VMR3LoadFromFile:
  8478                                 %line 7721+1 /home/se170/VirtualBox-4.3.28/out/linux.amd64/debug/obj/VMMR3LazyImp/VMMR3LazyLoad.asm
  8479 00003E7E 488D057EE2FFFF          lea rax, [g_szVMR3LoadFromFile wrt rip]
  8480 00003E85 4C8D15(F2FFFFFF)        lea r10, [g_pfnVMR3LoadFromFile wrt rip]
  8481                                 %line 7729+1 /home/se170/VirtualBox-4.3.28/out/linux.amd64/debug/obj/VMMR3LazyImp/VMMR3LazyLoad.asm
  8482 00003E8C E84D020000              call LazyLoadResolver
  8483                                 %line 7733+1 /home/se170/VirtualBox-4.3.28/out/linux.amd64/debug/obj/VMMR3LazyImp/VMMR3LazyLoad.asm
  8484 00003E91 E913CDFFFF              jmp VMR3LoadFromFile
  8485                                 
  8486                                 ___LazyLoad___VMR3LoadFromStream:
  8487                                 %line 7737+1 /home/se170/VirtualBox-4.3.28/out/linux.amd64/debug/obj/VMMR3LazyImp/VMMR3LazyLoad.asm
  8488 00003E96 488D0577E2FFFF          lea rax, [g_szVMR3LoadFromStream wrt rip]
  8489 00003E9D 4C8D15(F2FFFFFF)        lea r10, [g_pfnVMR3LoadFromStream wrt rip]
  8490                                 %line 7745+1 /home/se170/VirtualBox-4.3.28/out/linux.amd64/debug/obj/VMMR3LazyImp/VMMR3LazyLoad.asm
  8491 00003EA4 E835020000              call LazyLoadResolver
  8492                                 %line 7749+1 /home/se170/VirtualBox-4.3.28/out/linux.amd64/debug/obj/VMMR3LazyImp/VMMR3LazyLoad.asm
  8493 00003EA9 E905CDFFFF              jmp VMR3LoadFromStream
  8494                                 
  8495                                 ___LazyLoad___VMR3PowerOff:
  8496                                 %line 7753+1 /home/se170/VirtualBox-4.3.28/out/linux.amd64/debug/obj/VMMR3LazyImp/VMMR3LazyLoad.asm
  8497 00003EAE 488D0572E2FFFF          lea rax, [g_szVMR3PowerOff wrt rip]
  8498 00003EB5 4C8D15(F2FFFFFF)        lea r10, [g_pfnVMR3PowerOff wrt rip]
  8499                                 %line 7761+1 /home/se170/VirtualBox-4.3.28/out/linux.amd64/debug/obj/VMMR3LazyImp/VMMR3LazyLoad.asm
  8500 00003EBC E81D020000              call LazyLoadResolver
  8501                                 %line 7765+1 /home/se170/VirtualBox-4.3.28/out/linux.amd64/debug/obj/VMMR3LazyImp/VMMR3LazyLoad.asm
  8502 00003EC1 E9F7CCFFFF              jmp VMR3PowerOff
  8503                                 
  8504                                 ___LazyLoad___VMR3PowerOn:
  8505                                 %line 7769+1 /home/se170/VirtualBox-4.3.28/out/linux.amd64/debug/obj/VMMR3LazyImp/VMMR3LazyLoad.asm
  8506 00003EC6 488D0567E2FFFF          lea rax, [g_szVMR3PowerOn wrt rip]
  8507 00003ECD 4C8D15(F2FFFFFF)        lea r10, [g_pfnVMR3PowerOn wrt rip]
  8508                                 %line 7777+1 /home/se170/VirtualBox-4.3.28/out/linux.amd64/debug/obj/VMMR3LazyImp/VMMR3LazyLoad.asm
  8509 00003ED4 E805020000              call LazyLoadResolver
  8510                                 %line 7781+1 /home/se170/VirtualBox-4.3.28/out/linux.amd64/debug/obj/VMMR3LazyImp/VMMR3LazyLoad.asm
  8511 00003ED9 E9E9CCFFFF              jmp VMR3PowerOn
  8512                                 
  8513                                 ___LazyLoad___VMR3ReleaseUVM:
  8514                                 %line 7785+1 /home/se170/VirtualBox-4.3.28/out/linux.amd64/debug/obj/VMMR3LazyImp/VMMR3LazyLoad.asm
  8515 00003EDE 488D055BE2FFFF          lea rax, [g_szVMR3ReleaseUVM wrt rip]
  8516 00003EE5 4C8D15(F2FFFFFF)        lea r10, [g_pfnVMR3ReleaseUVM wrt rip]
  8517                                 %line 7793+1 /home/se170/VirtualBox-4.3.28/out/linux.amd64/debug/obj/VMMR3LazyImp/VMMR3LazyLoad.asm
  8518 00003EEC E8ED010000              call LazyLoadResolver
  8519                                 %line 7797+1 /home/se170/VirtualBox-4.3.28/out/linux.amd64/debug/obj/VMMR3LazyImp/VMMR3LazyLoad.asm
  8520 00003EF1 E9DBCCFFFF              jmp VMR3ReleaseUVM
  8521                                 
  8522                                 ___LazyLoad___VMR3ReqCallNoWaitU:
  8523                                 %line 7801+1 /home/se170/VirtualBox-4.3.28/out/linux.amd64/debug/obj/VMMR3LazyImp/VMMR3LazyLoad.asm
  8524 00003EF6 488D0552E2FFFF          lea rax, [g_szVMR3ReqCallNoWaitU wrt rip]
  8525 00003EFD 4C8D15(F2FFFFFF)        lea r10, [g_pfnVMR3ReqCallNoWaitU wrt rip]
  8526                                 %line 7809+1 /home/se170/VirtualBox-4.3.28/out/linux.amd64/debug/obj/VMMR3LazyImp/VMMR3LazyLoad.asm
  8527 00003F04 E8D5010000              call LazyLoadResolver
  8528                                 %line 7813+1 /home/se170/VirtualBox-4.3.28/out/linux.amd64/debug/obj/VMMR3LazyImp/VMMR3LazyLoad.asm
  8529 00003F09 E9CDCCFFFF              jmp VMR3ReqCallNoWaitU
  8530                                 
  8531                                 ___LazyLoad___VMR3ReqCallU:
  8532                                 %line 7817+1 /home/se170/VirtualBox-4.3.28/out/linux.amd64/debug/obj/VMMR3LazyImp/VMMR3LazyLoad.asm
  8533 00003F0E 488D054DE2FFFF          lea rax, [g_szVMR3ReqCallU wrt rip]
  8534 00003F15 4C8D15(F2FFFFFF)        lea r10, [g_pfnVMR3ReqCallU wrt rip]
  8535                                 %line 7825+1 /home/se170/VirtualBox-4.3.28/out/linux.amd64/debug/obj/VMMR3LazyImp/VMMR3LazyLoad.asm
  8536 00003F1C E8BD010000              call LazyLoadResolver
  8537                                 %line 7829+1 /home/se170/VirtualBox-4.3.28/out/linux.amd64/debug/obj/VMMR3LazyImp/VMMR3LazyLoad.asm
  8538 00003F21 E9BFCCFFFF              jmp VMR3ReqCallU
  8539                                 
  8540                                 ___LazyLoad___VMR3ReqCallVoidWaitU:
  8541                                 %line 7833+1 /home/se170/VirtualBox-4.3.28/out/linux.amd64/debug/obj/VMMR3LazyImp/VMMR3LazyLoad.asm
  8542 00003F26 488D0542E2FFFF          lea rax, [g_szVMR3ReqCallVoidWaitU wrt rip]
  8543 00003F2D 4C8D15(F2FFFFFF)        lea r10, [g_pfnVMR3ReqCallVoidWaitU wrt rip]
  8544                                 %line 7841+1 /home/se170/VirtualBox-4.3.28/out/linux.amd64/debug/obj/VMMR3LazyImp/VMMR3LazyLoad.asm
  8545 00003F34 E8A5010000              call LazyLoadResolver
  8546                                 %line 7845+1 /home/se170/VirtualBox-4.3.28/out/linux.amd64/debug/obj/VMMR3LazyImp/VMMR3LazyLoad.asm
  8547 00003F39 E9B1CCFFFF              jmp VMR3ReqCallVoidWaitU
  8548                                 
  8549                                 ___LazyLoad___VMR3ReqCallWaitU:
  8550                                 %line 7849+1 /home/se170/VirtualBox-4.3.28/out/linux.amd64/debug/obj/VMMR3LazyImp/VMMR3LazyLoad.asm
  8551 00003F3E 488D053FE2FFFF          lea rax, [g_szVMR3ReqCallWaitU wrt rip]
  8552 00003F45 4C8D15(F2FFFFFF)        lea r10, [g_pfnVMR3ReqCallWaitU wrt rip]
  8553                                 %line 7857+1 /home/se170/VirtualBox-4.3.28/out/linux.amd64/debug/obj/VMMR3LazyImp/VMMR3LazyLoad.asm
  8554 00003F4C E88D010000              call LazyLoadResolver
  8555                                 %line 7861+1 /home/se170/VirtualBox-4.3.28/out/linux.amd64/debug/obj/VMMR3LazyImp/VMMR3LazyLoad.asm
  8556 00003F51 E9A3CCFFFF              jmp VMR3ReqCallWaitU
  8557                                 
  8558                                 ___LazyLoad___VMR3ReqFree:
  8559                                 %line 7865+1 /home/se170/VirtualBox-4.3.28/out/linux.amd64/debug/obj/VMMR3LazyImp/VMMR3LazyLoad.asm
  8560 00003F56 488D0538E2FFFF          lea rax, [g_szVMR3ReqFree wrt rip]
  8561 00003F5D 4C8D15(F2FFFFFF)        lea r10, [g_pfnVMR3ReqFree wrt rip]
  8562                                 %line 7873+1 /home/se170/VirtualBox-4.3.28/out/linux.amd64/debug/obj/VMMR3LazyImp/VMMR3LazyLoad.asm
  8563 00003F64 E875010000              call LazyLoadResolver
  8564                                 %line 7877+1 /home/se170/VirtualBox-4.3.28/out/linux.amd64/debug/obj/VMMR3LazyImp/VMMR3LazyLoad.asm
  8565 00003F69 E995CCFFFF              jmp VMR3ReqFree
  8566                                 
  8567                                 ___LazyLoad___VMR3ReqPriorityCallWaitU:
  8568                                 %line 7881+1 /home/se170/VirtualBox-4.3.28/out/linux.amd64/debug/obj/VMMR3LazyImp/VMMR3LazyLoad.asm
  8569 00003F6E 488D052CE2FFFF          lea rax, [g_szVMR3ReqPriorityCallWaitU wrt rip]
  8570 00003F75 4C8D15(F2FFFFFF)        lea r10, [g_pfnVMR3ReqPriorityCallWaitU wrt rip]
  8571                                 %line 7889+1 /home/se170/VirtualBox-4.3.28/out/linux.amd64/debug/obj/VMMR3LazyImp/VMMR3LazyLoad.asm
  8572 00003F7C E85D010000              call LazyLoadResolver
  8573                                 %line 7893+1 /home/se170/VirtualBox-4.3.28/out/linux.amd64/debug/obj/VMMR3LazyImp/VMMR3LazyLoad.asm
  8574 00003F81 E987CCFFFF              jmp VMR3ReqPriorityCallWaitU
  8575                                 
  8576                                 ___LazyLoad___VMR3ReqWait:
  8577                                 %line 7897+1 /home/se170/VirtualBox-4.3.28/out/linux.amd64/debug/obj/VMMR3LazyImp/VMMR3LazyLoad.asm
  8578 00003F86 488D052DE2FFFF          lea rax, [g_szVMR3ReqWait wrt rip]
  8579 00003F8D 4C8D15(F2FFFFFF)        lea r10, [g_pfnVMR3ReqWait wrt rip]
  8580                                 %line 7905+1 /home/se170/VirtualBox-4.3.28/out/linux.amd64/debug/obj/VMMR3LazyImp/VMMR3LazyLoad.asm
  8581 00003F94 E845010000              call LazyLoadResolver
  8582                                 %line 7909+1 /home/se170/VirtualBox-4.3.28/out/linux.amd64/debug/obj/VMMR3LazyImp/VMMR3LazyLoad.asm
  8583 00003F99 E979CCFFFF              jmp VMR3ReqWait
  8584                                 
  8585                                 ___LazyLoad___VMR3Reset:
  8586                                 %line 7913+1 /home/se170/VirtualBox-4.3.28/out/linux.amd64/debug/obj/VMMR3LazyImp/VMMR3LazyLoad.asm
  8587 00003F9E 488D0521E2FFFF          lea rax, [g_szVMR3Reset wrt rip]
  8588 00003FA5 4C8D15(F2FFFFFF)        lea r10, [g_pfnVMR3Reset wrt rip]
  8589                                 %line 7921+1 /home/se170/VirtualBox-4.3.28/out/linux.amd64/debug/obj/VMMR3LazyImp/VMMR3LazyLoad.asm
  8590 00003FAC E82D010000              call LazyLoadResolver
  8591                                 %line 7925+1 /home/se170/VirtualBox-4.3.28/out/linux.amd64/debug/obj/VMMR3LazyImp/VMMR3LazyLoad.asm
  8592 00003FB1 E96BCCFFFF              jmp VMR3Reset
  8593                                 
  8594                                 ___LazyLoad___VMR3Resume:
  8595                                 %line 7929+1 /home/se170/VirtualBox-4.3.28/out/linux.amd64/debug/obj/VMMR3LazyImp/VMMR3LazyLoad.asm
  8596 00003FB6 488D0513E2FFFF          lea rax, [g_szVMR3Resume wrt rip]
  8597 00003FBD 4C8D15(F2FFFFFF)        lea r10, [g_pfnVMR3Resume wrt rip]
  8598                                 %line 7937+1 /home/se170/VirtualBox-4.3.28/out/linux.amd64/debug/obj/VMMR3LazyImp/VMMR3LazyLoad.asm
  8599 00003FC4 E815010000              call LazyLoadResolver
  8600                                 %line 7941+1 /home/se170/VirtualBox-4.3.28/out/linux.amd64/debug/obj/VMMR3LazyImp/VMMR3LazyLoad.asm
  8601 00003FC9 E95DCCFFFF              jmp VMR3Resume
  8602                                 
  8603                                 ___LazyLoad___VMR3RetainUVM:
  8604                                 %line 7945+1 /home/se170/VirtualBox-4.3.28/out/linux.amd64/debug/obj/VMMR3LazyImp/VMMR3LazyLoad.asm
  8605 00003FCE 488D0506E2FFFF          lea rax, [g_szVMR3RetainUVM wrt rip]
  8606 00003FD5 4C8D15(F2FFFFFF)        lea r10, [g_pfnVMR3RetainUVM wrt rip]
  8607                                 %line 7953+1 /home/se170/VirtualBox-4.3.28/out/linux.amd64/debug/obj/VMMR3LazyImp/VMMR3LazyLoad.asm
  8608 00003FDC E8FD000000              call LazyLoadResolver
  8609                                 %line 7957+1 /home/se170/VirtualBox-4.3.28/out/linux.amd64/debug/obj/VMMR3LazyImp/VMMR3LazyLoad.asm
  8610 00003FE1 E94FCCFFFF              jmp VMR3RetainUVM
  8611                                 
  8612                                 ___LazyLoad___VMR3Save:
  8613                                 %line 7961+1 /home/se170/VirtualBox-4.3.28/out/linux.amd64/debug/obj/VMMR3LazyImp/VMMR3LazyLoad.asm
  8614 00003FE6 488D05FCE1FFFF          lea rax, [g_szVMR3Save wrt rip]
  8615 00003FED 4C8D15(F2FFFFFF)        lea r10, [g_pfnVMR3Save wrt rip]
  8616                                 %line 7969+1 /home/se170/VirtualBox-4.3.28/out/linux.amd64/debug/obj/VMMR3LazyImp/VMMR3LazyLoad.asm
  8617 00003FF4 E8E5000000              call LazyLoadResolver
  8618                                 %line 7973+1 /home/se170/VirtualBox-4.3.28/out/linux.amd64/debug/obj/VMMR3LazyImp/VMMR3LazyLoad.asm
  8619 00003FF9 E941CCFFFF              jmp VMR3Save
  8620                                 
  8621                                 ___LazyLoad___VMR3SetCpuExecutionCap:
  8622                                 %line 7977+1 /home/se170/VirtualBox-4.3.28/out/linux.amd64/debug/obj/VMMR3LazyImp/VMMR3LazyLoad.asm
  8623 00003FFE 488D05EDE1FFFF          lea rax, [g_szVMR3SetCpuExecutionCap wrt rip]
  8624 00004005 4C8D15(F2FFFFFF)        lea r10, [g_pfnVMR3SetCpuExecutionCap wrt rip]
  8625                                 %line 7985+1 /home/se170/VirtualBox-4.3.28/out/linux.amd64/debug/obj/VMMR3LazyImp/VMMR3LazyLoad.asm
  8626 0000400C E8CD000000              call LazyLoadResolver
  8627                                 %line 7989+1 /home/se170/VirtualBox-4.3.28/out/linux.amd64/debug/obj/VMMR3LazyImp/VMMR3LazyLoad.asm
  8628 00004011 E933CCFFFF              jmp VMR3SetCpuExecutionCap
  8629                                 
  8630                                 ___LazyLoad___VMR3SetError:
  8631                                 %line 7993+1 /home/se170/VirtualBox-4.3.28/out/linux.amd64/debug/obj/VMMR3LazyImp/VMMR3LazyLoad.asm
  8632 00004016 488D05ECE1FFFF          lea rax, [g_szVMR3SetError wrt rip]
  8633 0000401D 4C8D15(F2FFFFFF)        lea r10, [g_pfnVMR3SetError wrt rip]
  8634                                 %line 8001+1 /home/se170/VirtualBox-4.3.28/out/linux.amd64/debug/obj/VMMR3LazyImp/VMMR3LazyLoad.asm
  8635 00004024 E8B5000000              call LazyLoadResolver
  8636                                 %line 8005+1 /home/se170/VirtualBox-4.3.28/out/linux.amd64/debug/obj/VMMR3LazyImp/VMMR3LazyLoad.asm
  8637 00004029 E925CCFFFF              jmp VMR3SetError
  8638                                 
  8639                                 ___LazyLoad___VMR3SetPowerOffInsteadOfReset:
  8640                                 %line 8009+1 /home/se170/VirtualBox-4.3.28/out/linux.amd64/debug/obj/VMMR3LazyImp/VMMR3LazyLoad.asm
  8641 0000402E 488D05E1E1FFFF          lea rax, [g_szVMR3SetPowerOffInsteadOfReset wrt rip]
  8642 00004035 4C8D15(F2FFFFFF)        lea r10, [g_pfnVMR3SetPowerOffInsteadOfReset wrt rip]
  8643                                 %line 8017+1 /home/se170/VirtualBox-4.3.28/out/linux.amd64/debug/obj/VMMR3LazyImp/VMMR3LazyLoad.asm
  8644 0000403C E89D000000              call LazyLoadResolver
  8645                                 %line 8021+1 /home/se170/VirtualBox-4.3.28/out/linux.amd64/debug/obj/VMMR3LazyImp/VMMR3LazyLoad.asm
  8646 00004041 E917CCFFFF              jmp VMR3SetPowerOffInsteadOfReset
  8647                                 
  8648                                 ___LazyLoad___VMR3Suspend:
  8649                                 %line 8025+1 /home/se170/VirtualBox-4.3.28/out/linux.amd64/debug/obj/VMMR3LazyImp/VMMR3LazyLoad.asm
  8650 00004046 488D05E7E1FFFF          lea rax, [g_szVMR3Suspend wrt rip]
  8651 0000404D 4C8D15(F2FFFFFF)        lea r10, [g_pfnVMR3Suspend wrt rip]
  8652                                 %line 8033+1 /home/se170/VirtualBox-4.3.28/out/linux.amd64/debug/obj/VMMR3LazyImp/VMMR3LazyLoad.asm
  8653 00004054 E885000000              call LazyLoadResolver
  8654                                 %line 8037+1 /home/se170/VirtualBox-4.3.28/out/linux.amd64/debug/obj/VMMR3LazyImp/VMMR3LazyLoad.asm
  8655 00004059 E909CCFFFF              jmp VMR3Suspend
  8656                                 
  8657                                 ___LazyLoad___VMR3Teleport:
  8658                                 %line 8041+1 /home/se170/VirtualBox-4.3.28/out/linux.amd64/debug/obj/VMMR3LazyImp/VMMR3LazyLoad.asm
  8659 0000405E 488D05DBE1FFFF          lea rax, [g_szVMR3Teleport wrt rip]
  8660 00004065 4C8D15(F2FFFFFF)        lea r10, [g_pfnVMR3Teleport wrt rip]
  8661                                 %line 8049+1 /home/se170/VirtualBox-4.3.28/out/linux.amd64/debug/obj/VMMR3LazyImp/VMMR3LazyLoad.asm
  8662 0000406C E86D000000              call LazyLoadResolver
  8663                                 %line 8053+1 /home/se170/VirtualBox-4.3.28/out/linux.amd64/debug/obj/VMMR3LazyImp/VMMR3LazyLoad.asm
  8664 00004071 E9FBCBFFFF              jmp VMR3Teleport
  8665                                 
  8666                                 ___LazyLoad___VMR3AtStateDeregister:
  8667                                 %line 8057+1 /home/se170/VirtualBox-4.3.28/out/linux.amd64/debug/obj/VMMR3LazyImp/VMMR3LazyLoad.asm
  8668 00004076 488D05D0E1FFFF          lea rax, [g_szVMR3AtStateDeregister wrt rip]
  8669 0000407D 4C8D15(F2FFFFFF)        lea r10, [g_pfnVMR3AtStateDeregister wrt rip]
  8670                                 %line 8065+1 /home/se170/VirtualBox-4.3.28/out/linux.amd64/debug/obj/VMMR3LazyImp/VMMR3LazyLoad.asm
  8671 00004084 E855000000              call LazyLoadResolver
  8672                                 %line 8069+1 /home/se170/VirtualBox-4.3.28/out/linux.amd64/debug/obj/VMMR3LazyImp/VMMR3LazyLoad.asm
  8673 00004089 E9EDCBFFFF              jmp VMR3AtStateDeregister
  8674                                 
  8675                                 ___LazyLoad___VMR3GetUVM:
  8676                                 %line 8073+1 /home/se170/VirtualBox-4.3.28/out/linux.amd64/debug/obj/VMMR3LazyImp/VMMR3LazyLoad.asm
  8677 0000408E 488D05CEE1FFFF          lea rax, [g_szVMR3GetUVM wrt rip]
  8678 00004095 4C8D15(F2FFFFFF)        lea r10, [g_pfnVMR3GetUVM wrt rip]
  8679                                 %line 8081+1 /home/se170/VirtualBox-4.3.28/out/linux.amd64/debug/obj/VMMR3LazyImp/VMMR3LazyLoad.asm
  8680 0000409C E83D000000              call LazyLoadResolver
  8681                                 %line 8085+1 /home/se170/VirtualBox-4.3.28/out/linux.amd64/debug/obj/VMMR3LazyImp/VMMR3LazyLoad.asm
  8682 000040A1 E9DFCBFFFF              jmp VMR3GetUVM
  8683                                 
  8684                                 
  8685                                 
  8686                                 
  8687                                 
  8688                                 
  8689                                 
  8690                                 [section .data]
  8691 00000A18 0000000000000000       g_hMod dq 0
  8692                                 
  8693                                 
  8694                                 
  8695                                 
  8696                                 
  8697                                 
  8698                                 
  8699                                 [extern SUPR3HardenedLdrLoadAppPriv]
  8700                                 %line 8102+0 /home/se170/VirtualBox-4.3.28/out/linux.amd64/debug/obj/VMMR3LazyImp/VMMR3LazyLoad.asm
  8701                                 [section .data]
  8702                                 %line 8103+1 /home/se170/VirtualBox-4.3.28/out/linux.amd64/debug/obj/VMMR3LazyImp/VMMR3LazyLoad.asm
  8703                                 [section .text]
  8704                                 
  8705                                 LazyLoading:
  8706 000040A6 488B0D(F2FFFFFF)        mov rcx, [g_hMod wrt rip]
  8707 000040AD 4809C9                  or rcx, rcx
  8708 000040B0 752E                    jnz .return
  8709                                 
  8710                                 %line 8111+1 /home/se170/VirtualBox-4.3.28/out/linux.amd64/debug/obj/VMMR3LazyImp/VMMR3LazyLoad.asm
  8711 000040B2 4831C9                  xor rcx, rcx
  8712 000040B5 4831D2                  xor rdx, rdx
  8713 000040B8 488D35(F2FFFFFF)        lea rsi, [g_hMod wrt rip]
  8714 000040BF 488D3DC7CBFFFF          lea rdi, [g_szLibrary wrt rip]
  8715 000040C6 4883EC08                sub rsp, 08
  8716 000040CA FF15(F4FFFFFF)          call qword [rel SUPR3HardenedLdrLoadAppPriv wrt ..got]
  8717 000040D0 4883C408                add rsp, 08
  8718                                 
  8719                                 %line 8139+1 /home/se170/VirtualBox-4.3.28/out/linux.amd64/debug/obj/VMMR3LazyImp/VMMR3LazyLoad.asm
  8720 000040D4 09C0                    or eax, eax
  8721 000040D6 7401                    jz .loadok
  8722                                 .badload:
  8723 000040D8 CC                      int3
  8724 000040D9 EBFB                    jmp .badload
  8725                                 .loadok:
  8726 000040DB 488B0D(F2FFFFFF)        mov rcx, [g_hMod wrt rip]
  8727                                 .return:
  8728 000040E2 C3                      ret
  8729                                 LazyLoading_End:
  8730                                 
  8731                                 
  8732                                 
  8733                                 
  8734                                 
  8735                                 [extern RTLdrGetSymbol]
  8736                                 %line 8154+0 /home/se170/VirtualBox-4.3.28/out/linux.amd64/debug/obj/VMMR3LazyImp/VMMR3LazyLoad.asm
  8737                                 [section .data]
  8738                                 %line 8155+1 /home/se170/VirtualBox-4.3.28/out/linux.amd64/debug/obj/VMMR3LazyImp/VMMR3LazyLoad.asm
  8739                                 [section .text]
  8740                                 LazyLoadResolver:
  8741                                 %line 8158+1 /home/se170/VirtualBox-4.3.28/out/linux.amd64/debug/obj/VMMR3LazyImp/VMMR3LazyLoad.asm
  8742 000040E3 55                      push rbp
  8743 000040E4 4889E5                  mov rbp, rsp
  8744 000040E7 4157                    push r15
  8745 000040E9 4156                    push r14
  8746 000040EB 4989C7                  mov r15, rax
  8747 000040EE 4D89D6                  mov r14, r10
  8748 000040F1 4151                    push r9
  8749 000040F3 4150                    push r8
  8750 000040F5 51                      push rcx
  8751 000040F6 52                      push rdx
  8752 000040F7 4154                    push r12
  8753                                 %line 8170+1 /home/se170/VirtualBox-4.3.28/out/linux.amd64/debug/obj/VMMR3LazyImp/VMMR3LazyLoad.asm
  8754 000040F9 56                      push rsi
  8755 000040FA 57                      push rdi
  8756 000040FB 4989E4                  mov r12, rsp
  8757                                 %line 8177+1 /home/se170/VirtualBox-4.3.28/out/linux.amd64/debug/obj/VMMR3LazyImp/VMMR3LazyLoad.asm
  8758 000040FE 4881E4F0FFFFFF          and rsp, 0fffffff0
  8759                                 
  8760 00004105 E897FFFFFF              call LazyLoading
  8761                                 %line 8181+1 /home/se170/VirtualBox-4.3.28/out/linux.amd64/debug/obj/VMMR3LazyImp/VMMR3LazyLoad.asm
  8762 0000410A 4889CF                  mov rdi, rcx
  8763 0000410D 4C89FE                  mov rsi, r15
  8764 00004110 4C89F2                  mov rdx, r14
  8765                                 %line 8188+1 /home/se170/VirtualBox-4.3.28/out/linux.amd64/debug/obj/VMMR3LazyImp/VMMR3LazyLoad.asm
  8766 00004113 FF15(F4FFFFFF)          call qword [rel RTLdrGetSymbol wrt ..got]
  8767 00004119 09C0                    or eax, eax
  8768 0000411B 7401                    jz .symok
  8769                                 .badsym:
  8770 0000411D CC                      int3
  8771 0000411E EBFB                    jmp .badsym
  8772                                 .symok:
  8773                                 
  8774 00004120 4C89E4                  mov rsp, r12
  8775                                 %line 8198+1 /home/se170/VirtualBox-4.3.28/out/linux.amd64/debug/obj/VMMR3LazyImp/VMMR3LazyLoad.asm
  8776 00004123 5F                      pop rdi
  8777 00004124 5E                      pop rsi
  8778                                 %line 8201+1 /home/se170/VirtualBox-4.3.28/out/linux.amd64/debug/obj/VMMR3LazyImp/VMMR3LazyLoad.asm
  8779 00004125 415C                    pop r12
  8780 00004127 5A                      pop rdx
  8781 00004128 59                      pop rcx
  8782 00004129 4158                    pop r8
  8783 0000412B 4159                    pop r9
  8784 0000412D 415E                    pop r14
  8785 0000412F 415F                    pop r15
  8786 00004131 C9                      leave
  8787                                 
  8788                                 %line 8240+1 /home/se170/VirtualBox-4.3.28/out/linux.amd64/debug/obj/VMMR3LazyImp/VMMR3LazyLoad.asm
  8789 00004132 C3                      ret
  8790                                 LazyLoadResolver_End:
  8791                                 
  8792                                 
