     1                                 %line 1+1 /home/se170/VirtualBox-4.3.28/src/VBox/VMM/testcase/tstX86-1A.asm
     2                                 
     3                                 
     4                                 
     5                                 
     6                                 
     7                                 
     8                                 
     9                                 
    10                                 
    11                                 
    12                                 
    13                                 
    14                                 
    15                                 
    16                                 
    17                                 
    18                                 
    19                                 
    20                                 
    21                                 
    22                                 
    23                                 %line 1+1 /home/se170/VirtualBox-4.3.28/include/iprt/asmdefs.mac
    24                                 
    25                                 
    26                                 
    27                                 
    28                                 
    29                                 
    30                                 
    31                                 
    32                                 
    33                                 
    34                                 
    35                                 
    36                                 
    37                                 
    38                                 
    39                                 
    40                                 
    41                                 
    42                                 
    43                                 
    44                                 
    45                                 
    46                                 
    47                                 
    48                                 
    49                                 %line 28+1 /home/se170/VirtualBox-4.3.28/include/iprt/asmdefs.mac
    50                                 
    51                                 
    52                                 
    53                                 
    54                                 
    55                                 
    56                                 %line 35+1 /home/se170/VirtualBox-4.3.28/include/iprt/asmdefs.mac
    57                                 
    58                                 %line 37+1 /home/se170/VirtualBox-4.3.28/include/iprt/asmdefs.mac
    59                                 
    60                                 %line 39+1 /home/se170/VirtualBox-4.3.28/include/iprt/asmdefs.mac
    61                                 
    62                                 %line 41+1 /home/se170/VirtualBox-4.3.28/include/iprt/asmdefs.mac
    63                                 
    64                                 %line 43+1 /home/se170/VirtualBox-4.3.28/include/iprt/asmdefs.mac
    65                                 
    66                                 %line 45+1 /home/se170/VirtualBox-4.3.28/include/iprt/asmdefs.mac
    67                                 
    68                                 %line 47+1 /home/se170/VirtualBox-4.3.28/include/iprt/asmdefs.mac
    69                                 
    70                                 %line 49+1 /home/se170/VirtualBox-4.3.28/include/iprt/asmdefs.mac
    71                                 
    72                                 %line 51+1 /home/se170/VirtualBox-4.3.28/include/iprt/asmdefs.mac
    73                                 
    74                                 %line 53+1 /home/se170/VirtualBox-4.3.28/include/iprt/asmdefs.mac
    75                                 
    76                                 %line 55+1 /home/se170/VirtualBox-4.3.28/include/iprt/asmdefs.mac
    77                                 
    78                                 %line 57+1 /home/se170/VirtualBox-4.3.28/include/iprt/asmdefs.mac
    79                                 
    80                                 %line 59+1 /home/se170/VirtualBox-4.3.28/include/iprt/asmdefs.mac
    81                                 
    82                                 %line 61+1 /home/se170/VirtualBox-4.3.28/include/iprt/asmdefs.mac
    83                                 
    84                                 %line 63+1 /home/se170/VirtualBox-4.3.28/include/iprt/asmdefs.mac
    85                                 
    86                                 %line 65+1 /home/se170/VirtualBox-4.3.28/include/iprt/asmdefs.mac
    87                                 
    88                                 %line 67+1 /home/se170/VirtualBox-4.3.28/include/iprt/asmdefs.mac
    89                                 
    90                                 
    91                                 
    92                                 
    93                                 
    94                                 %line 73+1 /home/se170/VirtualBox-4.3.28/include/iprt/asmdefs.mac
    95                                 
    96                                 
    97                                 
    98                                 %line 77+1 /home/se170/VirtualBox-4.3.28/include/iprt/asmdefs.mac
    99                                 
   100                                 
   101                                 %line 84+1 /home/se170/VirtualBox-4.3.28/include/iprt/asmdefs.mac
   102                                 
   103                                 
   104                                 
   105                                 %line 92+1 /home/se170/VirtualBox-4.3.28/include/iprt/asmdefs.mac
   106                                 
   107                                 
   108                                 
   109                                 %line 100+1 /home/se170/VirtualBox-4.3.28/include/iprt/asmdefs.mac
   110                                 
   111                                 
   112                                 
   113                                 %line 108+1 /home/se170/VirtualBox-4.3.28/include/iprt/asmdefs.mac
   114                                 
   115                                 
   116                                 
   117                                 %line 116+1 /home/se170/VirtualBox-4.3.28/include/iprt/asmdefs.mac
   118                                 
   119                                 
   120                                 
   121                                 
   122                                 %line 121+1 /home/se170/VirtualBox-4.3.28/include/iprt/asmdefs.mac
   123                                 
   124                                 
   125                                 
   126                                 %line 125+1 /home/se170/VirtualBox-4.3.28/include/iprt/asmdefs.mac
   127                                 
   128                                 
   129                                 
   130                                 %line 129+1 /home/se170/VirtualBox-4.3.28/include/iprt/asmdefs.mac
   131                                 
   132                                 
   133                                 
   134                                 
   135                                 
   136                                 %line 137+1 /home/se170/VirtualBox-4.3.28/include/iprt/asmdefs.mac
   137                                 
   138                                 
   139                                 
   140                                 
   141                                 %line 157+1 /home/se170/VirtualBox-4.3.28/include/iprt/asmdefs.mac
   142                                 
   143                                 
   144                                 
   145                                 %line 165+1 /home/se170/VirtualBox-4.3.28/include/iprt/asmdefs.mac
   146                                 
   147                                 
   148                                 
   149                                 %line 177+1 /home/se170/VirtualBox-4.3.28/include/iprt/asmdefs.mac
   150                                 
   151                                 
   152                                 
   153                                 
   154                                 %line 188+1 /home/se170/VirtualBox-4.3.28/include/iprt/asmdefs.mac
   155                                 
   156                                 
   157                                 
   158                                 %line 211+1 /home/se170/VirtualBox-4.3.28/include/iprt/asmdefs.mac
   159                                 
   160                                 
   161                                 
   162                                 
   163                                 
   164                                 %line 222+1 /home/se170/VirtualBox-4.3.28/include/iprt/asmdefs.mac
   165                                 
   166                                 
   167                                 
   168                                 %line 236+1 /home/se170/VirtualBox-4.3.28/include/iprt/asmdefs.mac
   169                                 
   170                                 
   171                                 
   172                                 %line 249+1 /home/se170/VirtualBox-4.3.28/include/iprt/asmdefs.mac
   173                                 
   174                                 
   175                                 
   176                                 %line 263+1 /home/se170/VirtualBox-4.3.28/include/iprt/asmdefs.mac
   177                                 
   178                                 
   179                                 
   180                                 %line 274+1 /home/se170/VirtualBox-4.3.28/include/iprt/asmdefs.mac
   181                                 
   182                                 
   183                                 
   184                                 %line 288+1 /home/se170/VirtualBox-4.3.28/include/iprt/asmdefs.mac
   185                                 
   186                                 
   187                                 
   188                                 %line 302+1 /home/se170/VirtualBox-4.3.28/include/iprt/asmdefs.mac
   189                                 
   190                                 
   191                                 
   192                                 
   193                                 
   194                                 
   195                                 
   196                                 
   197                                 %line 356+1 /home/se170/VirtualBox-4.3.28/include/iprt/asmdefs.mac
   198                                 
   199                                 %line 363+1 /home/se170/VirtualBox-4.3.28/include/iprt/asmdefs.mac
   200                                 
   201                                 
   202                                 
   203                                 
   204                                 %line 376+1 /home/se170/VirtualBox-4.3.28/include/iprt/asmdefs.mac
   205                                 
   206                                 
   207                                 
   208                                 
   209                                 
   210                                 
   211                                 
   212                                 %line 396+1 /home/se170/VirtualBox-4.3.28/include/iprt/asmdefs.mac
   213                                 
   214                                 
   215                                 
   216                                 %line 408+1 /home/se170/VirtualBox-4.3.28/include/iprt/asmdefs.mac
   217                                 
   218                                 
   219                                 
   220                                 %line 420+1 /home/se170/VirtualBox-4.3.28/include/iprt/asmdefs.mac
   221                                 
   222                                 
   223                                 
   224                                 
   225                                 
   226                                 %line 432+1 /home/se170/VirtualBox-4.3.28/include/iprt/asmdefs.mac
   227                                 
   228                                 
   229                                 
   230                                 %line 442+1 /home/se170/VirtualBox-4.3.28/include/iprt/asmdefs.mac
   231                                 
   232                                 
   233                                 
   234                                 %line 452+1 /home/se170/VirtualBox-4.3.28/include/iprt/asmdefs.mac
   235                                 
   236                                 
   237                                 
   238                                 %line 462+1 /home/se170/VirtualBox-4.3.28/include/iprt/asmdefs.mac
   239                                 
   240                                 
   241                                 
   242                                 %line 472+1 /home/se170/VirtualBox-4.3.28/include/iprt/asmdefs.mac
   243                                 
   244                                 
   245                                 
   246                                 
   247                                 
   248                                 %line 482+1 /home/se170/VirtualBox-4.3.28/include/iprt/asmdefs.mac
   249                                 
   250                                 
   251                                 
   252                                 
   253                                 %line 491+1 /home/se170/VirtualBox-4.3.28/include/iprt/asmdefs.mac
   254                                 
   255                                 
   256                                 
   257                                 %line 499+1 /home/se170/VirtualBox-4.3.28/include/iprt/asmdefs.mac
   258                                 
   259                                 
   260                                 
   261                                 %line 507+1 /home/se170/VirtualBox-4.3.28/include/iprt/asmdefs.mac
   262                                 
   263                                 
   264                                 
   265                                 
   266                                 
   267                                 %line 517+1 /home/se170/VirtualBox-4.3.28/include/iprt/asmdefs.mac
   268                                 
   269                                 
   270                                 
   271                                 
   272                                 %line 526+1 /home/se170/VirtualBox-4.3.28/include/iprt/asmdefs.mac
   273                                 
   274                                 
   275                                 
   276                                 %line 534+1 /home/se170/VirtualBox-4.3.28/include/iprt/asmdefs.mac
   277                                 
   278                                 
   279                                 
   280                                 %line 542+1 /home/se170/VirtualBox-4.3.28/include/iprt/asmdefs.mac
   281                                 
   282                                 
   283                                 
   284                                 
   285                                 
   286                                 %line 552+1 /home/se170/VirtualBox-4.3.28/include/iprt/asmdefs.mac
   287                                 
   288                                 
   289                                 
   290                                 
   291                                 %line 561+1 /home/se170/VirtualBox-4.3.28/include/iprt/asmdefs.mac
   292                                 
   293                                 
   294                                 
   295                                 %line 569+1 /home/se170/VirtualBox-4.3.28/include/iprt/asmdefs.mac
   296                                 
   297                                 
   298                                 
   299                                 %line 577+1 /home/se170/VirtualBox-4.3.28/include/iprt/asmdefs.mac
   300                                 
   301                                 
   302                                 
   303                                 
   304                                 
   305                                 %line 587+1 /home/se170/VirtualBox-4.3.28/include/iprt/asmdefs.mac
   306                                 
   307                                 
   308                                 
   309                                 
   310                                 %line 596+1 /home/se170/VirtualBox-4.3.28/include/iprt/asmdefs.mac
   311                                 
   312                                 %line 599+1 /home/se170/VirtualBox-4.3.28/include/iprt/asmdefs.mac
   313                                 
   314                                 
   315                                 
   316                                 %line 607+1 /home/se170/VirtualBox-4.3.28/include/iprt/asmdefs.mac
   317                                 
   318                                 
   319                                 
   320                                 %line 615+1 /home/se170/VirtualBox-4.3.28/include/iprt/asmdefs.mac
   321                                 
   322                                 
   323                                 
   324                                 
   325                                 %line 620+1 /home/se170/VirtualBox-4.3.28/include/iprt/asmdefs.mac
   326                                 
   327                                 
   328                                 
   329                                 
   330                                 %line 625+1 /home/se170/VirtualBox-4.3.28/include/iprt/asmdefs.mac
   331                                 
   332                                 
   333                                 
   334                                 %line 629+1 /home/se170/VirtualBox-4.3.28/include/iprt/asmdefs.mac
   335                                 
   336                                 
   337                                 
   338                                 %line 633+1 /home/se170/VirtualBox-4.3.28/include/iprt/asmdefs.mac
   339                                 
   340                                 
   341                                 
   342                                 
   343                                 
   344                                 
   345                                 
   346                                 
   347                                 
   348                                 
   349                                 
   350                                 
   351                                 
   352                                 
   353                                 
   354                                 %line 666+1 /home/se170/VirtualBox-4.3.28/include/iprt/asmdefs.mac
   355                                 
   356                                 
   357                                 
   358                                 
   359                                 
   360                                 %line 672+1 /home/se170/VirtualBox-4.3.28/include/iprt/asmdefs.mac
   361                                 
   362                                 
   363                                 
   364                                 
   365                                 %line 677+1 /home/se170/VirtualBox-4.3.28/include/iprt/asmdefs.mac
   366                                 
   367                                 
   368                                 
   369                                 %line 681+1 /home/se170/VirtualBox-4.3.28/include/iprt/asmdefs.mac
   370                                 
   371                                 
   372                                 
   373                                 %line 685+1 /home/se170/VirtualBox-4.3.28/include/iprt/asmdefs.mac
   374                                 
   375                                 
   376                                 
   377                                 
   378                                 
   379                                 %line 691+1 /home/se170/VirtualBox-4.3.28/include/iprt/asmdefs.mac
   380                                 
   381                                 
   382                                 
   383                                 
   384                                 %line 696+1 /home/se170/VirtualBox-4.3.28/include/iprt/asmdefs.mac
   385                                 
   386                                 
   387                                 
   388                                 %line 700+1 /home/se170/VirtualBox-4.3.28/include/iprt/asmdefs.mac
   389                                 
   390                                 
   391                                 
   392                                 %line 704+1 /home/se170/VirtualBox-4.3.28/include/iprt/asmdefs.mac
   393                                 
   394                                 
   395                                 
   396                                 
   397                                 
   398                                 
   399                                 
   400                                 
   401                                 %line 721+1 /home/se170/VirtualBox-4.3.28/include/iprt/asmdefs.mac
   402                                 
   403                                 
   404                                 
   405                                 
   406                                 
   407                                 
   408                                 
   409                                 
   410                                 
   411                                 
   412                                 
   413                                 
   414                                 
   415                                 
   416                                 %line 738+1 /home/se170/VirtualBox-4.3.28/include/iprt/asmdefs.mac
   417                                 
   418                                 %line 752+1 /home/se170/VirtualBox-4.3.28/include/iprt/asmdefs.mac
   419                                 
   420                                 
   421                                 
   422                                 
   423                                 
   424                                 
   425                                 
   426                                 
   427                                 
   428                                 
   429                                 
   430                                 
   431                                 
   432                                 %line 770+1 /home/se170/VirtualBox-4.3.28/include/iprt/asmdefs.mac
   433                                 
   434                                 
   435                                 
   436                                 
   437                                 
   438                                 
   439                                 
   440                                 %line 791+1 /home/se170/VirtualBox-4.3.28/include/iprt/asmdefs.mac
   441                                 
   442                                 %line 797+1 /home/se170/VirtualBox-4.3.28/include/iprt/asmdefs.mac
   443                                 
   444                                 
   445                                 
   446                                 
   447                                 
   448                                 
   449                                 
   450                                 
   451                                 
   452                                 
   453                                 
   454                                 
   455                                 
   456                                 
   457                                 
   458                                 
   459                                 
   460                                 
   461                                 
   462                                 
   463                                 
   464                                 
   465                                 
   466                                 
   467                                 
   468                                 
   469                                 
   470                                 
   471                                 
   472                                 
   473                                 
   474                                 
   475                                 
   476                                 %line 853+1 /home/se170/VirtualBox-4.3.28/include/iprt/asmdefs.mac
   477                                 
   478                                 
   479                                 
   480                                 
   481                                 
   482                                 
   483                                 
   484                                 
   485                                 
   486                                 
   487                                 %line 873+1 /home/se170/VirtualBox-4.3.28/include/iprt/asmdefs.mac
   488                                 
   489                                 
   490                                 
   491                                 %line 886+1 /home/se170/VirtualBox-4.3.28/include/iprt/asmdefs.mac
   492                                 
   493                                 %line 1+1 /home/se170/VirtualBox-4.3.28/include/iprt/x86extra.mac
   494                                 
   495                                 
   496                                 
   497                                 
   498                                 
   499                                 
   500                                 
   501                                 
   502                                 
   503                                 
   504                                 
   505                                 
   506                                 
   507                                 
   508                                 
   509                                 
   510                                 
   511                                 
   512                                 
   513                                 
   514                                 
   515                                 
   516                                 
   517                                 
   518                                 
   519                                 
   520                                 %line 29+1 /home/se170/VirtualBox-4.3.28/include/iprt/x86extra.mac
   521                                 
   522                                 
   523                                 %line 52+1 /home/se170/VirtualBox-4.3.28/include/iprt/x86extra.mac
   524                                 
   525                                 %line 54+1 /home/se170/VirtualBox-4.3.28/include/iprt/x86extra.mac
   526                                 
   527                                 
   528                                 
   529                                 
   530                                 
   531                                 [absolute 0]
   532                                 %line 59+0 /home/se170/VirtualBox-4.3.28/include/iprt/x86extra.mac
   533                                 X86FSTENV32P:
   534                                 %line 60+1 /home/se170/VirtualBox-4.3.28/include/iprt/x86extra.mac
   535                                  .FCW resw 1
   536                                  .padding1 resw 1
   537                                  .FSW resw 1
   538                                  .padding2 resw 1
   539                                  .FTW resw 1
   540                                  .padding3 resw 1
   541                                  .FPUIP resd 1
   542                                  .FPUCS resw 1
   543                                  .FOP resw 1
   544                                  .FPUDP resd 1
   545                                  .FPUDS resw 1
   546                                  .padding4 resw 1
   547                                 X86FSTENV32P_size:
   548                                 %line 72+0 /home/se170/VirtualBox-4.3.28/include/iprt/x86extra.mac
   549                                 [section .text]
   550                                 %line 73+1 /home/se170/VirtualBox-4.3.28/include/iprt/x86extra.mac
   551                                 
   552                                 
   553                                 
   554                                 
   555                                 
   556                                 [absolute 0]
   557                                 %line 78+0 /home/se170/VirtualBox-4.3.28/include/iprt/x86extra.mac
   558                                 X86FXSTATE:
   559                                 %line 79+1 /home/se170/VirtualBox-4.3.28/include/iprt/x86extra.mac
   560                                  .FCW resw 1
   561                                  .FSW resw 1
   562                                  .FTW resw 1
   563                                  .FOP resw 1
   564                                  .FPUIP resd 1
   565                                  .FPUCS resw 1
   566                                  .Rsrvd1 resw 1
   567                                  .FPUDP resd 1
   568                                  .FPUDS resw 1
   569                                  .Rsrvd2 resw 1
   570                                  .MXCSR resd 1
   571                                  .MXCSR_MASK resd 1
   572                                  .st0 resd 4
   573                                  .st1 resd 4
   574                                  .st2 resd 4
   575                                  .st3 resd 4
   576                                  .st4 resd 4
   577                                  .st5 resd 4
   578                                  .st6 resd 4
   579                                  .st7 resd 4
   580                                  .xmm0 resd 4
   581                                  .xmm1 resd 4
   582                                  .xmm2 resd 4
   583                                  .xmm3 resd 4
   584                                  .xmm4 resd 4
   585                                  .xmm5 resd 4
   586                                  .xmm6 resd 4
   587                                  .xmm7 resd 4
   588                                  .xmm8 resd 4
   589                                  .xmm9 resd 4
   590                                  .xmm10 resd 4
   591                                  .xmm11 resd 4
   592                                  .xmm12 resd 4
   593                                  .xmm13 resd 4
   594                                  .xmm14 resd 4
   595                                  .xmm15 resd 4
   596                                  .au32RsrvdRest resd 24
   597                                 X86FXSTATE_size:
   598                                 %line 116+0 /home/se170/VirtualBox-4.3.28/include/iprt/x86extra.mac
   599                                 [section .text]
   600                                 %line 117+1 /home/se170/VirtualBox-4.3.28/include/iprt/x86extra.mac
   601                                 
   602                                 
   603                                 [absolute 0]
   604                                 %line 119+0 /home/se170/VirtualBox-4.3.28/include/iprt/x86extra.mac
   605                                 X86TSS16:
   606                                 %line 120+1 /home/se170/VirtualBox-4.3.28/include/iprt/x86extra.mac
   607                                  .selPrev resw 1
   608                                  .sp0 resw 1
   609                                  .ss0 resw 1
   610                                  .sp1 resw 1
   611                                  .ss1 resw 1
   612                                  .sp2 resw 1
   613                                  .ss2 resw 1
   614                                  .ip resw 1
   615                                  .flags resw 1
   616                                  .ax resw 1
   617                                  .cx resw 1
   618                                  .dx resw 1
   619                                  .bx resw 1
   620                                  .sp resw 1
   621                                  .bp resw 1
   622                                  .si resw 1
   623                                  .di resw 1
   624                                  .es resw 1
   625                                  .cs resw 1
   626                                  .ss resw 1
   627                                  .ds resw 1
   628                                  .selLdt resw 1
   629                                 X86TSS16_size:
   630                                 %line 142+0 /home/se170/VirtualBox-4.3.28/include/iprt/x86extra.mac
   631                                 [section .text]
   632                                 %line 144+1 /home/se170/VirtualBox-4.3.28/include/iprt/x86extra.mac
   633                                 
   634                                 
   635                                 [absolute 0]
   636                                 %line 146+0 /home/se170/VirtualBox-4.3.28/include/iprt/x86extra.mac
   637                                 X86TSS32:
   638                                 %line 147+1 /home/se170/VirtualBox-4.3.28/include/iprt/x86extra.mac
   639                                  .selPrev resw 1
   640                                  .padding1 resw 1
   641                                  .esp0 resd 1
   642                                  .ss0 resw 1
   643                                  .padding_ss0 resw 1
   644                                  .esp1 resd 1
   645                                  .ss1 resw 1
   646                                  .padding_ss1 resw 1
   647                                  .esp2 resd 1
   648                                  .ss2 resw 1
   649                                  .padding_ss2 resw 1
   650                                  .cr3 resd 1
   651                                  .eip resd 1
   652                                  .eflags resd 1
   653                                  .eax resd 1
   654                                  .ecx resd 1
   655                                  .edx resd 1
   656                                  .ebx resd 1
   657                                  .esp resd 1
   658                                  .ebp resd 1
   659                                  .esi resd 1
   660                                  .edi resd 1
   661                                  .es resw 1
   662                                  .padding_es resw 1
   663                                  .cs resw 1
   664                                  .padding_cs resw 1
   665                                  .ss resw 1
   666                                  .padding_ss resw 1
   667                                  .ds resw 1
   668                                  .padding_ds resw 1
   669                                  .fs resw 1
   670                                  .padding_fs resw 1
   671                                  .gs resw 1
   672                                  .padding_gs resw 1
   673                                  .selLdt resw 1
   674                                  .padding_ldt resw 1
   675                                  .fDebugTrap resw 1
   676                                  .offIoBitmap resw 1
   677                                  .IntRedirBitmap resb 32
   678                                 X86TSS32_size:
   679                                 %line 186+0 /home/se170/VirtualBox-4.3.28/include/iprt/x86extra.mac
   680                                 [section .text]
   681                                 %line 187+1 /home/se170/VirtualBox-4.3.28/include/iprt/x86extra.mac
   682                                 
   683                                 
   684                                 [absolute 0]
   685                                 %line 189+0 /home/se170/VirtualBox-4.3.28/include/iprt/x86extra.mac
   686                                 X86TSS64:
   687                                 %line 190+1 /home/se170/VirtualBox-4.3.28/include/iprt/x86extra.mac
   688                                  .u32Reserved resd 1
   689                                  .rsp0 resq 1
   690                                  .rsp1 resq 1
   691                                  .rsp2 resq 1
   692                                  .u32Reserved2 resd 2
   693                                  .ist1 resq 1
   694                                  .ist2 resq 1
   695                                  .ist3 resq 1
   696                                  .ist4 resq 1
   697                                  .ist5 resq 1
   698                                  .ist6 resq 1
   699                                  .ist7 resq 1
   700                                  .u16Reserved resw 5
   701                                  .offIoBitmap resw 1
   702                                  .IntRedirBitmap resb 32
   703                                 X86TSS64_size:
   704                                 %line 205+0 /home/se170/VirtualBox-4.3.28/include/iprt/x86extra.mac
   705                                 [section .text]
   706                                 %line 207+1 /home/se170/VirtualBox-4.3.28/include/iprt/x86extra.mac
   707                                 
   708                                 %line 209+1 /home/se170/VirtualBox-4.3.28/include/iprt/x86extra.mac
   709                                 
   710                                 %line 24+1 /home/se170/VirtualBox-4.3.28/src/VBox/VMM/testcase/tstX86-1A.asm
   711                                 
   712                                 
   713                                 [absolute 0]
   714                                 %line 26+0 /home/se170/VirtualBox-4.3.28/src/VBox/VMM/testcase/tstX86-1A.asm
   715                                 TRAPINFO:
   716                                 %line 27+1 /home/se170/VirtualBox-4.3.28/src/VBox/VMM/testcase/tstX86-1A.asm
   717                                  .uTrapPC resq 1
   718                                  .uResumePC resq 1
   719                                  .u8TrapNo resb 1
   720                                  .cbInstr resb 1
   721                                  .au8Padding resb (8*2 - 2)
   722                                 TRAPINFO_size:
   723                                 %line 32+0 /home/se170/VirtualBox-4.3.28/src/VBox/VMM/testcase/tstX86-1A.asm
   724                                 [section .text]
   725                                 %line 33+1 /home/se170/VirtualBox-4.3.28/src/VBox/VMM/testcase/tstX86-1A.asm
   726                                 
   727                                 
   728                                 %line 42+1 /home/se170/VirtualBox-4.3.28/src/VBox/VMM/testcase/tstX86-1A.asm
   729                                 
   730                                 
   731                                 
   732                                 
   733                                 [section .data]
   734                                 [extern g_pbEfPage]
   735                                 [extern g_pbEfExecPage]
   736                                 
   737                                 [global g_szAlpha]
   738                                 %line 50+0 /home/se170/VirtualBox-4.3.28/src/VBox/VMM/testcase/tstX86-1A.asm
   739                                 g_szAlpha:
   740                                 %line 51+1 /home/se170/VirtualBox-4.3.28/src/VBox/VMM/testcase/tstX86-1A.asm
   741 00000000 616263646566676869-     db "abcdefghijklmnopqrstuvwxyz", 0
   742 00000000 6A6B6C6D6E6F707172-
   743 00000000 737475767778797A00 
   744                                 g_szAlpha_end:
   745                                 %line 54+1 /home/se170/VirtualBox-4.3.28/src/VBox/VMM/testcase/tstX86-1A.asm
   746 0000001B 000000                  db 0, 0, 0,
   747                                 
   748                                 
   749                                 
   750 0000001E CDCCCC3D               g_r32_0dot1: dd 0.1
   751 00000022 CDCC4C40               g_r32_3dot2: dd 3.2
   752 00000026 00000000               g_r32_Zero: dd 0.0
   753 0000002A 0000803F               g_r32_One: dd 1.0
   754 0000002E 00000040               g_r32_Two: dd 2.0
   755 00000032 00004040               g_r32_Three: dd 3.0
   756 00000036 00002041               g_r32_Ten: dd 10.0
   757 0000003A 00003041               g_r32_Eleven: dd 11.0
   758 0000003E 00000042               g_r32_ThirtyTwo:dd 32.0
   759 00000042 00008000               g_r32_Min: dd 000800000
   760 00000046 FFFF7F7F               g_r32_Max: dd 07f7fffff
   761 0000004A 0000807F               g_r32_Inf: dd 07f800000
   762 0000004E 0100807F               g_r32_SNaN: dd 07f800001
   763 00000052 FFFFBF7F               g_r32_SNaNMax: dd 07fbfffff
   764 00000056 0000C07F               g_r32_QNaN: dd 07fc00000
   765 0000005A FFFFFF7F               g_r32_QNaNMax: dd 07fffffff
   766 0000005E 0000C0FF               g_r32_NegQNaN: dd 0ffc00000
   767                                 
   768 00000062 9A9999999999B93F       g_r64_0dot1: dq 0.1
   769 0000006A 9A99999999991B40       g_r64_6dot9: dq 6.9
   770 00000072 0000000000000000       g_r64_Zero: dq 0.0
   771 0000007A 000000000000F03F       g_r64_One: dq 1.0
   772 00000082 0000000000000040       g_r64_Two: dq 2.0
   773 0000008A 0000000000000840       g_r64_Three: dq 3.0
   774 00000092 0000000000002440       g_r64_Ten: dq 10.0
   775 0000009A 0000000000002640       g_r64_Eleven: dq 11.0
   776 000000A2 0000000000004040       g_r64_ThirtyTwo:dq 32.0
   777 000000AA 0000000000001000       g_r64_Min: dq 00010000000000000
   778 000000B2 FFFFFFFFFFFFEF7F       g_r64_Max: dq 07fefffffffffffff
   779 000000BA 000000000000F07F       g_r64_Inf: dq 07ff0000000000000
   780 000000C2 010000000000F07F       g_r64_SNaN: dq 07ff0000000000001
   781 000000CA FFFFFFFFFFFFF77F       g_r64_SNaNMax: dq 07ff7ffffffffffff
   782 000000D2 000000000000F8FF       g_r64_NegQNaN: dq 0fff8000000000000
   783 000000DA 000000000000F87F       g_r64_QNaN: dq 07ff8000000000000
   784 000000E2 FFFFFFFFFFFFFF7F       g_r64_QNaNMax: dq 07fffffffffffffff
   785 000000EA 0100000000000000       g_r64_DnMin: dq 00000000000000001
   786 000000F2 FFFFFFFFFFFF0F00       g_r64_DnMax: dq 0000fffffffffffff
   787                                 
   788                                 
   789 000000FA CDCCCCCCCCCCCCCCFB-    g_r80_0dot1: dt 0.1
   790 000000FA 3F                 
   791 00000104 CDCCCCCCCCCCCCCC00-    g_r80_3dot2: dt 3.2
   792 00000104 40                 
   793 0000010E 000000000000000000-    g_r80_Zero: dt 0.0
   794 0000010E 00                 
   795 00000118 0000000000000080FF-    g_r80_One: dt 1.0
   796 00000118 3F                 
   797 00000122 000000000000008000-    g_r80_Two: dt 2.0
   798 00000122 40                 
   799 0000012C 00000000000000C000-    g_r80_Three: dt 3.0
   800 0000012C 40                 
   801 00000136 00000000000000A002-    g_r80_Ten: dt 10.0
   802 00000136 40                 
   803 00000140 00000000000000B002-    g_r80_Eleven: dt 11.0
   804 00000140 40                 
   805 0000014A 000000000000008004-    g_r80_ThirtyTwo:dt 32.0
   806 0000014A 40                 
   807 00000154 000000000000008001-    g_r80_Min: dt 000018000000000000000
   808 00000154 00                 
   809 0000015E FFFFFFFFFFFFFFFFFE-    g_r80_Max: dt 07ffeffffffffffffffff
   810 0000015E 7F                 
   811 00000168 0000000000000080FF-    g_r80_Inf: dt 07fff8000000000000000
   812 00000168 7F                 
   813 00000172 00000000000000C0FF-    g_r80_QNaN: dt 07fffc000000000000000
   814 00000172 7F                 
   815 0000017C FFFFFFFFFFFFFFFFFF-    g_r80_QNaNMax: dt 07fffffffffffffffffff
   816 0000017C 7F                 
   817 00000186 00000000000000C0FF-    g_r80_NegQNaN: dt 0ffffc000000000000000
   818 00000186 FF                 
   819 00000190 0100000000000080FF-    g_r80_SNaN: dt 07fff8000000000000001
   820 00000190 7F                 
   821 0000019A FFFFFFFFFFFFFFBFFF-    g_r80_SNaNMax: dt 07fffbfffffffffffffff
   822 0000019A 7F                 
   823 000001A4 010000000000000000-    g_r80_DnMin: dt 000000000000000000001
   824 000001A4 00                 
   825 000001AE FFFFFFFFFFFFFF7F00-    g_r80_DnMax: dt 000007fffffffffffffff
   826 000001AE 00                 
   827                                 
   828 000001B8 CDCC4C40               g_r32V1: dd 3.2
   829 000001BC 3333F3BF               g_r32V2: dd -1.9
   830 000001C0 9A99999999991940       g_r64V1: dq 6.4
   831 000001C8 000000000000008002-    g_r80V1: dt 8.0
   832 000001C8 40                 
   833                                 
   834                                 
   835 000001D2 00002000               g_r32D0: dd 000200000
   836                                 
   837                                 
   838                                 
   839                                 
   840                                 
   841 000001D6 0000000000CDCCCC00-    g_r80_r32_3dot2: dt 04000cccccd0000000000
   842 000001D6 40                 
   843                                 
   844                                 
   845                                 
   846                                 
   847                                 
   848                                 
   849                                 
   850                                 
   851                                 
   852                                 
   853                                 
   854 000001E0 00000000               g_u64Zero: dd 0
   855 000001E4 0000                   g_u32Zero: dw 0
   856 000001E6 02000000               g_u64Two: dd 2
   857 000001EA 0200                   g_u32Two: dw 2
   858                                 
   859                                 
   860                                 
   861                                 
   862                                 
   863                                 [global g_aTrapInfo]
   864                                 %line 150+0 /home/se170/VirtualBox-4.3.28/src/VBox/VMM/testcase/tstX86-1A.asm
   865                                 g_aTrapInfo:
   866                                 %line 151+1 /home/se170/VirtualBox-4.3.28/src/VBox/VMM/testcase/tstX86-1A.asm
   867                                 
   868                                 
   869                                 
   870                                 
   871                                 
   872                                 
   873                                 %line 162+1 /home/se170/VirtualBox-4.3.28/src/VBox/VMM/testcase/tstX86-1A.asm
   874                                 
   875                                 
   876                                 %line 169+1 /home/se170/VirtualBox-4.3.28/src/VBox/VMM/testcase/tstX86-1A.asm
   877                                 
   878                                 
   879                                 
   880                                 
   881                                 
   882                                 
   883                                 
   884                                 
   885                                 %line 184+1 /home/se170/VirtualBox-4.3.28/src/VBox/VMM/testcase/tstX86-1A.asm
   886                                 
   887                                 
   888                                 
   889                                 
   890                                 
   891                                 
   892                                 
   893                                 
   894                                 
   895                                 
   896                                 
   897                                 %line 204+1 /home/se170/VirtualBox-4.3.28/src/VBox/VMM/testcase/tstX86-1A.asm
   898                                 
   899                                 
   900                                 
   901                                 
   902                                 
   903                                 
   904                                 
   905                                 
   906                                 
   907                                 
   908                                 %line 229+1 /home/se170/VirtualBox-4.3.28/src/VBox/VMM/testcase/tstX86-1A.asm
   909                                 
   910                                 
   911                                 
   912                                 
   913                                 
   914                                 
   915                                 
   916                                 %line 252+1 /home/se170/VirtualBox-4.3.28/src/VBox/VMM/testcase/tstX86-1A.asm
   917                                 
   918                                 
   919                                 
   920                                 
   921                                 
   922                                 
   923                                 
   924                                 %line 271+1 /home/se170/VirtualBox-4.3.28/src/VBox/VMM/testcase/tstX86-1A.asm
   925                                 
   926                                 
   927                                 
   928                                 
   929                                 
   930                                 
   931                                 
   932                                 
   933                                 
   934                                 
   935                                 
   936                                 
   937                                 %line 303+1 /home/se170/VirtualBox-4.3.28/src/VBox/VMM/testcase/tstX86-1A.asm
   938                                 
   939                                 
   940                                 
   941                                 
   942                                 
   943                                 
   944                                 
   945                                 
   946                                 
   947                                 
   948                                 %line 324+1 /home/se170/VirtualBox-4.3.28/src/VBox/VMM/testcase/tstX86-1A.asm
   949                                 
   950                                 
   951                                 
   952                                 
   953                                 
   954                                 
   955                                 
   956                                 %line 345+1 /home/se170/VirtualBox-4.3.28/src/VBox/VMM/testcase/tstX86-1A.asm
   957                                 
   958                                 
   959                                 %line 348+1 /home/se170/VirtualBox-4.3.28/src/VBox/VMM/testcase/tstX86-1A.asm
   960                                 
   961                                 %line 350+1 /home/se170/VirtualBox-4.3.28/src/VBox/VMM/testcase/tstX86-1A.asm
   962                                 
   963                                 %line 352+1 /home/se170/VirtualBox-4.3.28/src/VBox/VMM/testcase/tstX86-1A.asm
   964                                 
   965                                 %line 354+1 /home/se170/VirtualBox-4.3.28/src/VBox/VMM/testcase/tstX86-1A.asm
   966                                 
   967                                 %line 356+1 /home/se170/VirtualBox-4.3.28/src/VBox/VMM/testcase/tstX86-1A.asm
   968                                 
   969                                 
   970                                 
   971                                 
   972                                 
   973                                 
   974                                 
   975                                 
   976                                 
   977                                 
   978                                 
   979                                 
   980                                 
   981                                 %line 379+1 /home/se170/VirtualBox-4.3.28/src/VBox/VMM/testcase/tstX86-1A.asm
   982                                 
   983                                 
   984                                 
   985                                 
   986                                 
   987                                 
   988                                 
   989                                 
   990                                 %line 397+1 /home/se170/VirtualBox-4.3.28/src/VBox/VMM/testcase/tstX86-1A.asm
   991                                 
   992                                 
   993                                 
   994                                 
   995                                 
   996                                 
   997                                 
   998                                 
   999                                 %line 415+1 /home/se170/VirtualBox-4.3.28/src/VBox/VMM/testcase/tstX86-1A.asm
  1000                                 
  1001                                 
  1002                                 
  1003                                 
  1004                                 
  1005                                 
  1006                                 
  1007                                 
  1008                                 
  1009                                 
  1010                                 
  1011                                 
  1012                                 %line 439+1 /home/se170/VirtualBox-4.3.28/src/VBox/VMM/testcase/tstX86-1A.asm
  1013                                 
  1014                                 
  1015                                 
  1016                                 
  1017                                 
  1018                                 
  1019                                 
  1020                                 
  1021                                 
  1022                                 
  1023                                 
  1024                                 %line 465+1 /home/se170/VirtualBox-4.3.28/src/VBox/VMM/testcase/tstX86-1A.asm
  1025                                 
  1026                                 
  1027                                 
  1028                                 
  1029                                 
  1030                                 
  1031                                 
  1032                                 
  1033                                 
  1034                                 
  1035                                 
  1036                                 %line 480+1 /home/se170/VirtualBox-4.3.28/src/VBox/VMM/testcase/tstX86-1A.asm
  1037                                 
  1038                                 
  1039                                 
  1040                                 
  1041                                 
  1042                                 
  1043                                 
  1044                                 
  1045                                 
  1046                                 %line 493+1 /home/se170/VirtualBox-4.3.28/src/VBox/VMM/testcase/tstX86-1A.asm
  1047                                 
  1048                                 
  1049                                 
  1050                                 
  1051                                 
  1052                                 
  1053                                 
  1054                                 
  1055                                 %line 505+1 /home/se170/VirtualBox-4.3.28/src/VBox/VMM/testcase/tstX86-1A.asm
  1056                                 
  1057                                 
  1058                                 %line 508+1 /home/se170/VirtualBox-4.3.28/src/VBox/VMM/testcase/tstX86-1A.asm
  1059                                 
  1060                                 %line 510+1 /home/se170/VirtualBox-4.3.28/src/VBox/VMM/testcase/tstX86-1A.asm
  1061                                 
  1062                                 %line 512+1 /home/se170/VirtualBox-4.3.28/src/VBox/VMM/testcase/tstX86-1A.asm
  1063                                 
  1064                                 %line 514+1 /home/se170/VirtualBox-4.3.28/src/VBox/VMM/testcase/tstX86-1A.asm
  1065                                 
  1066                                 
  1067                                 
  1068                                 
  1069                                 
  1070                                 
  1071                                 
  1072                                 
  1073                                 
  1074                                 
  1075                                 %line 536+1 /home/se170/VirtualBox-4.3.28/src/VBox/VMM/testcase/tstX86-1A.asm
  1076                                 
  1077                                 
  1078                                 
  1079                                 
  1080                                 
  1081                                 
  1082                                 
  1083                                 
  1084                                 
  1085                                 %line 557+1 /home/se170/VirtualBox-4.3.28/src/VBox/VMM/testcase/tstX86-1A.asm
  1086                                 
  1087                                 
  1088                                 
  1089                                 
  1090                                 
  1091                                 
  1092                                 
  1093                                 
  1094                                 
  1095                                 
  1096                                 
  1097                                 
  1098                                 %line 573+1 /home/se170/VirtualBox-4.3.28/src/VBox/VMM/testcase/tstX86-1A.asm
  1099                                 
  1100                                 
  1101                                 
  1102                                 
  1103                                 
  1104                                 
  1105                                 
  1106                                 
  1107                                 
  1108                                 %line 586+1 /home/se170/VirtualBox-4.3.28/src/VBox/VMM/testcase/tstX86-1A.asm
  1109                                 
  1110                                 
  1111                                 %line 589+1 /home/se170/VirtualBox-4.3.28/src/VBox/VMM/testcase/tstX86-1A.asm
  1112                                 
  1113                                 %line 591+1 /home/se170/VirtualBox-4.3.28/src/VBox/VMM/testcase/tstX86-1A.asm
  1114                                 
  1115                                 %line 593+1 /home/se170/VirtualBox-4.3.28/src/VBox/VMM/testcase/tstX86-1A.asm
  1116                                 
  1117                                 %line 595+1 /home/se170/VirtualBox-4.3.28/src/VBox/VMM/testcase/tstX86-1A.asm
  1118                                 
  1119                                 
  1120                                 
  1121                                 
  1122                                 
  1123                                 
  1124                                 %line 622+1 /home/se170/VirtualBox-4.3.28/src/VBox/VMM/testcase/tstX86-1A.asm
  1125                                 
  1126                                 
  1127                                 
  1128                                 
  1129                                 
  1130                                 %line 649+1 /home/se170/VirtualBox-4.3.28/src/VBox/VMM/testcase/tstX86-1A.asm
  1131                                 
  1132                                 
  1133                                 
  1134                                 
  1135                                 [section .text]
  1136                                 
  1137                                 
  1138                                 
  1139                                 
  1140                                 x861_LoadUniqueRegValues:
  1141                                 %line 660+1 /home/se170/VirtualBox-4.3.28/src/VBox/VMM/testcase/tstX86-1A.asm
  1142 00000000 48C7C000000000          mov rax, 00000000000000000
  1143 00000007 48B911111111111111-     mov rcx, 01111111111111111
  1144 00000007 11                 
  1145 00000011 48BA22222222222222-     mov rdx, 02222222222222222
  1146 00000011 22                 
  1147 0000001B 48BB33333333333333-     mov rbx, 03333333333333333
  1148 0000001B 33                 
  1149 00000025 48BE66666666666666-     mov rsi, 06666666666666666
  1150 00000025 66                 
  1151 0000002F 48BF77777777777777-     mov rdi, 07777777777777777
  1152 0000002F 77                 
  1153 00000039 49B888888888888888-     mov r8, 08888888888888888
  1154 00000039 88                 
  1155 00000043 49B999999999999999-     mov r9, 09999999999999999
  1156 00000043 99                 
  1157 0000004D 49BAAAAAAAAAAAAAAA-     mov r10, 0aaaaaaaaaaaaaaaa
  1158 0000004D AA                 
  1159 00000057 49BBBBBBBBBBBBBBBB-     mov r11, 0bbbbbbbbbbbbbbbb
  1160 00000057 BB                 
  1161 00000061 49BCCCCCCCCCCCCCCC-     mov r12, 0cccccccccccccccc
  1162 00000061 CC                 
  1163 0000006B 49BDDDDDDDDDDDDDDD-     mov r13, 0dddddddddddddddd
  1164 0000006B DD                 
  1165 00000075 49BEEEEEEEEEEEEEEE-     mov r14, 0eeeeeeeeeeeeeeee
  1166 00000075 EE                 
  1167 0000007F 49BFFFFFFFFFFFFFFF-     mov r15, 0ffffffffffffffff
  1168 0000007F FF                 
  1169                                 %line 682+1 /home/se170/VirtualBox-4.3.28/src/VBox/VMM/testcase/tstX86-1A.asm
  1170 00000089 C3                      ret
  1171                                 
  1172                                 
  1173                                 
  1174                                 
  1175                                 
  1176                                 
  1177                                 x861_ClearRegisters:
  1178 0000008A 31C0                    xor eax, eax
  1179 0000008C 31DB                    xor ebx, ebx
  1180 0000008E 31C9                    xor ecx, ecx
  1181 00000090 31D2                    xor edx, edx
  1182 00000092 31F6                    xor esi, esi
  1183 00000094 31FF                    xor edi, edi
  1184                                 %line 697+1 /home/se170/VirtualBox-4.3.28/src/VBox/VMM/testcase/tstX86-1A.asm
  1185 00000096 4D31C0                  xor r8, r8
  1186 00000099 4D31C9                  xor r9, r9
  1187 0000009C 4D31D2                  xor r10, r10
  1188 0000009F 4D31DB                  xor r11, r11
  1189 000000A2 4D31E4                  xor r12, r12
  1190 000000A5 4D31ED                  xor r13, r13
  1191 000000A8 4D31F6                  xor r14, r14
  1192 000000AB 4D31FF                  xor r15, r15
  1193                                 %line 706+1 /home/se170/VirtualBox-4.3.28/src/VBox/VMM/testcase/tstX86-1A.asm
  1194 000000AE C3                      ret
  1195                                 
  1196                                 
  1197                                 
  1198                                 
  1199                                 
  1200                                 
  1201                                 x861_LoadUniqueRegValuesSSE:
  1202 000000AF DBE3                    fninit
  1203 000000B1 0F6F05B3000000          movq mm0, [._mm0 wrt rip]
  1204 000000B8 0F6F0DB4000000          movq mm1, [._mm1 wrt rip]
  1205 000000BF 0F6F15B5000000          movq mm2, [._mm2 wrt rip]
  1206 000000C6 0F6F1DB6000000          movq mm3, [._mm3 wrt rip]
  1207 000000CD 0F6F25B7000000          movq mm4, [._mm4 wrt rip]
  1208 000000D4 0F6F2DB8000000          movq mm5, [._mm5 wrt rip]
  1209 000000DB 0F6F35B9000000          movq mm6, [._mm6 wrt rip]
  1210 000000E2 0F6F3DBA000000          movq mm7, [._mm7 wrt rip]
  1211 000000E9 F30F6F05B9000000        movdqu xmm0, [._xmm0 wrt rip]
  1212 000000F1 F30F6F0DC1000000        movdqu xmm1, [._xmm1 wrt rip]
  1213 000000F9 F30F6F15C9000000        movdqu xmm2, [._xmm2 wrt rip]
  1214 00000101 F30F6F1DD1000000        movdqu xmm3, [._xmm3 wrt rip]
  1215 00000109 F30F6F25D9000000        movdqu xmm4, [._xmm4 wrt rip]
  1216 00000111 F30F6F2DE1000000        movdqu xmm5, [._xmm5 wrt rip]
  1217 00000119 F30F6F35E9000000        movdqu xmm6, [._xmm6 wrt rip]
  1218 00000121 F30F6F3DF1000000        movdqu xmm7, [._xmm7 wrt rip]
  1219                                 %line 732+1 /home/se170/VirtualBox-4.3.28/src/VBox/VMM/testcase/tstX86-1A.asm
  1220 00000129 F3440F6F05F7000000      movdqu xmm8, [._xmm8 wrt rip]
  1221 00000132 F3440F6F0DFE000000      movdqu xmm9, [._xmm9 wrt rip]
  1222 0000013B F3440F6F1505010000      movdqu xmm10, [._xmm10 wrt rip]
  1223 00000144 F3440F6F1D0C010000      movdqu xmm11, [._xmm11 wrt rip]
  1224 0000014D F3440F6F2513010000      movdqu xmm12, [._xmm12 wrt rip]
  1225 00000156 F3440F6F2D1A010000      movdqu xmm13, [._xmm13 wrt rip]
  1226 0000015F F3440F6F3521010000      movdqu xmm14, [._xmm14 wrt rip]
  1227 00000168 F3440F6F3D28010000      movdqu xmm15, [._xmm15 wrt rip]
  1228                                 %line 741+1 /home/se170/VirtualBox-4.3.28/src/VBox/VMM/testcase/tstX86-1A.asm
  1229 00000171 C3                      ret
  1230 00000172 40<rept>               ._mm0: times 8 db 040
  1231 0000017A 41<rept>               ._mm1: times 8 db 041
  1232 00000182 42<rept>               ._mm2: times 8 db 042
  1233 0000018A 43<rept>               ._mm3: times 8 db 043
  1234 00000192 44<rept>               ._mm4: times 8 db 044
  1235 0000019A 45<rept>               ._mm5: times 8 db 045
  1236 000001A2 46<rept>               ._mm6: times 8 db 046
  1237 000001AA 47<rept>               ._mm7: times 8 db 047
  1238 000001B2 80<rept>               ._xmm0: times 16 db 080
  1239 000001C2 81<rept>               ._xmm1: times 16 db 081
  1240 000001D2 82<rept>               ._xmm2: times 16 db 082
  1241 000001E2 83<rept>               ._xmm3: times 16 db 083
  1242 000001F2 84<rept>               ._xmm4: times 16 db 084
  1243 00000202 85<rept>               ._xmm5: times 16 db 085
  1244 00000212 86<rept>               ._xmm6: times 16 db 086
  1245 00000222 87<rept>               ._xmm7: times 16 db 087
  1246                                 %line 759+1 /home/se170/VirtualBox-4.3.28/src/VBox/VMM/testcase/tstX86-1A.asm
  1247 00000232 88<rept>               ._xmm8: times 16 db 088
  1248 00000242 89<rept>               ._xmm9: times 16 db 089
  1249 00000252 8A<rept>               ._xmm10: times 16 db 08a
  1250 00000262 8B<rept>               ._xmm11: times 16 db 08b
  1251 00000272 8C<rept>               ._xmm12: times 16 db 08c
  1252 00000282 8D<rept>               ._xmm13: times 16 db 08d
  1253 00000292 8E<rept>               ._xmm14: times 16 db 08e
  1254 000002A2 8F<rept>               ._xmm15: times 16 db 08f
  1255                                 %line 768+1 /home/se170/VirtualBox-4.3.28/src/VBox/VMM/testcase/tstX86-1A.asm
  1256                                 
  1257                                 
  1258                                 
  1259                                 
  1260                                 
  1261                                 
  1262                                 x861_ClearRegistersSSE:
  1263 000002B2 DBE3                    fninit
  1264 000002B4 0F6F05B4000000          movq mm0, [.zero wrt rip]
  1265 000002BB 0F6F0DAD000000          movq mm1, [.zero wrt rip]
  1266 000002C2 0F6F15A6000000          movq mm2, [.zero wrt rip]
  1267 000002C9 0F6F1D9F000000          movq mm3, [.zero wrt rip]
  1268 000002D0 0F6F2598000000          movq mm4, [.zero wrt rip]
  1269 000002D7 0F6F2D91000000          movq mm5, [.zero wrt rip]
  1270 000002DE 0F6F358A000000          movq mm6, [.zero wrt rip]
  1271 000002E5 0F6F3D83000000          movq mm7, [.zero wrt rip]
  1272 000002EC F30F6F057A000000        movdqu xmm0, [.zero wrt rip]
  1273 000002F4 F30F6F0D72000000        movdqu xmm1, [.zero wrt rip]
  1274 000002FC F30F6F156A000000        movdqu xmm2, [.zero wrt rip]
  1275 00000304 F30F6F1D62000000        movdqu xmm3, [.zero wrt rip]
  1276 0000030C F30F6F255A000000        movdqu xmm4, [.zero wrt rip]
  1277 00000314 F30F6F2D52000000        movdqu xmm5, [.zero wrt rip]
  1278 0000031C F30F6F354A000000        movdqu xmm6, [.zero wrt rip]
  1279 00000324 F30F6F3D42000000        movdqu xmm7, [.zero wrt rip]
  1280                                 %line 793+1 /home/se170/VirtualBox-4.3.28/src/VBox/VMM/testcase/tstX86-1A.asm
  1281 0000032C F3440F6F0538000000      movdqu xmm8, [.zero wrt rip]
  1282 00000335 F3440F6F0D2F000000      movdqu xmm9, [.zero wrt rip]
  1283 0000033E F3440F6F1526000000      movdqu xmm10, [.zero wrt rip]
  1284 00000347 F3440F6F1D1D000000      movdqu xmm11, [.zero wrt rip]
  1285 00000350 F3440F6F2514000000      movdqu xmm12, [.zero wrt rip]
  1286 00000359 F3440F6F2D0B000000      movdqu xmm13, [.zero wrt rip]
  1287 00000362 F3440F6F3502000000      movdqu xmm14, [.zero wrt rip]
  1288 0000036B F3440F6F3DF9FFFFFF      movdqu xmm15, [.zero wrt rip]
  1289                                 %line 802+1 /home/se170/VirtualBox-4.3.28/src/VBox/VMM/testcase/tstX86-1A.asm
  1290 00000374 C3                      ret
  1291                                 
  1292 00000375 C3                      ret
  1293 00000376 00<rept>               .zero times 16 db 000
  1294                                 
  1295                                 
  1296                                 
  1297                                 
  1298                                 
  1299                                 
  1300                                 x861_LoadUniqueRegValuesSSEAndGRegs:
  1301 00000386 E81FFDFFFF              call x861_LoadUniqueRegValuesSSE
  1302 0000038B E86BFCFFFF              call x861_LoadUniqueRegValues
  1303 00000390 C3                      ret
  1304                                 
  1305                                 
  1306                                 
  1307                                 
  1308                                 x861_ClearRegistersSSEAndGRegs:
  1309 00000391 E817FFFFFF              call x861_ClearRegistersSSE
  1310 00000396 E8EAFCFFFF              call x861_ClearRegisters
  1311 0000039B C3                      ret
  1312                                 
  1313                                 [global x861_Test1:function hidden]
  1314                                 %line 825+0 /home/se170/VirtualBox-4.3.28/src/VBox/VMM/testcase/tstX86-1A.asm
  1315                                 x861_Test1:
  1316                                 %line 826+1 /home/se170/VirtualBox-4.3.28/src/VBox/VMM/testcase/tstX86-1A.asm
  1317 0000039C 55                      push rbp
  1318 0000039D 4889E5                  mov rbp, rsp
  1319 000003A0 9C                      pushf
  1320 000003A1 53                      push rbx
  1321 000003A2 51                      push rcx
  1322 000003A3 52                      push rdx
  1323 000003A4 56                      push rsi
  1324 000003A5 57                      push rdi
  1325                                 %line 835+1 /home/se170/VirtualBox-4.3.28/src/VBox/VMM/testcase/tstX86-1A.asm
  1326 000003A6 4150                    push r8
  1327 000003A8 4151                    push r9
  1328 000003AA 4152                    push r10
  1329 000003AC 4153                    push r11
  1330 000003AE 4154                    push r12
  1331 000003B0 4155                    push r13
  1332 000003B2 4156                    push r14
  1333 000003B4 4157                    push r15
  1334                                 %line 844+1 /home/se170/VirtualBox-4.3.28/src/VBox/VMM/testcase/tstX86-1A.asm
  1335                                 
  1336                                 
  1337                                 
  1338                                 
  1339                                 %line 907+1 /home/se170/VirtualBox-4.3.28/src/VBox/VMM/testcase/tstX86-1A.asm
  1340                                 
  1341                                 %line 909+1 /home/se170/VirtualBox-4.3.28/src/VBox/VMM/testcase/tstX86-1A.asm
  1342                                 
  1343 000003B6 E840FCFFFF              call x861_LoadUniqueRegValues
  1344 000003BB B88F030000              mov eax, 911
  1345 000003C0 51                      push rcx
  1346 000003C1 5A                      pop rdx
  1347 000003C2 4839CA                  cmp rdx, rcx
  1348 000003C5 0F8560040000            jne .failed
  1349                                 
  1350 000003CB E82BFCFFFF              call x861_LoadUniqueRegValues
  1351 000003D0 B896030000              mov eax, 918
  1352 000003D5 41                      db 041
  1353 000003D6 51                      push rcx
  1354 000003D7 5A                      pop rdx
  1355 000003D8 4C39CA                  cmp rdx, r9
  1356 000003DB 0F854A040000            jne .failed
  1357                                 
  1358 000003E1 E815FCFFFF              call x861_LoadUniqueRegValues
  1359 000003E6 B89E030000              mov eax, 926
  1360 000003EB 42                      db 042
  1361 000003EC 51                      push rcx
  1362 000003ED 5A                      pop rdx
  1363 000003EE 4839CA                  cmp rdx, rcx
  1364 000003F1 0F8534040000            jne .failed
  1365                                 
  1366 000003F7 E8FFFBFFFF              call x861_LoadUniqueRegValues
  1367 000003FC B8A6030000              mov eax, 934
  1368 00000401 44                      db 044
  1369 00000402 51                      push rcx
  1370 00000403 5A                      pop rdx
  1371 00000404 4839CA                  cmp rdx, rcx
  1372 00000407 0F851E040000            jne .failed
  1373                                 
  1374 0000040D E8E9FBFFFF              call x861_LoadUniqueRegValues
  1375 00000412 B8AE030000              mov eax, 942
  1376 00000417 48                      db 048
  1377 00000418 51                      push rcx
  1378 00000419 5A                      pop rdx
  1379 0000041A 4839CA                  cmp rdx, rcx
  1380 0000041D 0F8508040000            jne .failed
  1381                                 
  1382 00000423 E8D3FBFFFF              call x861_LoadUniqueRegValues
  1383 00000428 B8B6030000              mov eax, 950
  1384 0000042D 4F                      db 04f
  1385 0000042E 51                      push rcx
  1386 0000042F 5A                      pop rdx
  1387 00000430 4C39CA                  cmp rdx, r9
  1388 00000433 0F85F2030000            jne .failed
  1389                                 %line 957+1 /home/se170/VirtualBox-4.3.28/src/VBox/VMM/testcase/tstX86-1A.asm
  1390                                 
  1391                                 
  1392                                 
  1393                                 
  1394 00000439 E8BDFBFFFF              call x861_LoadUniqueRegValues
  1395 0000043E B8C2030000              mov eax, 962
  1396 00000443 8CD9                    mov ecx, ds
  1397 00000445 48C1E910                shr rcx, 16
  1398 00000449 4883F900                cmp rcx, 0
  1399 0000044D 0F85D8030000            jnz .failed
  1400                                 
  1401                                 %line 969+1 /home/se170/VirtualBox-4.3.28/src/VBox/VMM/testcase/tstX86-1A.asm
  1402 00000453 E8A3FBFFFF              call x861_LoadUniqueRegValues
  1403 00000458 B8CA030000              mov eax, 970
  1404 0000045D 488CD9                  mov rcx, ds
  1405 00000460 48C1E910                shr rcx, 16
  1406 00000464 4883F900                cmp rcx, 0
  1407 00000468 0F85BD030000            jnz .failed
  1408                                 %line 976+1 /home/se170/VirtualBox-4.3.28/src/VBox/VMM/testcase/tstX86-1A.asm
  1409                                 
  1410 0000046E E888FBFFFF              call x861_LoadUniqueRegValues
  1411 00000473 B8D2030000              mov eax, 978
  1412 00000478 4889CA                  mov rdx, rcx
  1413 0000047B 668CD9                  mov cx, ds
  1414 0000047E 48C1E910                shr rcx, 16
  1415 00000482 48C1EA10                shr rdx, 16
  1416 00000486 4839D1                  cmp rcx, rdx
  1417 00000489 0F859C030000            jnz .failed
  1418                                 
  1419                                 
  1420 0000048F B8DB030000              mov eax, 987
  1421 00000494 488B3D(F2FFFFFF)        mov rdi, [g_pbEfPage wrt rip]
  1422 0000049B 488DBFFE0F0000          lea rdi, [rdi + 0x1000 - 2]
  1423 000004A2 488CC2                  mov rdx, es
  1424 000004A5 668917                  mov [rdi], dx
  1425 000004A8 8E07                    mov es, [rdi]
  1426                                 
  1427                                 
  1428 000004AA B8E3030000              mov eax, 995
  1429 000004AF 488B3D(F2FFFFFF)        mov rdi, [g_pbEfPage wrt rip]
  1430 000004B6 C787FC0F0000FFFFFF-     mov dword [rdi + 0x1000 - 4], -1
  1431 000004B6 FF                 
  1432 000004C0 8C97FE0F0000            mov [rdi + 0x1000 - 2], ss
  1433 000004C6 668CD3                  mov bx, ss
  1434 000004C9 668B8FFE0F0000          mov cx, [rdi + 0x1000 - 2]
  1435 000004D0 6639D9                  cmp cx, bx
  1436 000004D3 0F8552030000            jne .failed
  1437                                 
  1438                                 %line 1005+1 /home/se170/VirtualBox-4.3.28/src/VBox/VMM/testcase/tstX86-1A.asm
  1439                                 
  1440 000004D9 E8A7FBFFFF              call x861_ClearRegisters
  1441 000004DE B8EF030000              mov eax, 1007
  1442 000004E3 488B3D(F2FFFFFF)        mov rdi, [g_pbEfPage wrt rip]
  1443 000004EA C787FC0F0000FFFFFF-     mov dword [rdi + 0x1000 - 4], -1
  1444 000004EA FF                 
  1445 000004F4 4A                      db 04a
  1446 000004F5 8C97FE0F0000            mov [rdi + 0x1000 - 2], ss
  1447 000004FB 668CD3                  mov bx, ss
  1448 000004FE 668B8FFE0F0000          mov cx, [rdi + 0x1000 - 2]
  1449 00000505 6639D9                  cmp cx, bx
  1450 00000508 0F851D030000            jne .failed
  1451                                 %line 1017+1 /home/se170/VirtualBox-4.3.28/src/VBox/VMM/testcase/tstX86-1A.asm
  1452                                 
  1453                                 
  1454                                 
  1455                                 
  1456                                 
  1457 0000050E FC                      cld
  1458 0000050F 668CDA                  mov dx, ds
  1459 00000512 8EC2                    mov es, dx
  1460                                 
  1461                                 
  1462 00000514 488D3D(F2FFFFFF)        lea rdi, [g_szAlpha wrt rip]
  1463 0000051B 31C0                    xor eax, eax
  1464 0000051D B91C000000              mov ecx, (g_szAlpha_end - g_szAlpha) + 1
  1465 00000522 F2AE                    repne scasb
  1466 00000524 83F901                  cmp ecx, 1
  1467 00000527 B808040000              mov eax, 1032
  1468 0000052C 0F85F9020000            jne .failed
  1469                                 
  1470                                 
  1471 00000532 488D3D(F2FFFFFF)        lea rdi, [g_szAlpha wrt rip]
  1472 00000539 31C0                    xor eax, eax
  1473 0000053B B91C000000              mov ecx, (g_szAlpha_end - g_szAlpha) + 1
  1474 00000540 F3AE                    repe scasb
  1475 00000542 83F91B                  cmp ecx, (g_szAlpha_end - g_szAlpha)
  1476 00000545 B811040000              mov eax, 1041
  1477 0000054A 0F85DB020000            jne .failed
  1478                                 
  1479                                 
  1480 00000550 488D3D(F2FFFFFF)        lea rdi, [g_szAlpha wrt rip]
  1481 00000557 31C0                    xor eax, eax
  1482 00000559 B91C000000              mov ecx, (g_szAlpha_end - g_szAlpha) + 1
  1483 0000055E F3                      db 0f3
  1484 0000055F F2                      db 0f2
  1485 00000560 AE                      scasb
  1486 00000561 83F901                  cmp ecx, 1
  1487 00000564 B81C040000              mov eax, 1052
  1488 00000569 0F85BC020000            jne .failed
  1489                                 
  1490                                 
  1491 0000056F 488D3D(F2FFFFFF)        lea rdi, [g_szAlpha wrt rip]
  1492 00000576 31C0                    xor eax, eax
  1493 00000578 B91C000000              mov ecx, (g_szAlpha_end - g_szAlpha) + 1
  1494 0000057D F2                      db 0f2
  1495 0000057E F3                      db 0f3
  1496 0000057F AE                      scasb
  1497 00000580 83F91B                  cmp ecx, (g_szAlpha_end - g_szAlpha)
  1498 00000583 B827040000              mov eax, 1063
  1499 00000588 0F859D020000            jne .failed
  1500                                 
  1501                                 
  1502                                 
  1503                                 
  1504 0000058E FC                      cld
  1505 0000058F 668CDA                  mov dx, ds
  1506 00000592 8EC2                    mov es, dx
  1507 00000594 488B3D(F2FFFFFF)        mov rdi, [g_pbEfPage wrt rip]
  1508 0000059B 31C0                    xor eax, eax
  1509 0000059D B900100000              mov ecx, 01000
  1510 000005A2 F3AA                    rep stosb
  1511                                 
  1512 000005A4 488B3D(F2FFFFFF)        mov rdi, [g_pbEfPage wrt rip]
  1513 000005AB B904000000              mov ecx, 4
  1514 000005B0 B8FF000000              mov eax, 0ff
  1515 000005B5 F2                      db 0f2
  1516 000005B6 AA                      stosb
  1517 000005B7 B83A040000              mov eax, 1082
  1518 000005BC 83F900                  cmp ecx, 0
  1519 000005BF 0F8566020000            jne .failed
  1520 000005C5 B83D040000              mov eax, 1085
  1521 000005CA 488B3D(F2FFFFFF)        mov rdi, [g_pbEfPage wrt rip]
  1522 000005D1 813FFFFFFFFF            cmp dword [rdi], 0ffffffff
  1523 000005D7 0F854E020000            jne .failed
  1524 000005DD 837F0400                cmp dword [rdi+4], 0
  1525 000005E1 0F8544020000            jne .failed
  1526                                 
  1527 000005E7 488B3D(F2FFFFFF)        mov rdi, [g_pbEfPage wrt rip]
  1528 000005EE B904000000              mov ecx, 4
  1529 000005F3 B8FE000000              mov eax, 0fe
  1530 000005F8 F3                      db 0f3
  1531 000005F9 AA                      stosb
  1532 000005FA B849040000              mov eax, 1097
  1533 000005FF 83F900                  cmp ecx, 0
  1534 00000602 0F8523020000            jne .failed
  1535 00000608 B84C040000              mov eax, 1100
  1536 0000060D 488B3D(F2FFFFFF)        mov rdi, [g_pbEfPage wrt rip]
  1537 00000614 813FFEFEFEFE            cmp dword [rdi], 0fefefefe
  1538 0000061A 0F850B020000            jne .failed
  1539 00000620 837F0400                cmp dword [rdi+4], 0
  1540 00000624 0F8501020000            jne .failed
  1541                                 
  1542                                 
  1543                                 
  1544                                 
  1545 0000062A B856040000              mov eax, 1110
  1546 0000062F FC                      cld
  1547 00000630 668CDA                  mov dx, ds
  1548 00000633 8EC2                    mov es, dx
  1549 00000635 488B3D(F2FFFFFF)        mov rdi, [g_pbEfPage wrt rip]
  1550 0000063C 4831C9                  xor rcx, rcx
  1551 0000063F F3AA                    rep stosb
  1552                                 
  1553                                 
  1554                                 
  1555                                 
  1556 00000641 B861040000              mov eax, 1121
  1557 00000646 FC                      cld
  1558 00000647 668CD2                  mov dx, ss
  1559 0000064A 8ED2                    mov ss, dx
  1560 0000064C 4889E7                  mov rdi, rsp
  1561 0000064F 4831C9                  xor rcx, rcx
  1562                                 ..@33.trap:
  1563                                 %line 1127+0 /home/se170/VirtualBox-4.3.28/src/VBox/VMM/testcase/tstX86-1A.asm
  1564 00000652 F36C                    rep insb
  1565                                 ..@33.trap_end:
  1566 00000654 B867040000              mov eax, 1127
  1567 00000659 E9B1010000              jmp .return
  1568                                 [section .data]
  1569                                 ..@33.trapinfo: 
  1570                                 ..@37.strucstart:
  1571 000001EC [0000000000000000]     dq ..@33.trap
  1572 000001F4 [0000000000000000]     dq ..@33.resume
  1573 000001FC 0D                     db 0x0d
  1574 000001FD 02                     db (..@33.trap_end - ..@33.trap)
  1575 000001FE 00<rept>               times TRAPINFO_size-($-..@37.strucstart) db 0
  1576                                 [section .text]
  1577                                 ..@33.resume:
  1578                                 %line 1128+1 /home/se170/VirtualBox-4.3.28/src/VBox/VMM/testcase/tstX86-1A.asm
  1579                                 
  1580                                 
  1581                                 
  1582                                 
  1583 0000065E B86C040000              mov eax, 1132
  1584 00000663 4831DB                  xor rbx, rbx
  1585 00000666 480F01E3                smsw rbx
  1586 0000066A F7C300000080            test ebx, (1 << 31)
  1587 00000670 0F84B5010000            jz .failed
  1588 00000676 F7C301000000            test ebx, (1 << 0)
  1589 0000067C 0F84A9010000            jz .failed
  1590                                 
  1591                                 
  1592                                 
  1593                                 
  1594                                 
  1595                                 
  1596 00000682 B879040000              mov eax, 1145
  1597 00000687 488B3D(F2FFFFFF)        mov rdi, [g_pbEfExecPage wrt rip]
  1598 0000068E 4881C7F80F0000          add rdi, 1000
  1599 00000695 C607F0                  mov byte [rdi+0], 0f0
  1600 00000698 C6470102                mov byte [rdi+1], 002
  1601 0000069C C647028F                mov byte [rdi+2], 08f
  1602 000006A0 C7470300000000          mov dword [rdi+3], 000000000
  1603 000006A7 C64707CC                mov byte [rdi+7], 0cc
  1604                                 ..@45.trap:
  1605                                 %line 1153+0 /home/se170/VirtualBox-4.3.28/src/VBox/VMM/testcase/tstX86-1A.asm
  1606 000006AB FFD7                    call rdi
  1607                                 ..@45.trap_end:
  1608 000006AD B881040000              mov eax, 1153
  1609 000006B2 E958010000              jmp .return
  1610                                 [section .data]
  1611                                 ..@45.trapinfo: 
  1612                                 ..@49.strucstart:
  1613 0000020C [0000000000000000]     dq ..@45.trap
  1614 00000214 [0000000000000000]     dq ..@45.resume
  1615 0000021C 06                     db 0x06
  1616 0000021D 02                     db (..@45.trap_end - ..@45.trap)
  1617 0000021E 00<rept>               times TRAPINFO_size-($-..@49.strucstart) db 0
  1618                                 [section .text]
  1619                                 ..@45.resume:
  1620                                 %line 1154+1 /home/se170/VirtualBox-4.3.28/src/VBox/VMM/testcase/tstX86-1A.asm
  1621                                 
  1622 000006B7 B883040000              mov eax, 1155
  1623 000006BC 488B3D(F2FFFFFF)        mov rdi, [g_pbEfExecPage wrt rip]
  1624 000006C3 4881C7F90F0000          add rdi, 1000
  1625 000006CA C607F0                  mov byte [rdi+0], 0f0
  1626 000006CD C6470102                mov byte [rdi+1], 002
  1627 000006D1 C647028F                mov byte [rdi+2], 08F
  1628 000006D5 C7470300000000          mov dword [rdi+3], 000000000
  1629                                 ..@57.trap:
  1630                                 %line 1162+0 /home/se170/VirtualBox-4.3.28/src/VBox/VMM/testcase/tstX86-1A.asm
  1631 000006DC FFD7                    call rdi
  1632                                 ..@57.trap_end:
  1633 000006DE B88A040000              mov eax, 1162
  1634 000006E3 E927010000              jmp .return
  1635                                 [section .data]
  1636                                 ..@57.trapinfo: 
  1637                                 ..@61.strucstart:
  1638 0000022C [0000000000000000]     dq ..@57.trap
  1639 00000234 [0000000000000000]     dq ..@57.resume
  1640 0000023C 06                     db 0x06
  1641 0000023D 02                     db (..@57.trap_end - ..@57.trap)
  1642 0000023E 00<rept>               times TRAPINFO_size-($-..@61.strucstart) db 0
  1643                                 [section .text]
  1644                                 ..@57.resume:
  1645                                 %line 1163+1 /home/se170/VirtualBox-4.3.28/src/VBox/VMM/testcase/tstX86-1A.asm
  1646                                 
  1647 000006E8 B88C040000              mov eax, 1164
  1648 000006ED 488B3D(F2FFFFFF)        mov rdi, [g_pbEfExecPage wrt rip]
  1649 000006F4 4881C7FC0F0000          add rdi, 1000
  1650 000006FB C607F0                  mov byte [rdi+0], 0f0
  1651 000006FE C6470102                mov byte [rdi+1], 002
  1652 00000702 C647028F                mov byte [rdi+2], 08F
  1653 00000706 C6470300                mov byte [rdi+3], 000
  1654                                 ..@69.trap:
  1655                                 %line 1171+0 /home/se170/VirtualBox-4.3.28/src/VBox/VMM/testcase/tstX86-1A.asm
  1656 0000070A FFD7                    call rdi
  1657                                 ..@69.trap_end:
  1658 0000070C B893040000              mov eax, 1171
  1659 00000711 E9F9000000              jmp .return
  1660                                 [section .data]
  1661                                 ..@69.trapinfo: 
  1662                                 ..@73.strucstart:
  1663 0000024C [0000000000000000]     dq ..@69.trap
  1664 00000254 [0000000000000000]     dq ..@69.resume
  1665 0000025C 0E                     db 0x0e
  1666 0000025D 02                     db (..@69.trap_end - ..@69.trap)
  1667 0000025E 00<rept>               times TRAPINFO_size-($-..@73.strucstart) db 0
  1668                                 [section .text]
  1669                                 ..@69.resume:
  1670                                 %line 1172+1 /home/se170/VirtualBox-4.3.28/src/VBox/VMM/testcase/tstX86-1A.asm
  1671                                 
  1672 00000716 B895040000              mov eax, 1173
  1673 0000071B 488B3D(F2FFFFFF)        mov rdi, [g_pbEfExecPage wrt rip]
  1674 00000722 4881C7FA0F0000          add rdi, 1000
  1675 00000729 C607F0                  mov byte [rdi+0], 0f0
  1676 0000072C C6470102                mov byte [rdi+1], 002
  1677 00000730 C647028F                mov byte [rdi+2], 08F
  1678 00000734 C6470300                mov byte [rdi+3], 00
  1679 00000738 C6470400                mov byte [rdi+4], 00
  1680 0000073C C6470500                mov byte [rdi+5], 00
  1681                                 ..@81.trap:
  1682                                 %line 1182+0 /home/se170/VirtualBox-4.3.28/src/VBox/VMM/testcase/tstX86-1A.asm
  1683 00000740 FFD7                    call rdi
  1684                                 ..@81.trap_end:
  1685 00000742 B89E040000              mov eax, 1182
  1686 00000747 E9C3000000              jmp .return
  1687                                 [section .data]
  1688                                 ..@81.trapinfo: 
  1689                                 ..@85.strucstart:
  1690 0000026C [0000000000000000]     dq ..@81.trap
  1691 00000274 [0000000000000000]     dq ..@81.resume
  1692 0000027C 0E                     db 0x0e
  1693 0000027D 02                     db (..@81.trap_end - ..@81.trap)
  1694 0000027E 00<rept>               times TRAPINFO_size-($-..@85.strucstart) db 0
  1695                                 [section .text]
  1696                                 ..@81.resume:
  1697                                 %line 1183+1 /home/se170/VirtualBox-4.3.28/src/VBox/VMM/testcase/tstX86-1A.asm
  1698                                 
  1699 0000074C B8A0040000              mov eax, 1184
  1700 00000751 488B3D(F2FFFFFF)        mov rdi, [g_pbEfExecPage wrt rip]
  1701 00000758 4881C7FB0F0000          add rdi, 1000
  1702 0000075F C607F0                  mov byte [rdi+0], 0f0
  1703 00000762 C6470102                mov byte [rdi+1], 002
  1704 00000766 C647028F                mov byte [rdi+2], 08F
  1705 0000076A C6470300                mov byte [rdi+3], 00
  1706 0000076E C6470400                mov byte [rdi+4], 00
  1707                                 ..@93.trap:
  1708                                 %line 1192+0 /home/se170/VirtualBox-4.3.28/src/VBox/VMM/testcase/tstX86-1A.asm
  1709 00000772 FFD7                    call rdi
  1710                                 ..@93.trap_end:
  1711 00000774 B8A8040000              mov eax, 1192
  1712 00000779 E991000000              jmp .return
  1713                                 [section .data]
  1714                                 ..@93.trapinfo: 
  1715                                 ..@97.strucstart:
  1716 0000028C [0000000000000000]     dq ..@93.trap
  1717 00000294 [0000000000000000]     dq ..@93.resume
  1718 0000029C 0E                     db 0x0e
  1719 0000029D 02                     db (..@93.trap_end - ..@93.trap)
  1720 0000029E 00<rept>               times TRAPINFO_size-($-..@97.strucstart) db 0
  1721                                 [section .text]
  1722                                 ..@93.resume:
  1723                                 %line 1193+1 /home/se170/VirtualBox-4.3.28/src/VBox/VMM/testcase/tstX86-1A.asm
  1724                                 
  1725 0000077E B8AA040000              mov eax, 1194
  1726 00000783 488B3D(F2FFFFFF)        mov rdi, [g_pbEfExecPage wrt rip]
  1727 0000078A 4881C7FC0F0000          add rdi, 1000
  1728 00000791 C607F0                  mov byte [rdi+0], 0f0
  1729 00000794 C6470102                mov byte [rdi+1], 002
  1730 00000798 C647028F                mov byte [rdi+2], 08F
  1731 0000079C C6470300                mov byte [rdi+3], 00
  1732                                 ..@105.trap:
  1733                                 %line 1201+0 /home/se170/VirtualBox-4.3.28/src/VBox/VMM/testcase/tstX86-1A.asm
  1734 000007A0 FFD7                    call rdi
  1735                                 ..@105.trap_end:
  1736 000007A2 B8B1040000              mov eax, 1201
  1737 000007A7 EB69                    jmp .return
  1738                                 [section .data]
  1739                                 ..@105.trapinfo: 
  1740                                 ..@109.strucstart:
  1741 000002AC [0000000000000000]     dq ..@105.trap
  1742 000002B4 [0000000000000000]     dq ..@105.resume
  1743 000002BC 0E                     db 0x0e
  1744 000002BD 02                     db (..@105.trap_end - ..@105.trap)
  1745 000002BE 00<rept>               times TRAPINFO_size-($-..@109.strucstart) db 0
  1746                                 [section .text]
  1747                                 ..@105.resume:
  1748                                 %line 1202+1 /home/se170/VirtualBox-4.3.28/src/VBox/VMM/testcase/tstX86-1A.asm
  1749                                 
  1750 000007A9 B8B3040000              mov eax, 1203
  1751 000007AE 488B3D(F2FFFFFF)        mov rdi, [g_pbEfExecPage wrt rip]
  1752 000007B5 4881C7FD0F0000          add rdi, 1000
  1753 000007BC C607F0                  mov byte [rdi+0], 0f0
  1754 000007BF C6470102                mov byte [rdi+1], 002
  1755 000007C3 C647028F                mov byte [rdi+2], 08F
  1756                                 ..@117.trap:
  1757                                 %line 1209+0 /home/se170/VirtualBox-4.3.28/src/VBox/VMM/testcase/tstX86-1A.asm
  1758 000007C7 FFD7                    call rdi
  1759                                 ..@117.trap_end:
  1760 000007C9 B8B9040000              mov eax, 1209
  1761 000007CE EB42                    jmp .return
  1762                                 [section .data]
  1763                                 ..@117.trapinfo: 
  1764                                 ..@121.strucstart:
  1765 000002CC [0000000000000000]     dq ..@117.trap
  1766 000002D4 [0000000000000000]     dq ..@117.resume
  1767 000002DC 0E                     db 0x0e
  1768 000002DD 02                     db (..@117.trap_end - ..@117.trap)
  1769 000002DE 00<rept>               times TRAPINFO_size-($-..@121.strucstart) db 0
  1770                                 [section .text]
  1771                                 ..@117.resume:
  1772                                 %line 1210+1 /home/se170/VirtualBox-4.3.28/src/VBox/VMM/testcase/tstX86-1A.asm
  1773                                 
  1774 000007D0 B8BB040000              mov eax, 1211
  1775 000007D5 488B3D(F2FFFFFF)        mov rdi, [g_pbEfExecPage wrt rip]
  1776 000007DC 4881C7FE0F0000          add rdi, 1000
  1777 000007E3 C607F0                  mov byte [rdi+0], 0f0
  1778 000007E6 C6470102                mov byte [rdi+1], 002
  1779                                 ..@129.trap:
  1780                                 %line 1216+0 /home/se170/VirtualBox-4.3.28/src/VBox/VMM/testcase/tstX86-1A.asm
  1781 000007EA FFD7                    call rdi
  1782                                 ..@129.trap_end:
  1783 000007EC B8C0040000              mov eax, 1216
  1784 000007F1 EB1F                    jmp .return
  1785                                 [section .data]
  1786                                 ..@129.trapinfo: 
  1787                                 ..@133.strucstart:
  1788 000002EC [0000000000000000]     dq ..@129.trap
  1789 000002F4 [0000000000000000]     dq ..@129.resume
  1790 000002FC 0E                     db 0x0e
  1791 000002FD 02                     db (..@129.trap_end - ..@129.trap)
  1792 000002FE 00<rept>               times TRAPINFO_size-($-..@133.strucstart) db 0
  1793                                 [section .text]
  1794                                 ..@129.resume:
  1795                                 %line 1217+1 /home/se170/VirtualBox-4.3.28/src/VBox/VMM/testcase/tstX86-1A.asm
  1796                                 
  1797 000007F3 B8C2040000              mov eax, 1218
  1798 000007F8 488B3D(F2FFFFFF)        mov rdi, [g_pbEfExecPage wrt rip]
  1799 000007FF 4881C7FF0F0000          add rdi, 1000
  1800 00000806 C607F0                  mov byte [rdi+0], 0f0
  1801                                 ..@141.trap:
  1802                                 %line 1222+0 /home/se170/VirtualBox-4.3.28/src/VBox/VMM/testcase/tstX86-1A.asm
  1803 00000809 FFD7                    call rdi
  1804                                 ..@141.trap_end:
  1805 0000080B B8C6040000              mov eax, 1222
  1806 00000810 EB00                    jmp .return
  1807                                 [section .data]
  1808                                 ..@141.trapinfo: 
  1809                                 ..@145.strucstart:
  1810 0000030C [0000000000000000]     dq ..@141.trap
  1811 00000314 [0000000000000000]     dq ..@141.resume
  1812 0000031C 0E                     db 0x0e
  1813 0000031D 02                     db (..@141.trap_end - ..@141.trap)
  1814 0000031E 00<rept>               times TRAPINFO_size-($-..@145.strucstart) db 0
  1815                                 [section .text]
  1816                                 ..@141.resume:
  1817                                 %line 1223+1 /home/se170/VirtualBox-4.3.28/src/VBox/VMM/testcase/tstX86-1A.asm
  1818                                 
  1819                                 
  1820                                 
  1821                                 .success:
  1822 00000812 31C0                    xor eax, eax
  1823                                 .return:
  1824                                 %line 1230+1 /home/se170/VirtualBox-4.3.28/src/VBox/VMM/testcase/tstX86-1A.asm
  1825 00000814 415F                    pop r15
  1826 00000816 415E                    pop r14
  1827 00000818 415D                    pop r13
  1828 0000081A 415C                    pop r12
  1829 0000081C 415B                    pop r11
  1830 0000081E 415A                    pop r10
  1831 00000820 4159                    pop r9
  1832 00000822 4158                    pop r8
  1833                                 %line 1239+1 /home/se170/VirtualBox-4.3.28/src/VBox/VMM/testcase/tstX86-1A.asm
  1834 00000824 5F                      pop rdi
  1835 00000825 5E                      pop rsi
  1836 00000826 5A                      pop rdx
  1837 00000827 59                      pop rcx
  1838 00000828 5B                      pop rbx
  1839 00000829 9D                      popf
  1840 0000082A C9                      leave
  1841 0000082B C3                      ret
  1842                                 
  1843                                 .failed2:
  1844 0000082C B8FFFFFFFF              mov eax, -1
  1845                                 .failed:
  1846 00000831 EBDF                    jmp .return
  1847                                 [global x861_Test1_EndProc:function hidden]
  1848                                 %line 1252+0 /home/se170/VirtualBox-4.3.28/src/VBox/VMM/testcase/tstX86-1A.asm
  1849                                 x861_Test1_EndProc:
  1850                                 [size x861_Test1 x861_Test1_EndProc - x861_Test1]
  1851                                 [size x861_Test1_EndProc 0]
  1852 00000833 CCCCCCCC                db 0xCC, 0xCC, 0xCC, 0xCC
  1853                                 %line 1253+1 /home/se170/VirtualBox-4.3.28/src/VBox/VMM/testcase/tstX86-1A.asm
  1854                                 
  1855                                 
  1856                                 
  1857                                 
  1858                                 
  1859                                 
  1860                                 [global x861_Test2:function hidden]
  1861                                 %line 1259+0 /home/se170/VirtualBox-4.3.28/src/VBox/VMM/testcase/tstX86-1A.asm
  1862                                 x861_Test2:
  1863                                 %line 1260+1 /home/se170/VirtualBox-4.3.28/src/VBox/VMM/testcase/tstX86-1A.asm
  1864 00000837 55                      push rbp
  1865                                 %line 1260+0 /home/se170/VirtualBox-4.3.28/src/VBox/VMM/testcase/tstX86-1A.asm
  1866 00000838 4889E5                  mov rbp, rsp
  1867 0000083B 9C                      pushf
  1868 0000083C 53                      push rbx
  1869 0000083D 51                      push rcx
  1870 0000083E 52                      push rdx
  1871 0000083F 56                      push rsi
  1872 00000840 57                      push rdi
  1873 00000841 4150                    push r8
  1874 00000843 4151                    push r9
  1875 00000845 4152                    push r10
  1876 00000847 4153                    push r11
  1877 00000849 4154                    push r12
  1878 0000084B 4155                    push r13
  1879 0000084D 4156                    push r14
  1880 0000084F 4157                    push r15
  1881 00000851 4883E4F0                and rsp, ~0f
  1882                                 %line 1261+1 /home/se170/VirtualBox-4.3.28/src/VBox/VMM/testcase/tstX86-1A.asm
  1883                                 
  1884                                 
  1885 00000855 E827FBFFFF              call x861_LoadUniqueRegValuesSSEAndGRegs
  1886 0000085A B8F0040000              mov eax, 1264
  1887 0000085F 0F73D080                db 00F
  1888 00000863 E802040000              call .check_mm0_zero_and_xmm0_nz
  1889                                 
  1890 00000868 E814FBFFFF              call x861_LoadUniqueRegValuesSSEAndGRegs
  1891 0000086D B8F5040000              mov eax, 1269
  1892 00000872 660F73D080              db 066
  1893 00000877 E89C030000              call .check_xmm0_zero_and_mm0_nz
  1894                                 
  1895                                 
  1896                                 
  1897                                 
  1898                                 
  1899                                 
  1900                                 
  1901                                 
  1902 0000087C E800FBFFFF              call x861_LoadUniqueRegValuesSSEAndGRegs
  1903 00000881 B801050000              mov eax, 1281
  1904 00000886 26660F73D080            db 026
  1905 0000088C E887030000              call .check_xmm0_zero_and_mm0_nz
  1906                                 
  1907 00000891 E8EBFAFFFF              call x861_LoadUniqueRegValuesSSEAndGRegs
  1908 00000896 B806050000              mov eax, 1286
  1909 0000089B 66260F73D080            db 066
  1910 000008A1 E872030000              call .check_xmm0_zero_and_mm0_nz
  1911                                 
  1912 000008A6 E8D6FAFFFF              call x861_LoadUniqueRegValuesSSEAndGRegs
  1913 000008AB B80B050000              mov eax, 1291
  1914 000008B0 66670F73D080            db 066
  1915 000008B6 E85D030000              call .check_xmm0_zero_and_mm0_nz
  1916                                 
  1917 000008BB E8C1FAFFFF              call x861_LoadUniqueRegValuesSSEAndGRegs
  1918 000008C0 B810050000              mov eax, 1296
  1919 000008C5 67660F73D080            db 067
  1920 000008CB E848030000              call .check_xmm0_zero_and_mm0_nz
  1921                                 
  1922 000008D0 E8ACFAFFFF              call x861_LoadUniqueRegValuesSSEAndGRegs
  1923 000008D5 B815050000              mov eax, 1301
  1924 000008DA 6766650F73D080          db 067
  1925 000008E1 E832030000              call .check_xmm0_zero_and_mm0_nz
  1926                                 
  1927                                 %line 1306+1 /home/se170/VirtualBox-4.3.28/src/VBox/VMM/testcase/tstX86-1A.asm
  1928 000008E6 E896FAFFFF              call x861_LoadUniqueRegValuesSSEAndGRegs
  1929 000008EB B81B050000              mov eax, 1307
  1930 000008F0 48660F73D080            db 048
  1931 000008F6 E81D030000              call .check_xmm0_zero_and_mm0_nz
  1932                                 
  1933 000008FB E881FAFFFF              call x861_LoadUniqueRegValuesSSEAndGRegs
  1934 00000900 B820050000              mov eax, 1312
  1935 00000905 44660F73D080            db 044
  1936 0000090B E808030000              call .check_xmm0_zero_and_mm0_nz
  1937                                 
  1938 00000910 E86CFAFFFF              call x861_LoadUniqueRegValuesSSEAndGRegs
  1939 00000915 B825050000              mov eax, 1317
  1940 0000091A 42660F73D080            db 042
  1941 00000920 E8F3020000              call .check_xmm0_zero_and_mm0_nz
  1942                                 
  1943                                 
  1944 00000925 E857FAFFFF              call x861_LoadUniqueRegValuesSSEAndGRegs
  1945 0000092A B82B050000              mov eax, 1323
  1946 0000092F 41660F73D080            db 041
  1947 00000935 E8DE020000              call .check_xmm0_zero_and_mm0_nz
  1948                                 
  1949 0000093A E842FAFFFF              call x861_LoadUniqueRegValuesSSEAndGRegs
  1950 0000093F B830050000              mov eax, 1328
  1951 00000944 66410F73D080            db 066
  1952 0000094A E855030000              call .check_xmm8_zero_and_xmm0_nz
  1953                                 %line 1332+1 /home/se170/VirtualBox-4.3.28/src/VBox/VMM/testcase/tstX86-1A.asm
  1954                                 
  1955                                 
  1956 0000094F E82DFAFFFF              call x861_LoadUniqueRegValuesSSEAndGRegs
  1957 00000954 B837050000              mov eax, 1335
  1958 00000959 66260F73D080            db 066
  1959 0000095F E8B4020000              call .check_xmm0_zero_and_mm0_nz
  1960                                 
  1961 00000964 E818FAFFFF              call x861_LoadUniqueRegValuesSSEAndGRegs
  1962 00000969 B83C050000              mov eax, 1340
  1963 0000096E 66650F73D080            db 066
  1964 00000974 E89F020000              call .check_xmm0_zero_and_mm0_nz
  1965                                 
  1966 00000979 E803FAFFFF              call x861_LoadUniqueRegValuesSSEAndGRegs
  1967 0000097E B841050000              mov eax, 1345
  1968 00000983 66640F73D080            db 066
  1969 00000989 E88A020000              call .check_xmm0_zero_and_mm0_nz
  1970                                 
  1971 0000098E E8EEF9FFFF              call x861_LoadUniqueRegValuesSSEAndGRegs
  1972 00000993 B846050000              mov eax, 1350
  1973 00000998 662E0F73D080            db 066
  1974 0000099E E875020000              call .check_xmm0_zero_and_mm0_nz
  1975                                 
  1976 000009A3 E8D9F9FFFF              call x861_LoadUniqueRegValuesSSEAndGRegs
  1977 000009A8 B84B050000              mov eax, 1355
  1978 000009AD 66360F73D080            db 066
  1979 000009B3 E860020000              call .check_xmm0_zero_and_mm0_nz
  1980                                 
  1981 000009B8 E8C4F9FFFF              call x861_LoadUniqueRegValuesSSEAndGRegs
  1982 000009BD B850050000              mov eax, 1360
  1983 000009C2 663E0F73D080            db 066
  1984 000009C8 E84B020000              call .check_xmm0_zero_and_mm0_nz
  1985                                 
  1986 000009CD E8AFF9FFFF              call x861_LoadUniqueRegValuesSSEAndGRegs
  1987 000009D2 B855050000              mov eax, 1365
  1988 000009D7 66670F73D080            db 066
  1989 000009DD E836020000              call .check_xmm0_zero_and_mm0_nz
  1990                                 
  1991                                 %line 1370+1 /home/se170/VirtualBox-4.3.28/src/VBox/VMM/testcase/tstX86-1A.asm
  1992 000009E2 E89AF9FFFF              call x861_LoadUniqueRegValuesSSEAndGRegs
  1993 000009E7 B85B050000              mov eax, 1371
  1994 000009EC 66480F73D080            db 066
  1995 000009F2 E821020000              call .check_xmm0_zero_and_mm0_nz
  1996                                 
  1997 000009F7 E885F9FFFF              call x861_LoadUniqueRegValuesSSEAndGRegs
  1998 000009FC B860050000              mov eax, 1376
  1999 00000A01 66440F73D080            db 066
  2000 00000A07 E80C020000              call .check_xmm0_zero_and_mm0_nz
  2001                                 
  2002 00000A0C E870F9FFFF              call x861_LoadUniqueRegValuesSSEAndGRegs
  2003 00000A11 B865050000              mov eax, 1381
  2004 00000A16 66420F73D080            db 066
  2005 00000A1C E8F7010000              call .check_xmm0_zero_and_mm0_nz
  2006                                 
  2007 00000A21 E85BF9FFFF              call x861_LoadUniqueRegValuesSSEAndGRegs
  2008 00000A26 B86A050000              mov eax, 1386
  2009 00000A2B 66410F73D080            db 066
  2010 00000A31 E86E020000              call .check_xmm8_zero_and_xmm0_nz
  2011                                 %line 1390+1 /home/se170/VirtualBox-4.3.28/src/VBox/VMM/testcase/tstX86-1A.asm
  2012                                 
  2013                                 
  2014 00000A36 E846F9FFFF              call x861_LoadUniqueRegValuesSSEAndGRegs
  2015 00000A3B B871050000              mov eax, 1393
  2016 00000A40 66660F73D080            db 066
  2017 00000A46 E8CD010000              call .check_xmm0_zero_and_mm0_nz
  2018                                 
  2019 00000A4B E831F9FFFF              call x861_LoadUniqueRegValuesSSEAndGRegs
  2020 00000A50 B876050000              mov eax, 1398
  2021 00000A55 6666660F73D080          db 066
  2022 00000A5C E8B7010000              call .check_xmm0_zero_and_mm0_nz
  2023                                 
  2024 00000A61 E81BF9FFFF              call x861_LoadUniqueRegValuesSSEAndGRegs
  2025 00000A66 B87B050000              mov eax, 1403
  2026 00000A6B 66666666666666660F-     db 066
  2027 00000A6B 73D080             
  2028 00000A77 E89C010000              call .check_xmm0_zero_and_mm0_nz
  2029                                 
  2030 00000A7C E800F9FFFF              call x861_LoadUniqueRegValuesSSEAndGRegs
  2031 00000A81 B880050000              mov eax, 1408
  2032 00000A86 666666666666666666-     db 066
  2033 00000A86 66660F73D080       
  2034 00000A95 E87E010000              call .check_xmm0_zero_and_mm0_nz
  2035                                 
  2036                                 ..@162.trap:
  2037                                 %line 1412+0 /home/se170/VirtualBox-4.3.28/src/VBox/VMM/testcase/tstX86-1A.asm
  2038 00000A9A 666666666666666666-     db 066
  2039 00000A9A 6666660F73D080     
  2040                                 ..@162.trap_end:
  2041 00000AAA B884050000              mov eax, 1412
  2042 00000AAF E948010000              jmp .return
  2043                                 [section .data]
  2044                                 ..@162.trapinfo: 
  2045                                 ..@166.strucstart:
  2046 0000032C [0000000000000000]     dq ..@162.trap
  2047 00000334 [0000000000000000]     dq ..@162.resume
  2048 0000033C 0D                     db 0x0d
  2049 0000033D 10                     db (..@162.trap_end - ..@162.trap)
  2050 0000033E 00<rept>               times TRAPINFO_size-($-..@166.strucstart) db 0
  2051                                 [section .text]
  2052                                 ..@162.resume:
  2053                                 %line 1413+1 /home/se170/VirtualBox-4.3.28/src/VBox/VMM/testcase/tstX86-1A.asm
  2054                                 
  2055                                 %line 1415+1 /home/se170/VirtualBox-4.3.28/src/VBox/VMM/testcase/tstX86-1A.asm
  2056                                 
  2057 00000AB4 E8C8F8FFFF              call x861_LoadUniqueRegValuesSSEAndGRegs
  2058 00000AB9 B889050000              mov eax, 1417
  2059 00000ABE 6641480F73D080          db 066
  2060 00000AC5 E84E010000              call .check_xmm0_zero_and_mm0_nz
  2061                                 
  2062 00000ACA E8B2F8FFFF              call x861_LoadUniqueRegValuesSSEAndGRegs
  2063 00000ACF B88E050000              mov eax, 1422
  2064 00000AD4 6648410F73D080          db 066
  2065 00000ADB E8C4010000              call .check_xmm8_zero_and_xmm0_nz
  2066                                 
  2067 00000AE0 E89CF8FFFF              call x861_LoadUniqueRegValuesSSEAndGRegs
  2068 00000AE5 B893050000              mov eax, 1427
  2069 00000AEA 664844424844424844-     db 066
  2070 00000AEA 42410F73D080       
  2071 00000AF9 E8A6010000              call .check_xmm8_zero_and_xmm0_nz
  2072                                 
  2073 00000AFE E87EF8FFFF              call x861_LoadUniqueRegValuesSSEAndGRegs
  2074 00000B03 B898050000              mov eax, 1432
  2075 00000B08 664141414141414141-     db 066
  2076 00000B08 414E0F73D080       
  2077 00000B17 E8FC000000              call .check_xmm0_zero_and_mm0_nz
  2078                                 %line 1436+1 /home/se170/VirtualBox-4.3.28/src/VBox/VMM/testcase/tstX86-1A.asm
  2079                                 
  2080                                 
  2081                                 ..@174.trap:
  2082                                 %line 1438+0 /home/se170/VirtualBox-4.3.28/src/VBox/VMM/testcase/tstX86-1A.asm
  2083 00000B1C F0660F73D080            db 0f0
  2084                                 ..@174.trap_end:
  2085 00000B22 B89E050000              mov eax, 1438
  2086 00000B27 E9D0000000              jmp .return
  2087                                 [section .data]
  2088                                 ..@174.trapinfo: 
  2089                                 ..@178.strucstart:
  2090 0000034C [0000000000000000]     dq ..@174.trap
  2091 00000354 [0000000000000000]     dq ..@174.resume
  2092 0000035C 06                     db 0x06
  2093 0000035D 06                     db (..@174.trap_end - ..@174.trap)
  2094 0000035E 00<rept>               times TRAPINFO_size-($-..@178.strucstart) db 0
  2095                                 [section .text]
  2096                                 ..@174.resume:
  2097                                 %line 1439+1 /home/se170/VirtualBox-4.3.28/src/VBox/VMM/testcase/tstX86-1A.asm
  2098                                 ..@186.trap:
  2099                                 %line 1439+0 /home/se170/VirtualBox-4.3.28/src/VBox/VMM/testcase/tstX86-1A.asm
  2100 00000B2C F2660F73D080            db 0f2
  2101                                 ..@186.trap_end:
  2102 00000B32 B89F050000              mov eax, 1439
  2103 00000B37 E9C0000000              jmp .return
  2104                                 [section .data]
  2105                                 ..@186.trapinfo: 
  2106                                 ..@190.strucstart:
  2107 0000036C [0000000000000000]     dq ..@186.trap
  2108 00000374 [0000000000000000]     dq ..@186.resume
  2109 0000037C 06                     db 0x06
  2110 0000037D 06                     db (..@186.trap_end - ..@186.trap)
  2111 0000037E 00<rept>               times TRAPINFO_size-($-..@190.strucstart) db 0
  2112                                 [section .text]
  2113                                 ..@186.resume:
  2114                                 %line 1440+1 /home/se170/VirtualBox-4.3.28/src/VBox/VMM/testcase/tstX86-1A.asm
  2115                                 ..@198.trap:
  2116                                 %line 1440+0 /home/se170/VirtualBox-4.3.28/src/VBox/VMM/testcase/tstX86-1A.asm
  2117 00000B3C F3660F73D080            db 0f3
  2118                                 ..@198.trap_end:
  2119 00000B42 B8A0050000              mov eax, 1440
  2120 00000B47 E9B0000000              jmp .return
  2121                                 [section .data]
  2122                                 ..@198.trapinfo: 
  2123                                 ..@202.strucstart:
  2124 0000038C [0000000000000000]     dq ..@198.trap
  2125 00000394 [0000000000000000]     dq ..@198.resume
  2126 0000039C 06                     db 0x06
  2127 0000039D 06                     db (..@198.trap_end - ..@198.trap)
  2128 0000039E 00<rept>               times TRAPINFO_size-($-..@202.strucstart) db 0
  2129                                 [section .text]
  2130                                 ..@198.resume:
  2131                                 %line 1441+1 /home/se170/VirtualBox-4.3.28/src/VBox/VMM/testcase/tstX86-1A.asm
  2132                                 ..@210.trap:
  2133                                 %line 1441+0 /home/se170/VirtualBox-4.3.28/src/VBox/VMM/testcase/tstX86-1A.asm
  2134 00000B4C 66F20F73D080            db 066
  2135                                 ..@210.trap_end:
  2136 00000B52 B8A1050000              mov eax, 1441
  2137 00000B57 E9A0000000              jmp .return
  2138                                 [section .data]
  2139                                 ..@210.trapinfo: 
  2140                                 ..@214.strucstart:
  2141 000003AC [0000000000000000]     dq ..@210.trap
  2142 000003B4 [0000000000000000]     dq ..@210.resume
  2143 000003BC 06                     db 0x06
  2144 000003BD 06                     db (..@210.trap_end - ..@210.trap)
  2145 000003BE 00<rept>               times TRAPINFO_size-($-..@214.strucstart) db 0
  2146                                 [section .text]
  2147                                 ..@210.resume:
  2148                                 %line 1442+1 /home/se170/VirtualBox-4.3.28/src/VBox/VMM/testcase/tstX86-1A.asm
  2149                                 ..@222.trap:
  2150                                 %line 1442+0 /home/se170/VirtualBox-4.3.28/src/VBox/VMM/testcase/tstX86-1A.asm
  2151 00000B5C 66F30F73D080            db 066
  2152                                 ..@222.trap_end:
  2153 00000B62 B8A2050000              mov eax, 1442
  2154 00000B67 E990000000              jmp .return
  2155                                 [section .data]
  2156                                 ..@222.trapinfo: 
  2157                                 ..@226.strucstart:
  2158 000003CC [0000000000000000]     dq ..@222.trap
  2159 000003D4 [0000000000000000]     dq ..@222.resume
  2160 000003DC 06                     db 0x06
  2161 000003DD 06                     db (..@222.trap_end - ..@222.trap)
  2162 000003DE 00<rept>               times TRAPINFO_size-($-..@226.strucstart) db 0
  2163                                 [section .text]
  2164                                 ..@222.resume:
  2165                                 %line 1443+1 /home/se170/VirtualBox-4.3.28/src/VBox/VMM/testcase/tstX86-1A.asm
  2166                                 ..@234.trap:
  2167                                 %line 1443+0 /home/se170/VirtualBox-4.3.28/src/VBox/VMM/testcase/tstX86-1A.asm
  2168 00000B6C 66F3F20F73D080          db 066
  2169                                 ..@234.trap_end:
  2170 00000B73 B8A3050000              mov eax, 1443
  2171 00000B78 E97F000000              jmp .return
  2172                                 [section .data]
  2173                                 ..@234.trapinfo: 
  2174                                 ..@238.strucstart:
  2175 000003EC [0000000000000000]     dq ..@234.trap
  2176 000003F4 [0000000000000000]     dq ..@234.resume
  2177 000003FC 06                     db 0x06
  2178 000003FD 07                     db (..@234.trap_end - ..@234.trap)
  2179 000003FE 00<rept>               times TRAPINFO_size-($-..@238.strucstart) db 0
  2180                                 [section .text]
  2181                                 ..@234.resume:
  2182                                 %line 1444+1 /home/se170/VirtualBox-4.3.28/src/VBox/VMM/testcase/tstX86-1A.asm
  2183                                 ..@246.trap:
  2184                                 %line 1444+0 /home/se170/VirtualBox-4.3.28/src/VBox/VMM/testcase/tstX86-1A.asm
  2185 00000B7D 66F2F30F73D080          db 066
  2186                                 ..@246.trap_end:
  2187 00000B84 B8A4050000              mov eax, 1444
  2188 00000B89 EB74                    jmp .return
  2189                                 [section .data]
  2190                                 ..@246.trapinfo: 
  2191                                 ..@250.strucstart:
  2192 0000040C [0000000000000000]     dq ..@246.trap
  2193 00000414 [0000000000000000]     dq ..@246.resume
  2194 0000041C 06                     db 0x06
  2195 0000041D 07                     db (..@246.trap_end - ..@246.trap)
  2196 0000041E 00<rept>               times TRAPINFO_size-($-..@250.strucstart) db 0
  2197                                 [section .text]
  2198                                 ..@246.resume:
  2199                                 %line 1445+1 /home/se170/VirtualBox-4.3.28/src/VBox/VMM/testcase/tstX86-1A.asm
  2200                                 ..@258.trap:
  2201                                 %line 1445+0 /home/se170/VirtualBox-4.3.28/src/VBox/VMM/testcase/tstX86-1A.asm
  2202 00000B8B F266F30F73D080          db 0f2
  2203                                 ..@258.trap_end:
  2204 00000B92 B8A5050000              mov eax, 1445
  2205 00000B97 EB66                    jmp .return
  2206                                 [section .data]
  2207                                 ..@258.trapinfo: 
  2208                                 ..@262.strucstart:
  2209 0000042C [0000000000000000]     dq ..@258.trap
  2210 00000434 [0000000000000000]     dq ..@258.resume
  2211 0000043C 06                     db 0x06
  2212 0000043D 07                     db (..@258.trap_end - ..@258.trap)
  2213 0000043E 00<rept>               times TRAPINFO_size-($-..@262.strucstart) db 0
  2214                                 [section .text]
  2215                                 ..@258.resume:
  2216                                 %line 1446+1 /home/se170/VirtualBox-4.3.28/src/VBox/VMM/testcase/tstX86-1A.asm
  2217                                 ..@270.trap:
  2218                                 %line 1446+0 /home/se170/VirtualBox-4.3.28/src/VBox/VMM/testcase/tstX86-1A.asm
  2219 00000B99 F366F20F73D080          db 0f3
  2220                                 ..@270.trap_end:
  2221 00000BA0 B8A6050000              mov eax, 1446
  2222 00000BA5 EB58                    jmp .return
  2223                                 [section .data]
  2224                                 ..@270.trapinfo: 
  2225                                 ..@274.strucstart:
  2226 0000044C [0000000000000000]     dq ..@270.trap
  2227 00000454 [0000000000000000]     dq ..@270.resume
  2228 0000045C 06                     db 0x06
  2229 0000045D 07                     db (..@270.trap_end - ..@270.trap)
  2230 0000045E 00<rept>               times TRAPINFO_size-($-..@274.strucstart) db 0
  2231                                 [section .text]
  2232                                 ..@270.resume:
  2233                                 %line 1447+1 /home/se170/VirtualBox-4.3.28/src/VBox/VMM/testcase/tstX86-1A.asm
  2234                                 ..@282.trap:
  2235                                 %line 1447+0 /home/se170/VirtualBox-4.3.28/src/VBox/VMM/testcase/tstX86-1A.asm
  2236 00000BA7 F3F2660F73D080          db 0f3
  2237                                 ..@282.trap_end:
  2238 00000BAE B8A7050000              mov eax, 1447
  2239 00000BB3 EB4A                    jmp .return
  2240                                 [section .data]
  2241                                 ..@282.trapinfo: 
  2242                                 ..@286.strucstart:
  2243 0000046C [0000000000000000]     dq ..@282.trap
  2244 00000474 [0000000000000000]     dq ..@282.resume
  2245 0000047C 06                     db 0x06
  2246 0000047D 07                     db (..@282.trap_end - ..@282.trap)
  2247 0000047E 00<rept>               times TRAPINFO_size-($-..@286.strucstart) db 0
  2248                                 [section .text]
  2249                                 ..@282.resume:
  2250                                 %line 1448+1 /home/se170/VirtualBox-4.3.28/src/VBox/VMM/testcase/tstX86-1A.asm
  2251                                 ..@294.trap:
  2252                                 %line 1448+0 /home/se170/VirtualBox-4.3.28/src/VBox/VMM/testcase/tstX86-1A.asm
  2253 00000BB5 F2F3660F73D080          db 0f2
  2254                                 ..@294.trap_end:
  2255 00000BBC B8A8050000              mov eax, 1448
  2256 00000BC1 EB3C                    jmp .return
  2257                                 [section .data]
  2258                                 ..@294.trapinfo: 
  2259                                 ..@298.strucstart:
  2260 0000048C [0000000000000000]     dq ..@294.trap
  2261 00000494 [0000000000000000]     dq ..@294.resume
  2262 0000049C 06                     db 0x06
  2263 0000049D 07                     db (..@294.trap_end - ..@294.trap)
  2264 0000049E 00<rept>               times TRAPINFO_size-($-..@298.strucstart) db 0
  2265                                 [section .text]
  2266                                 ..@294.resume:
  2267                                 %line 1449+1 /home/se170/VirtualBox-4.3.28/src/VBox/VMM/testcase/tstX86-1A.asm
  2268                                 ..@306.trap:
  2269                                 %line 1449+0 /home/se170/VirtualBox-4.3.28/src/VBox/VMM/testcase/tstX86-1A.asm
  2270 00000BC3 F0F266F30F73D080        db 0f0
  2271                                 ..@306.trap_end:
  2272 00000BCB B8A9050000              mov eax, 1449
  2273 00000BD0 EB2D                    jmp .return
  2274                                 [section .data]
  2275                                 ..@306.trapinfo: 
  2276                                 ..@310.strucstart:
  2277 000004AC [0000000000000000]     dq ..@306.trap
  2278 000004B4 [0000000000000000]     dq ..@306.resume
  2279 000004BC 06                     db 0x06
  2280 000004BD 08                     db (..@306.trap_end - ..@306.trap)
  2281 000004BE 00<rept>               times TRAPINFO_size-($-..@310.strucstart) db 0
  2282                                 [section .text]
  2283                                 ..@306.resume:
  2284                                 %line 1450+1 /home/se170/VirtualBox-4.3.28/src/VBox/VMM/testcase/tstX86-1A.asm
  2285                                 ..@318.trap:
  2286                                 %line 1450+0 /home/se170/VirtualBox-4.3.28/src/VBox/VMM/testcase/tstX86-1A.asm
  2287 00000BD2 F0F366F20F73D080        db 0f0
  2288                                 ..@318.trap_end:
  2289 00000BDA B8AA050000              mov eax, 1450
  2290 00000BDF EB1E                    jmp .return
  2291                                 [section .data]
  2292                                 ..@318.trapinfo: 
  2293                                 ..@322.strucstart:
  2294 000004CC [0000000000000000]     dq ..@318.trap
  2295 000004D4 [0000000000000000]     dq ..@318.resume
  2296 000004DC 06                     db 0x06
  2297 000004DD 08                     db (..@318.trap_end - ..@318.trap)
  2298 000004DE 00<rept>               times TRAPINFO_size-($-..@322.strucstart) db 0
  2299                                 [section .text]
  2300                                 ..@318.resume:
  2301                                 %line 1451+1 /home/se170/VirtualBox-4.3.28/src/VBox/VMM/testcase/tstX86-1A.asm
  2302                                 ..@330.trap:
  2303                                 %line 1451+0 /home/se170/VirtualBox-4.3.28/src/VBox/VMM/testcase/tstX86-1A.asm
  2304 00000BE1 F0F3F2660F73D080        db 0f0
  2305                                 ..@330.trap_end:
  2306 00000BE9 B8AB050000              mov eax, 1451
  2307 00000BEE EB0F                    jmp .return
  2308                                 [section .data]
  2309                                 ..@330.trapinfo: 
  2310                                 ..@334.strucstart:
  2311 000004EC [0000000000000000]     dq ..@330.trap
  2312 000004F4 [0000000000000000]     dq ..@330.resume
  2313 000004FC 06                     db 0x06
  2314 000004FD 08                     db (..@330.trap_end - ..@330.trap)
  2315 000004FE 00<rept>               times TRAPINFO_size-($-..@334.strucstart) db 0
  2316                                 [section .text]
  2317                                 ..@330.resume:
  2318                                 %line 1452+1 /home/se170/VirtualBox-4.3.28/src/VBox/VMM/testcase/tstX86-1A.asm
  2319                                 ..@342.trap:
  2320                                 %line 1452+0 /home/se170/VirtualBox-4.3.28/src/VBox/VMM/testcase/tstX86-1A.asm
  2321 00000BF0 F0F2F3660F73D080        db 0f0
  2322                                 ..@342.trap_end:
  2323 00000BF8 B8AC050000              mov eax, 1452
  2324 00000BFD EB00                    jmp .return
  2325                                 [section .data]
  2326                                 ..@342.trapinfo: 
  2327                                 ..@346.strucstart:
  2328 0000050C [0000000000000000]     dq ..@342.trap
  2329 00000514 [0000000000000000]     dq ..@342.resume
  2330 0000051C 06                     db 0x06
  2331 0000051D 08                     db (..@342.trap_end - ..@342.trap)
  2332 0000051E 00<rept>               times TRAPINFO_size-($-..@346.strucstart) db 0
  2333                                 [section .text]
  2334                                 ..@342.resume:
  2335                                 %line 1453+1 /home/se170/VirtualBox-4.3.28/src/VBox/VMM/testcase/tstX86-1A.asm
  2336                                 
  2337                                 .success:
  2338 00000BFF 31C0                    xor eax, eax
  2339                                 .return:
  2340 00000C01 488D6590                lea rsp, [rbp - 14 * 8]
  2341                                 %line 1457+0 /home/se170/VirtualBox-4.3.28/src/VBox/VMM/testcase/tstX86-1A.asm
  2342 00000C05 415F                    pop r15
  2343 00000C07 415E                    pop r14
  2344 00000C09 415D                    pop r13
  2345 00000C0B 415C                    pop r12
  2346 00000C0D 415B                    pop r11
  2347 00000C0F 415A                    pop r10
  2348 00000C11 4159                    pop r9
  2349 00000C13 4158                    pop r8
  2350 00000C15 5F                      pop rdi
  2351 00000C16 5E                      pop rsi
  2352 00000C17 5A                      pop rdx
  2353 00000C18 59                      pop rcx
  2354 00000C19 5B                      pop rbx
  2355 00000C1A 9D                      popf
  2356 00000C1B C9                      leave
  2357                                 %line 1458+1 /home/se170/VirtualBox-4.3.28/src/VBox/VMM/testcase/tstX86-1A.asm
  2358 00000C1C C3                      ret
  2359                                 
  2360                                 .check_xmm0_zero_and_mm0_nz:
  2361 00000C1D 4883EC20                sub rsp, 20
  2362 00000C21 F30F7F0424              movdqu [rsp], xmm0
  2363 00000C26 833C2400                cmp dword [rsp], 0
  2364 00000C2A 0F85BD000000            jne .failed3
  2365 00000C30 837C240400              cmp dword [rsp + 4], 0
  2366 00000C35 0F85B2000000            jne .failed3
  2367 00000C3B 837C240800              cmp dword [rsp + 8], 0
  2368 00000C40 0F85A7000000            jne .failed3
  2369 00000C46 837C240C00              cmp dword [rsp + 12], 0
  2370 00000C4B 0F859C000000            jne .failed3
  2371 00000C51 0F7F0424                movq [rsp], mm0
  2372 00000C55 833C2400                cmp dword [rsp], 0
  2373 00000C59 0F848E000000            je .failed3
  2374 00000C5F 837C240400              cmp dword [rsp + 4], 0
  2375 00000C64 0F8483000000            je .failed3
  2376 00000C6A 4883C420                add rsp, 20
  2377 00000C6E C3                      ret
  2378                                 
  2379                                 .check_mm0_zero_and_xmm0_nz:
  2380 00000C6F 4883EC20                sub rsp, 20
  2381 00000C73 0F7F0424                movq [rsp], mm0
  2382 00000C77 833C2400                cmp dword [rsp], 0
  2383 00000C7B 7574                    jne .failed3
  2384 00000C7D 837C240400              cmp dword [rsp + 4], 0
  2385 00000C82 756D                    jne .failed3
  2386 00000C84 F30F7F0424              movdqu [rsp], xmm0
  2387 00000C89 833C2400                cmp dword [rsp], 0
  2388 00000C8D 7462                    je .failed3
  2389 00000C8F 837C240400              cmp dword [rsp + 4], 0
  2390 00000C94 745B                    je .failed3
  2391 00000C96 837C240800              cmp dword [rsp + 8], 0
  2392 00000C9B 7454                    je .failed3
  2393 00000C9D 837C240C00              cmp dword [rsp + 12], 0
  2394 00000CA2 744D                    je .failed3
  2395 00000CA4 4883C420                add rsp, 20
  2396 00000CA8 C3                      ret
  2397                                 
  2398                                 %line 1499+1 /home/se170/VirtualBox-4.3.28/src/VBox/VMM/testcase/tstX86-1A.asm
  2399                                 .check_xmm8_zero_and_xmm0_nz:
  2400 00000CA9 4883EC20                sub rsp, 20
  2401 00000CAD F3440F7F0424            movdqu [rsp], xmm8
  2402 00000CB3 833C2400                cmp dword [rsp], 0
  2403 00000CB7 7538                    jne .failed3
  2404 00000CB9 837C240400              cmp dword [rsp + 4], 0
  2405 00000CBE 7531                    jne .failed3
  2406 00000CC0 837C240800              cmp dword [rsp + 8], 0
  2407 00000CC5 752A                    jne .failed3
  2408 00000CC7 837C240C00              cmp dword [rsp + 12], 0
  2409 00000CCC 7523                    jne .failed3
  2410 00000CCE F30F7F0424              movdqu [rsp], xmm0
  2411 00000CD3 833C2400                cmp dword [rsp], 0
  2412 00000CD7 7418                    je .failed3
  2413 00000CD9 837C240400              cmp dword [rsp + 4], 0
  2414 00000CDE 7411                    je .failed3
  2415 00000CE0 837C240800              cmp dword [rsp + 8], 0
  2416 00000CE5 740A                    je .failed3
  2417 00000CE7 837C240C00              cmp dword [rsp + 12], 0
  2418 00000CEC 7403                    je .failed3
  2419 00000CEE 4883C420                add rsp, 20
  2420 00000CF2 C3                      ret
  2421                                 %line 1522+1 /home/se170/VirtualBox-4.3.28/src/VBox/VMM/testcase/tstX86-1A.asm
  2422                                 
  2423                                 .failed3:
  2424 00000CF3 4883C428                add rsp, 20
  2425 00000CF7 E900FFFFFF              jmp .return
  2426                                 
  2427                                 
  2428                                 [global x861_Test2_EndProc:function hidden]
  2429                                 %line 1528+0 /home/se170/VirtualBox-4.3.28/src/VBox/VMM/testcase/tstX86-1A.asm
  2430                                 x861_Test2_EndProc:
  2431                                 [size x861_Test2 x861_Test2_EndProc - x861_Test2]
  2432                                 [size x861_Test2_EndProc 0]
  2433 00000CFC CCCCCCCC                db 0xCC, 0xCC, 0xCC, 0xCC
  2434                                 %line 1529+1 /home/se170/VirtualBox-4.3.28/src/VBox/VMM/testcase/tstX86-1A.asm
  2435                                 
  2436                                 
  2437                                 
  2438                                 
  2439                                 
  2440                                 
  2441                                 [global x861_Test3:function hidden]
  2442                                 %line 1535+0 /home/se170/VirtualBox-4.3.28/src/VBox/VMM/testcase/tstX86-1A.asm
  2443                                 x861_Test3:
  2444                                 %line 1536+1 /home/se170/VirtualBox-4.3.28/src/VBox/VMM/testcase/tstX86-1A.asm
  2445 00000D00 55                      push rbp
  2446                                 %line 1536+0 /home/se170/VirtualBox-4.3.28/src/VBox/VMM/testcase/tstX86-1A.asm
  2447 00000D01 4889E5                  mov rbp, rsp
  2448 00000D04 9C                      pushf
  2449 00000D05 53                      push rbx
  2450 00000D06 51                      push rcx
  2451 00000D07 52                      push rdx
  2452 00000D08 56                      push rsi
  2453 00000D09 57                      push rdi
  2454 00000D0A 4150                    push r8
  2455 00000D0C 4151                    push r9
  2456 00000D0E 4152                    push r10
  2457 00000D10 4153                    push r11
  2458 00000D12 4154                    push r12
  2459 00000D14 4155                    push r13
  2460 00000D16 4156                    push r14
  2461 00000D18 4157                    push r15
  2462 00000D1A 4883E4F0                and rsp, ~0f
  2463                                 %line 1537+1 /home/se170/VirtualBox-4.3.28/src/VBox/VMM/testcase/tstX86-1A.asm
  2464 00000D1E E85EF6FFFF              call x861_LoadUniqueRegValuesSSEAndGRegs
  2465 00000D23 488B3D(F2FFFFFF)        mov rdi, [g_pbEfExecPage wrt rip]
  2466                                 
  2467                                 
  2468 00000D2A 0FAE07                  fxsave [rdi]
  2469 00000D2D 0FAE0F                  fxrstor [rdi]
  2470                                 
  2471 00000D30 4881C7000E0000          add rdi, 0x1000 - 512
  2472 00000D37 4889FE                  mov rsi, rdi
  2473 00000D3A 0FAE07                  fxsave [rdi]
  2474 00000D3D 0FAE0F                  fxrstor [rdi]
  2475                                 
  2476                                 
  2477                                 
  2478 00000D40 B8DDCCBBAA              mov eax, 0aabbccdd
  2479 00000D45 B980000000              mov ecx, 512 / 4
  2480 00000D4A FC                      cld
  2481 00000D4B F3AB                    rep stosd
  2482 00000D4D 4889F7                  mov rdi, rsi
  2483 00000D50 0FAE07                  fxsave [rdi]
  2484                                 
  2485 00000D53 BB00020000              mov ebx, 512
  2486                                 .chech_software_area_loop:
  2487 00000D58 39441FFC                cmp [rdi + rbx - 4], eax
  2488 00000D5C 7503                    jne .chech_software_area_done
  2489 00000D5E 83EB04                  sub ebx, 4
  2490 00000D61 EBF3                    jmp .chech_software_area_loop
  2491                                 .chech_software_area_done:
  2492 00000D63 81FBD0010000            cmp ebx, 464
  2493 00000D69 B81E060000              mov eax, 1566
  2494 00000D6E 0F8744050000            ja .return
  2495                                 
  2496                                 
  2497 00000D74 488B1D(F2FFFFFF)        mov rbx, [g_pbEfExecPage wrt rip]
  2498 00000D7B 4889DF                  mov rdi, rbx
  2499 00000D7E B899887766              mov eax, 066778899
  2500 00000D83 B900010000              mov ecx, 512 * 2 / 4
  2501 00000D88 FC                      cld
  2502 00000D89 F3AB                    rep stosd
  2503 00000D8B 0FAE03                  fxsave [rbx]
  2504                                 
  2505 00000D8E E8F9F5FFFF              call x861_ClearRegistersSSEAndGRegs
  2506 00000D93 488B1D(F2FFFFFF)        mov rbx, [g_pbEfExecPage wrt rip]
  2507 00000D9A 0FAE0B                  fxrstor [rbx]
  2508                                 
  2509 00000D9D 0FAE8300020000          fxsave [rbx + 512]
  2510 00000DA4 4889DE                  mov rsi, rbx
  2511 00000DA7 488DBB00020000          lea rdi, [rbx + 512]
  2512 00000DAE B900020000              mov ecx, 512
  2513 00000DB3 FC                      cld
  2514 00000DB4 F3A6                    repe cmpsb
  2515 00000DB6 B834060000              mov eax, 1588
  2516 00000DBB 0F85F7040000            jnz .return
  2517                                 
  2518                                 
  2519                                 
  2520                                 
  2521 00000DC1 E8BBF5FFFF              call x861_LoadUniqueRegValuesSSEAndGRegs
  2522 00000DC6 488B3D(F2FFFFFF)        mov rdi, [g_pbEfExecPage wrt rip]
  2523 00000DCD 4881C7000E0000          add rdi, 0x1000 - 512
  2524                                 ..@364.trap:
  2525                                 %line 1597+0 /home/se170/VirtualBox-4.3.28/src/VBox/VMM/testcase/tstX86-1A.asm
  2526 00000DD4 0FAE4710                fxsave [rdi + 16]
  2527                                 ..@364.trap_end:
  2528 00000DD8 B83D060000              mov eax, 1597
  2529 00000DDD E9D7040000              jmp .return
  2530                                 [section .data]
  2531                                 ..@364.trapinfo: 
  2532                                 ..@368.strucstart:
  2533 0000052C [0000000000000000]     dq ..@364.trap
  2534 00000534 [0000000000000000]     dq ..@364.resume
  2535 0000053C 0E                     db 0x0e
  2536 0000053D 04                     db (..@364.trap_end - ..@364.trap)
  2537 0000053E 00<rept>               times TRAPINFO_size-($-..@368.strucstart) db 0
  2538                                 [section .text]
  2539                                 ..@364.resume:
  2540                                 %line 1598+1 /home/se170/VirtualBox-4.3.28/src/VBox/VMM/testcase/tstX86-1A.asm
  2541                                 ..@376.trap:
  2542                                 %line 1598+0 /home/se170/VirtualBox-4.3.28/src/VBox/VMM/testcase/tstX86-1A.asm
  2543 00000DE2 0FAE4720                fxsave [rdi + 32]
  2544                                 ..@376.trap_end:
  2545 00000DE6 B83E060000              mov eax, 1598
  2546 00000DEB E9C9040000              jmp .return
  2547                                 [section .data]
  2548                                 ..@376.trapinfo: 
  2549                                 ..@380.strucstart:
  2550 0000054C [0000000000000000]     dq ..@376.trap
  2551 00000554 [0000000000000000]     dq ..@376.resume
  2552 0000055C 0E                     db 0x0e
  2553 0000055D 04                     db (..@376.trap_end - ..@376.trap)
  2554 0000055E 00<rept>               times TRAPINFO_size-($-..@380.strucstart) db 0
  2555                                 [section .text]
  2556                                 ..@376.resume:
  2557                                 %line 1599+1 /home/se170/VirtualBox-4.3.28/src/VBox/VMM/testcase/tstX86-1A.asm
  2558                                 ..@388.trap:
  2559                                 %line 1599+0 /home/se170/VirtualBox-4.3.28/src/VBox/VMM/testcase/tstX86-1A.asm
  2560 00000DF0 0FAE4730                fxsave [rdi + 48]
  2561                                 ..@388.trap_end:
  2562 00000DF4 B83F060000              mov eax, 1599
  2563 00000DF9 E9BB040000              jmp .return
  2564                                 [section .data]
  2565                                 ..@388.trapinfo: 
  2566                                 ..@392.strucstart:
  2567 0000056C [0000000000000000]     dq ..@388.trap
  2568 00000574 [0000000000000000]     dq ..@388.resume
  2569 0000057C 0E                     db 0x0e
  2570 0000057D 04                     db (..@388.trap_end - ..@388.trap)
  2571 0000057E 00<rept>               times TRAPINFO_size-($-..@392.strucstart) db 0
  2572                                 [section .text]
  2573                                 ..@388.resume:
  2574                                 %line 1600+1 /home/se170/VirtualBox-4.3.28/src/VBox/VMM/testcase/tstX86-1A.asm
  2575                                 ..@400.trap:
  2576                                 %line 1600+0 /home/se170/VirtualBox-4.3.28/src/VBox/VMM/testcase/tstX86-1A.asm
  2577 00000DFE 0FAE4740                fxsave [rdi + 64]
  2578                                 ..@400.trap_end:
  2579 00000E02 B840060000              mov eax, 1600
  2580 00000E07 E9AD040000              jmp .return
  2581                                 [section .data]
  2582                                 ..@400.trapinfo: 
  2583                                 ..@404.strucstart:
  2584 0000058C [0000000000000000]     dq ..@400.trap
  2585 00000594 [0000000000000000]     dq ..@400.resume
  2586 0000059C 0E                     db 0x0e
  2587 0000059D 04                     db (..@400.trap_end - ..@400.trap)
  2588 0000059E 00<rept>               times TRAPINFO_size-($-..@404.strucstart) db 0
  2589                                 [section .text]
  2590                                 ..@400.resume:
  2591                                 %line 1601+1 /home/se170/VirtualBox-4.3.28/src/VBox/VMM/testcase/tstX86-1A.asm
  2592                                 ..@412.trap:
  2593                                 %line 1601+0 /home/se170/VirtualBox-4.3.28/src/VBox/VMM/testcase/tstX86-1A.asm
  2594 00000E0C 0FAE4750                fxsave [rdi + 80]
  2595                                 ..@412.trap_end:
  2596 00000E10 B841060000              mov eax, 1601
  2597 00000E15 E99F040000              jmp .return
  2598                                 [section .data]
  2599                                 ..@412.trapinfo: 
  2600                                 ..@416.strucstart:
  2601 000005AC [0000000000000000]     dq ..@412.trap
  2602 000005B4 [0000000000000000]     dq ..@412.resume
  2603 000005BC 0E                     db 0x0e
  2604 000005BD 04                     db (..@412.trap_end - ..@412.trap)
  2605 000005BE 00<rept>               times TRAPINFO_size-($-..@416.strucstart) db 0
  2606                                 [section .text]
  2607                                 ..@412.resume:
  2608                                 %line 1602+1 /home/se170/VirtualBox-4.3.28/src/VBox/VMM/testcase/tstX86-1A.asm
  2609                                 ..@424.trap:
  2610                                 %line 1602+0 /home/se170/VirtualBox-4.3.28/src/VBox/VMM/testcase/tstX86-1A.asm
  2611 00000E1A 0FAE4760                fxsave [rdi + 96]
  2612                                 ..@424.trap_end:
  2613 00000E1E B842060000              mov eax, 1602
  2614 00000E23 E991040000              jmp .return
  2615                                 [section .data]
  2616                                 ..@424.trapinfo: 
  2617                                 ..@428.strucstart:
  2618 000005CC [0000000000000000]     dq ..@424.trap
  2619 000005D4 [0000000000000000]     dq ..@424.resume
  2620 000005DC 0E                     db 0x0e
  2621 000005DD 04                     db (..@424.trap_end - ..@424.trap)
  2622 000005DE 00<rept>               times TRAPINFO_size-($-..@428.strucstart) db 0
  2623                                 [section .text]
  2624                                 ..@424.resume:
  2625                                 %line 1603+1 /home/se170/VirtualBox-4.3.28/src/VBox/VMM/testcase/tstX86-1A.asm
  2626                                 ..@436.trap:
  2627                                 %line 1603+0 /home/se170/VirtualBox-4.3.28/src/VBox/VMM/testcase/tstX86-1A.asm
  2628 00000E28 0FAE8780000000          fxsave [rdi + 128]
  2629                                 ..@436.trap_end:
  2630 00000E2F B843060000              mov eax, 1603
  2631 00000E34 E980040000              jmp .return
  2632                                 [section .data]
  2633                                 ..@436.trapinfo: 
  2634                                 ..@440.strucstart:
  2635 000005EC [0000000000000000]     dq ..@436.trap
  2636 000005F4 [0000000000000000]     dq ..@436.resume
  2637 000005FC 0E                     db 0x0e
  2638 000005FD 07                     db (..@436.trap_end - ..@436.trap)
  2639 000005FE 00<rept>               times TRAPINFO_size-($-..@440.strucstart) db 0
  2640                                 [section .text]
  2641                                 ..@436.resume:
  2642                                 %line 1604+1 /home/se170/VirtualBox-4.3.28/src/VBox/VMM/testcase/tstX86-1A.asm
  2643                                 ..@448.trap:
  2644                                 %line 1604+0 /home/se170/VirtualBox-4.3.28/src/VBox/VMM/testcase/tstX86-1A.asm
  2645 00000E39 0FAE8790000000          fxsave [rdi + 144]
  2646                                 ..@448.trap_end:
  2647 00000E40 B844060000              mov eax, 1604
  2648 00000E45 E96F040000              jmp .return
  2649                                 [section .data]
  2650                                 ..@448.trapinfo: 
  2651                                 ..@452.strucstart:
  2652 0000060C [0000000000000000]     dq ..@448.trap
  2653 00000614 [0000000000000000]     dq ..@448.resume
  2654 0000061C 0E                     db 0x0e
  2655 0000061D 07                     db (..@448.trap_end - ..@448.trap)
  2656 0000061E 00<rept>               times TRAPINFO_size-($-..@452.strucstart) db 0
  2657                                 [section .text]
  2658                                 ..@448.resume:
  2659                                 %line 1605+1 /home/se170/VirtualBox-4.3.28/src/VBox/VMM/testcase/tstX86-1A.asm
  2660                                 ..@460.trap:
  2661                                 %line 1605+0 /home/se170/VirtualBox-4.3.28/src/VBox/VMM/testcase/tstX86-1A.asm
  2662 00000E4A 0FAE87A0000000          fxsave [rdi + 160]
  2663                                 ..@460.trap_end:
  2664 00000E51 B845060000              mov eax, 1605
  2665 00000E56 E95E040000              jmp .return
  2666                                 [section .data]
  2667                                 ..@460.trapinfo: 
  2668                                 ..@464.strucstart:
  2669 0000062C [0000000000000000]     dq ..@460.trap
  2670 00000634 [0000000000000000]     dq ..@460.resume
  2671 0000063C 0E                     db 0x0e
  2672 0000063D 07                     db (..@460.trap_end - ..@460.trap)
  2673 0000063E 00<rept>               times TRAPINFO_size-($-..@464.strucstart) db 0
  2674                                 [section .text]
  2675                                 ..@460.resume:
  2676                                 %line 1606+1 /home/se170/VirtualBox-4.3.28/src/VBox/VMM/testcase/tstX86-1A.asm
  2677                                 ..@472.trap:
  2678                                 %line 1606+0 /home/se170/VirtualBox-4.3.28/src/VBox/VMM/testcase/tstX86-1A.asm
  2679 00000E5B 0FAE87B0000000          fxsave [rdi + 176]
  2680                                 ..@472.trap_end:
  2681 00000E62 B846060000              mov eax, 1606
  2682 00000E67 E94D040000              jmp .return
  2683                                 [section .data]
  2684                                 ..@472.trapinfo: 
  2685                                 ..@476.strucstart:
  2686 0000064C [0000000000000000]     dq ..@472.trap
  2687 00000654 [0000000000000000]     dq ..@472.resume
  2688 0000065C 0E                     db 0x0e
  2689 0000065D 07                     db (..@472.trap_end - ..@472.trap)
  2690 0000065E 00<rept>               times TRAPINFO_size-($-..@476.strucstart) db 0
  2691                                 [section .text]
  2692                                 ..@472.resume:
  2693                                 %line 1607+1 /home/se170/VirtualBox-4.3.28/src/VBox/VMM/testcase/tstX86-1A.asm
  2694                                 ..@484.trap:
  2695                                 %line 1607+0 /home/se170/VirtualBox-4.3.28/src/VBox/VMM/testcase/tstX86-1A.asm
  2696 00000E6C 0FAE87C0000000          fxsave [rdi + 192]
  2697                                 ..@484.trap_end:
  2698 00000E73 B847060000              mov eax, 1607
  2699 00000E78 E93C040000              jmp .return
  2700                                 [section .data]
  2701                                 ..@484.trapinfo: 
  2702                                 ..@488.strucstart:
  2703 0000066C [0000000000000000]     dq ..@484.trap
  2704 00000674 [0000000000000000]     dq ..@484.resume
  2705 0000067C 0E                     db 0x0e
  2706 0000067D 07                     db (..@484.trap_end - ..@484.trap)
  2707 0000067E 00<rept>               times TRAPINFO_size-($-..@488.strucstart) db 0
  2708                                 [section .text]
  2709                                 ..@484.resume:
  2710                                 %line 1608+1 /home/se170/VirtualBox-4.3.28/src/VBox/VMM/testcase/tstX86-1A.asm
  2711                                 ..@496.trap:
  2712                                 %line 1608+0 /home/se170/VirtualBox-4.3.28/src/VBox/VMM/testcase/tstX86-1A.asm
  2713 00000E7D 0FAE87D0000000          fxsave [rdi + 208]
  2714                                 ..@496.trap_end:
  2715 00000E84 B848060000              mov eax, 1608
  2716 00000E89 E92B040000              jmp .return
  2717                                 [section .data]
  2718                                 ..@496.trapinfo: 
  2719                                 ..@500.strucstart:
  2720 0000068C [0000000000000000]     dq ..@496.trap
  2721 00000694 [0000000000000000]     dq ..@496.resume
  2722 0000069C 0E                     db 0x0e
  2723 0000069D 07                     db (..@496.trap_end - ..@496.trap)
  2724 0000069E 00<rept>               times TRAPINFO_size-($-..@500.strucstart) db 0
  2725                                 [section .text]
  2726                                 ..@496.resume:
  2727                                 %line 1609+1 /home/se170/VirtualBox-4.3.28/src/VBox/VMM/testcase/tstX86-1A.asm
  2728                                 ..@508.trap:
  2729                                 %line 1609+0 /home/se170/VirtualBox-4.3.28/src/VBox/VMM/testcase/tstX86-1A.asm
  2730 00000E8E 0FAE87E0000000          fxsave [rdi + 224]
  2731                                 ..@508.trap_end:
  2732 00000E95 B849060000              mov eax, 1609
  2733 00000E9A E91A040000              jmp .return
  2734                                 [section .data]
  2735                                 ..@508.trapinfo: 
  2736                                 ..@512.strucstart:
  2737 000006AC [0000000000000000]     dq ..@508.trap
  2738 000006B4 [0000000000000000]     dq ..@508.resume
  2739 000006BC 0E                     db 0x0e
  2740 000006BD 07                     db (..@508.trap_end - ..@508.trap)
  2741 000006BE 00<rept>               times TRAPINFO_size-($-..@512.strucstart) db 0
  2742                                 [section .text]
  2743                                 ..@508.resume:
  2744                                 %line 1610+1 /home/se170/VirtualBox-4.3.28/src/VBox/VMM/testcase/tstX86-1A.asm
  2745                                 ..@520.trap:
  2746                                 %line 1610+0 /home/se170/VirtualBox-4.3.28/src/VBox/VMM/testcase/tstX86-1A.asm
  2747 00000E9F 0FAE87F0000000          fxsave [rdi + 240]
  2748                                 ..@520.trap_end:
  2749 00000EA6 B84A060000              mov eax, 1610
  2750 00000EAB E909040000              jmp .return
  2751                                 [section .data]
  2752                                 ..@520.trapinfo: 
  2753                                 ..@524.strucstart:
  2754 000006CC [0000000000000000]     dq ..@520.trap
  2755 000006D4 [0000000000000000]     dq ..@520.resume
  2756 000006DC 0E                     db 0x0e
  2757 000006DD 07                     db (..@520.trap_end - ..@520.trap)
  2758 000006DE 00<rept>               times TRAPINFO_size-($-..@524.strucstart) db 0
  2759                                 [section .text]
  2760                                 ..@520.resume:
  2761                                 %line 1611+1 /home/se170/VirtualBox-4.3.28/src/VBox/VMM/testcase/tstX86-1A.asm
  2762                                 ..@532.trap:
  2763                                 %line 1611+0 /home/se170/VirtualBox-4.3.28/src/VBox/VMM/testcase/tstX86-1A.asm
  2764 00000EB0 0FAE8700010000          fxsave [rdi + 256]
  2765                                 ..@532.trap_end:
  2766 00000EB7 B84B060000              mov eax, 1611
  2767 00000EBC E9F8030000              jmp .return
  2768                                 [section .data]
  2769                                 ..@532.trapinfo: 
  2770                                 ..@536.strucstart:
  2771 000006EC [0000000000000000]     dq ..@532.trap
  2772 000006F4 [0000000000000000]     dq ..@532.resume
  2773 000006FC 0E                     db 0x0e
  2774 000006FD 07                     db (..@532.trap_end - ..@532.trap)
  2775 000006FE 00<rept>               times TRAPINFO_size-($-..@536.strucstart) db 0
  2776                                 [section .text]
  2777                                 ..@532.resume:
  2778                                 %line 1612+1 /home/se170/VirtualBox-4.3.28/src/VBox/VMM/testcase/tstX86-1A.asm
  2779                                 ..@544.trap:
  2780                                 %line 1612+0 /home/se170/VirtualBox-4.3.28/src/VBox/VMM/testcase/tstX86-1A.asm
  2781 00000EC1 0FAE8780010000          fxsave [rdi + 384]
  2782                                 ..@544.trap_end:
  2783 00000EC8 B84C060000              mov eax, 1612
  2784 00000ECD E9E7030000              jmp .return
  2785                                 [section .data]
  2786                                 ..@544.trapinfo: 
  2787                                 ..@548.strucstart:
  2788 0000070C [0000000000000000]     dq ..@544.trap
  2789 00000714 [0000000000000000]     dq ..@544.resume
  2790 0000071C 0E                     db 0x0e
  2791 0000071D 07                     db (..@544.trap_end - ..@544.trap)
  2792 0000071E 00<rept>               times TRAPINFO_size-($-..@548.strucstart) db 0
  2793                                 [section .text]
  2794                                 ..@544.resume:
  2795                                 %line 1613+1 /home/se170/VirtualBox-4.3.28/src/VBox/VMM/testcase/tstX86-1A.asm
  2796                                 ..@556.trap:
  2797                                 %line 1613+0 /home/se170/VirtualBox-4.3.28/src/VBox/VMM/testcase/tstX86-1A.asm
  2798 00000ED2 0FAE87B0010000          fxsave [rdi + 432]
  2799                                 ..@556.trap_end:
  2800 00000ED9 B84D060000              mov eax, 1613
  2801 00000EDE E9D6030000              jmp .return
  2802                                 [section .data]
  2803                                 ..@556.trapinfo: 
  2804                                 ..@560.strucstart:
  2805 0000072C [0000000000000000]     dq ..@556.trap
  2806 00000734 [0000000000000000]     dq ..@556.resume
  2807 0000073C 0E                     db 0x0e
  2808 0000073D 07                     db (..@556.trap_end - ..@556.trap)
  2809 0000073E 00<rept>               times TRAPINFO_size-($-..@560.strucstart) db 0
  2810                                 [section .text]
  2811                                 ..@556.resume:
  2812                                 %line 1614+1 /home/se170/VirtualBox-4.3.28/src/VBox/VMM/testcase/tstX86-1A.asm
  2813                                 ..@568.trap:
  2814                                 %line 1614+0 /home/se170/VirtualBox-4.3.28/src/VBox/VMM/testcase/tstX86-1A.asm
  2815 00000EE3 0FAE87F0010000          fxsave [rdi + 496]
  2816                                 ..@568.trap_end:
  2817 00000EEA B84E060000              mov eax, 1614
  2818 00000EEF E9C5030000              jmp .return
  2819                                 [section .data]
  2820                                 ..@568.trapinfo: 
  2821                                 ..@572.strucstart:
  2822 0000074C [0000000000000000]     dq ..@568.trap
  2823 00000754 [0000000000000000]     dq ..@568.resume
  2824 0000075C 0E                     db 0x0e
  2825 0000075D 07                     db (..@568.trap_end - ..@568.trap)
  2826 0000075E 00<rept>               times TRAPINFO_size-($-..@572.strucstart) db 0
  2827                                 [section .text]
  2828                                 ..@568.resume:
  2829                                 %line 1615+1 /home/se170/VirtualBox-4.3.28/src/VBox/VMM/testcase/tstX86-1A.asm
  2830                                 
  2831                                 ..@580.trap:
  2832                                 %line 1616+0 /home/se170/VirtualBox-4.3.28/src/VBox/VMM/testcase/tstX86-1A.asm
  2833 00000EF4 0FAE4F10                fxrstor [rdi + 16]
  2834                                 ..@580.trap_end:
  2835 00000EF8 B850060000              mov eax, 1616
  2836 00000EFD E9B7030000              jmp .return
  2837                                 [section .data]
  2838                                 ..@580.trapinfo: 
  2839                                 ..@584.strucstart:
  2840 0000076C [0000000000000000]     dq ..@580.trap
  2841 00000774 [0000000000000000]     dq ..@580.resume
  2842 0000077C 0E                     db 0x0e
  2843 0000077D 04                     db (..@580.trap_end - ..@580.trap)
  2844 0000077E 00<rept>               times TRAPINFO_size-($-..@584.strucstart) db 0
  2845                                 [section .text]
  2846                                 ..@580.resume:
  2847                                 %line 1617+1 /home/se170/VirtualBox-4.3.28/src/VBox/VMM/testcase/tstX86-1A.asm
  2848                                 ..@592.trap:
  2849                                 %line 1617+0 /home/se170/VirtualBox-4.3.28/src/VBox/VMM/testcase/tstX86-1A.asm
  2850 00000F02 0FAE4F20                fxrstor [rdi + 32]
  2851                                 ..@592.trap_end:
  2852 00000F06 B851060000              mov eax, 1617
  2853 00000F0B E9A9030000              jmp .return
  2854                                 [section .data]
  2855                                 ..@592.trapinfo: 
  2856                                 ..@596.strucstart:
  2857 0000078C [0000000000000000]     dq ..@592.trap
  2858 00000794 [0000000000000000]     dq ..@592.resume
  2859 0000079C 0E                     db 0x0e
  2860 0000079D 04                     db (..@592.trap_end - ..@592.trap)
  2861 0000079E 00<rept>               times TRAPINFO_size-($-..@596.strucstart) db 0
  2862                                 [section .text]
  2863                                 ..@592.resume:
  2864                                 %line 1618+1 /home/se170/VirtualBox-4.3.28/src/VBox/VMM/testcase/tstX86-1A.asm
  2865                                 ..@604.trap:
  2866                                 %line 1618+0 /home/se170/VirtualBox-4.3.28/src/VBox/VMM/testcase/tstX86-1A.asm
  2867 00000F10 0FAE4F30                fxrstor [rdi + 48]
  2868                                 ..@604.trap_end:
  2869 00000F14 B852060000              mov eax, 1618
  2870 00000F19 E99B030000              jmp .return
  2871                                 [section .data]
  2872                                 ..@604.trapinfo: 
  2873                                 ..@608.strucstart:
  2874 000007AC [0000000000000000]     dq ..@604.trap
  2875 000007B4 [0000000000000000]     dq ..@604.resume
  2876 000007BC 0E                     db 0x0e
  2877 000007BD 04                     db (..@604.trap_end - ..@604.trap)
  2878 000007BE 00<rept>               times TRAPINFO_size-($-..@608.strucstart) db 0
  2879                                 [section .text]
  2880                                 ..@604.resume:
  2881                                 %line 1619+1 /home/se170/VirtualBox-4.3.28/src/VBox/VMM/testcase/tstX86-1A.asm
  2882                                 ..@616.trap:
  2883                                 %line 1619+0 /home/se170/VirtualBox-4.3.28/src/VBox/VMM/testcase/tstX86-1A.asm
  2884 00000F1E 0FAE4F40                fxrstor [rdi + 64]
  2885                                 ..@616.trap_end:
  2886 00000F22 B853060000              mov eax, 1619
  2887 00000F27 E98D030000              jmp .return
  2888                                 [section .data]
  2889                                 ..@616.trapinfo: 
  2890                                 ..@620.strucstart:
  2891 000007CC [0000000000000000]     dq ..@616.trap
  2892 000007D4 [0000000000000000]     dq ..@616.resume
  2893 000007DC 0E                     db 0x0e
  2894 000007DD 04                     db (..@616.trap_end - ..@616.trap)
  2895 000007DE 00<rept>               times TRAPINFO_size-($-..@620.strucstart) db 0
  2896                                 [section .text]
  2897                                 ..@616.resume:
  2898                                 %line 1620+1 /home/se170/VirtualBox-4.3.28/src/VBox/VMM/testcase/tstX86-1A.asm
  2899                                 ..@628.trap:
  2900                                 %line 1620+0 /home/se170/VirtualBox-4.3.28/src/VBox/VMM/testcase/tstX86-1A.asm
  2901 00000F2C 0FAE4F50                fxrstor [rdi + 80]
  2902                                 ..@628.trap_end:
  2903 00000F30 B854060000              mov eax, 1620
  2904 00000F35 E97F030000              jmp .return
  2905                                 [section .data]
  2906                                 ..@628.trapinfo: 
  2907                                 ..@632.strucstart:
  2908 000007EC [0000000000000000]     dq ..@628.trap
  2909 000007F4 [0000000000000000]     dq ..@628.resume
  2910 000007FC 0E                     db 0x0e
  2911 000007FD 04                     db (..@628.trap_end - ..@628.trap)
  2912 000007FE 00<rept>               times TRAPINFO_size-($-..@632.strucstart) db 0
  2913                                 [section .text]
  2914                                 ..@628.resume:
  2915                                 %line 1621+1 /home/se170/VirtualBox-4.3.28/src/VBox/VMM/testcase/tstX86-1A.asm
  2916                                 ..@640.trap:
  2917                                 %line 1621+0 /home/se170/VirtualBox-4.3.28/src/VBox/VMM/testcase/tstX86-1A.asm
  2918 00000F3A 0FAE4F60                fxrstor [rdi + 96]
  2919                                 ..@640.trap_end:
  2920 00000F3E B855060000              mov eax, 1621
  2921 00000F43 E971030000              jmp .return
  2922                                 [section .data]
  2923                                 ..@640.trapinfo: 
  2924                                 ..@644.strucstart:
  2925 0000080C [0000000000000000]     dq ..@640.trap
  2926 00000814 [0000000000000000]     dq ..@640.resume
  2927 0000081C 0E                     db 0x0e
  2928 0000081D 04                     db (..@640.trap_end - ..@640.trap)
  2929 0000081E 00<rept>               times TRAPINFO_size-($-..@644.strucstart) db 0
  2930                                 [section .text]
  2931                                 ..@640.resume:
  2932                                 %line 1622+1 /home/se170/VirtualBox-4.3.28/src/VBox/VMM/testcase/tstX86-1A.asm
  2933                                 ..@652.trap:
  2934                                 %line 1622+0 /home/se170/VirtualBox-4.3.28/src/VBox/VMM/testcase/tstX86-1A.asm
  2935 00000F48 0FAE8F80000000          fxrstor [rdi + 128]
  2936                                 ..@652.trap_end:
  2937 00000F4F B856060000              mov eax, 1622
  2938 00000F54 E960030000              jmp .return
  2939                                 [section .data]
  2940                                 ..@652.trapinfo: 
  2941                                 ..@656.strucstart:
  2942 0000082C [0000000000000000]     dq ..@652.trap
  2943 00000834 [0000000000000000]     dq ..@652.resume
  2944 0000083C 0E                     db 0x0e
  2945 0000083D 07                     db (..@652.trap_end - ..@652.trap)
  2946 0000083E 00<rept>               times TRAPINFO_size-($-..@656.strucstart) db 0
  2947                                 [section .text]
  2948                                 ..@652.resume:
  2949                                 %line 1623+1 /home/se170/VirtualBox-4.3.28/src/VBox/VMM/testcase/tstX86-1A.asm
  2950                                 ..@664.trap:
  2951                                 %line 1623+0 /home/se170/VirtualBox-4.3.28/src/VBox/VMM/testcase/tstX86-1A.asm
  2952 00000F59 0FAE8F90000000          fxrstor [rdi + 144]
  2953                                 ..@664.trap_end:
  2954 00000F60 B857060000              mov eax, 1623
  2955 00000F65 E94F030000              jmp .return
  2956                                 [section .data]
  2957                                 ..@664.trapinfo: 
  2958                                 ..@668.strucstart:
  2959 0000084C [0000000000000000]     dq ..@664.trap
  2960 00000854 [0000000000000000]     dq ..@664.resume
  2961 0000085C 0E                     db 0x0e
  2962 0000085D 07                     db (..@664.trap_end - ..@664.trap)
  2963 0000085E 00<rept>               times TRAPINFO_size-($-..@668.strucstart) db 0
  2964                                 [section .text]
  2965                                 ..@664.resume:
  2966                                 %line 1624+1 /home/se170/VirtualBox-4.3.28/src/VBox/VMM/testcase/tstX86-1A.asm
  2967                                 ..@676.trap:
  2968                                 %line 1624+0 /home/se170/VirtualBox-4.3.28/src/VBox/VMM/testcase/tstX86-1A.asm
  2969 00000F6A 0FAE8FA0000000          fxrstor [rdi + 160]
  2970                                 ..@676.trap_end:
  2971 00000F71 B858060000              mov eax, 1624
  2972 00000F76 E93E030000              jmp .return
  2973                                 [section .data]
  2974                                 ..@676.trapinfo: 
  2975                                 ..@680.strucstart:
  2976 0000086C [0000000000000000]     dq ..@676.trap
  2977 00000874 [0000000000000000]     dq ..@676.resume
  2978 0000087C 0E                     db 0x0e
  2979 0000087D 07                     db (..@676.trap_end - ..@676.trap)
  2980 0000087E 00<rept>               times TRAPINFO_size-($-..@680.strucstart) db 0
  2981                                 [section .text]
  2982                                 ..@676.resume:
  2983                                 %line 1625+1 /home/se170/VirtualBox-4.3.28/src/VBox/VMM/testcase/tstX86-1A.asm
  2984                                 ..@688.trap:
  2985                                 %line 1625+0 /home/se170/VirtualBox-4.3.28/src/VBox/VMM/testcase/tstX86-1A.asm
  2986 00000F7B 0FAE8FB0000000          fxrstor [rdi + 176]
  2987                                 ..@688.trap_end:
  2988 00000F82 B859060000              mov eax, 1625
  2989 00000F87 E92D030000              jmp .return
  2990                                 [section .data]
  2991                                 ..@688.trapinfo: 
  2992                                 ..@692.strucstart:
  2993 0000088C [0000000000000000]     dq ..@688.trap
  2994 00000894 [0000000000000000]     dq ..@688.resume
  2995 0000089C 0E                     db 0x0e
  2996 0000089D 07                     db (..@688.trap_end - ..@688.trap)
  2997 0000089E 00<rept>               times TRAPINFO_size-($-..@692.strucstart) db 0
  2998                                 [section .text]
  2999                                 ..@688.resume:
  3000                                 %line 1626+1 /home/se170/VirtualBox-4.3.28/src/VBox/VMM/testcase/tstX86-1A.asm
  3001                                 ..@700.trap:
  3002                                 %line 1626+0 /home/se170/VirtualBox-4.3.28/src/VBox/VMM/testcase/tstX86-1A.asm
  3003 00000F8C 0FAE8FC0000000          fxrstor [rdi + 192]
  3004                                 ..@700.trap_end:
  3005 00000F93 B85A060000              mov eax, 1626
  3006 00000F98 E91C030000              jmp .return
  3007                                 [section .data]
  3008                                 ..@700.trapinfo: 
  3009                                 ..@704.strucstart:
  3010 000008AC [0000000000000000]     dq ..@700.trap
  3011 000008B4 [0000000000000000]     dq ..@700.resume
  3012 000008BC 0E                     db 0x0e
  3013 000008BD 07                     db (..@700.trap_end - ..@700.trap)
  3014 000008BE 00<rept>               times TRAPINFO_size-($-..@704.strucstart) db 0
  3015                                 [section .text]
  3016                                 ..@700.resume:
  3017                                 %line 1627+1 /home/se170/VirtualBox-4.3.28/src/VBox/VMM/testcase/tstX86-1A.asm
  3018                                 ..@712.trap:
  3019                                 %line 1627+0 /home/se170/VirtualBox-4.3.28/src/VBox/VMM/testcase/tstX86-1A.asm
  3020 00000F9D 0FAE8FD0000000          fxrstor [rdi + 208]
  3021                                 ..@712.trap_end:
  3022 00000FA4 B85B060000              mov eax, 1627
  3023 00000FA9 E90B030000              jmp .return
  3024                                 [section .data]
  3025                                 ..@712.trapinfo: 
  3026                                 ..@716.strucstart:
  3027 000008CC [0000000000000000]     dq ..@712.trap
  3028 000008D4 [0000000000000000]     dq ..@712.resume
  3029 000008DC 0E                     db 0x0e
  3030 000008DD 07                     db (..@712.trap_end - ..@712.trap)
  3031 000008DE 00<rept>               times TRAPINFO_size-($-..@716.strucstart) db 0
  3032                                 [section .text]
  3033                                 ..@712.resume:
  3034                                 %line 1628+1 /home/se170/VirtualBox-4.3.28/src/VBox/VMM/testcase/tstX86-1A.asm
  3035                                 ..@724.trap:
  3036                                 %line 1628+0 /home/se170/VirtualBox-4.3.28/src/VBox/VMM/testcase/tstX86-1A.asm
  3037 00000FAE 0FAE8FE0000000          fxrstor [rdi + 224]
  3038                                 ..@724.trap_end:
  3039 00000FB5 B85C060000              mov eax, 1628
  3040 00000FBA E9FA020000              jmp .return
  3041                                 [section .data]
  3042                                 ..@724.trapinfo: 
  3043                                 ..@728.strucstart:
  3044 000008EC [0000000000000000]     dq ..@724.trap
  3045 000008F4 [0000000000000000]     dq ..@724.resume
  3046 000008FC 0E                     db 0x0e
  3047 000008FD 07                     db (..@724.trap_end - ..@724.trap)
  3048 000008FE 00<rept>               times TRAPINFO_size-($-..@728.strucstart) db 0
  3049                                 [section .text]
  3050                                 ..@724.resume:
  3051                                 %line 1629+1 /home/se170/VirtualBox-4.3.28/src/VBox/VMM/testcase/tstX86-1A.asm
  3052                                 ..@736.trap:
  3053                                 %line 1629+0 /home/se170/VirtualBox-4.3.28/src/VBox/VMM/testcase/tstX86-1A.asm
  3054 00000FBF 0FAE8FF0000000          fxrstor [rdi + 240]
  3055                                 ..@736.trap_end:
  3056 00000FC6 B85D060000              mov eax, 1629
  3057 00000FCB E9E9020000              jmp .return
  3058                                 [section .data]
  3059                                 ..@736.trapinfo: 
  3060                                 ..@740.strucstart:
  3061 0000090C [0000000000000000]     dq ..@736.trap
  3062 00000914 [0000000000000000]     dq ..@736.resume
  3063 0000091C 0E                     db 0x0e
  3064 0000091D 07                     db (..@736.trap_end - ..@736.trap)
  3065 0000091E 00<rept>               times TRAPINFO_size-($-..@740.strucstart) db 0
  3066                                 [section .text]
  3067                                 ..@736.resume:
  3068                                 %line 1630+1 /home/se170/VirtualBox-4.3.28/src/VBox/VMM/testcase/tstX86-1A.asm
  3069                                 ..@748.trap:
  3070                                 %line 1630+0 /home/se170/VirtualBox-4.3.28/src/VBox/VMM/testcase/tstX86-1A.asm
  3071 00000FD0 0FAE8F00010000          fxrstor [rdi + 256]
  3072                                 ..@748.trap_end:
  3073 00000FD7 B85E060000              mov eax, 1630
  3074 00000FDC E9D8020000              jmp .return
  3075                                 [section .data]
  3076                                 ..@748.trapinfo: 
  3077                                 ..@752.strucstart:
  3078 0000092C [0000000000000000]     dq ..@748.trap
  3079 00000934 [0000000000000000]     dq ..@748.resume
  3080 0000093C 0E                     db 0x0e
  3081 0000093D 07                     db (..@748.trap_end - ..@748.trap)
  3082 0000093E 00<rept>               times TRAPINFO_size-($-..@752.strucstart) db 0
  3083                                 [section .text]
  3084                                 ..@748.resume:
  3085                                 %line 1631+1 /home/se170/VirtualBox-4.3.28/src/VBox/VMM/testcase/tstX86-1A.asm
  3086                                 ..@760.trap:
  3087                                 %line 1631+0 /home/se170/VirtualBox-4.3.28/src/VBox/VMM/testcase/tstX86-1A.asm
  3088 00000FE1 0FAE8F80010000          fxrstor [rdi + 384]
  3089                                 ..@760.trap_end:
  3090 00000FE8 B85F060000              mov eax, 1631
  3091 00000FED E9C7020000              jmp .return
  3092                                 [section .data]
  3093                                 ..@760.trapinfo: 
  3094                                 ..@764.strucstart:
  3095 0000094C [0000000000000000]     dq ..@760.trap
  3096 00000954 [0000000000000000]     dq ..@760.resume
  3097 0000095C 0E                     db 0x0e
  3098 0000095D 07                     db (..@760.trap_end - ..@760.trap)
  3099 0000095E 00<rept>               times TRAPINFO_size-($-..@764.strucstart) db 0
  3100                                 [section .text]
  3101                                 ..@760.resume:
  3102                                 %line 1632+1 /home/se170/VirtualBox-4.3.28/src/VBox/VMM/testcase/tstX86-1A.asm
  3103                                 ..@772.trap:
  3104                                 %line 1632+0 /home/se170/VirtualBox-4.3.28/src/VBox/VMM/testcase/tstX86-1A.asm
  3105 00000FF2 0FAE8FB0010000          fxrstor [rdi + 432]
  3106                                 ..@772.trap_end:
  3107 00000FF9 B860060000              mov eax, 1632
  3108 00000FFE E9B6020000              jmp .return
  3109                                 [section .data]
  3110                                 ..@772.trapinfo: 
  3111                                 ..@776.strucstart:
  3112 0000096C [0000000000000000]     dq ..@772.trap
  3113 00000974 [0000000000000000]     dq ..@772.resume
  3114 0000097C 0E                     db 0x0e
  3115 0000097D 07                     db (..@772.trap_end - ..@772.trap)
  3116 0000097E 00<rept>               times TRAPINFO_size-($-..@776.strucstart) db 0
  3117                                 [section .text]
  3118                                 ..@772.resume:
  3119                                 %line 1633+1 /home/se170/VirtualBox-4.3.28/src/VBox/VMM/testcase/tstX86-1A.asm
  3120                                 ..@784.trap:
  3121                                 %line 1633+0 /home/se170/VirtualBox-4.3.28/src/VBox/VMM/testcase/tstX86-1A.asm
  3122 00001003 0FAE8FF0010000          fxrstor [rdi + 496]
  3123                                 ..@784.trap_end:
  3124 0000100A B861060000              mov eax, 1633
  3125 0000100F E9A5020000              jmp .return
  3126                                 [section .data]
  3127                                 ..@784.trapinfo: 
  3128                                 ..@788.strucstart:
  3129 0000098C [0000000000000000]     dq ..@784.trap
  3130 00000994 [0000000000000000]     dq ..@784.resume
  3131 0000099C 0E                     db 0x0e
  3132 0000099D 07                     db (..@784.trap_end - ..@784.trap)
  3133 0000099E 00<rept>               times TRAPINFO_size-($-..@788.strucstart) db 0
  3134                                 [section .text]
  3135                                 ..@784.resume:
  3136                                 %line 1634+1 /home/se170/VirtualBox-4.3.28/src/VBox/VMM/testcase/tstX86-1A.asm
  3137                                 
  3138                                 
  3139                                 ..@796.trap:
  3140                                 %line 1636+0 /home/se170/VirtualBox-4.3.28/src/VBox/VMM/testcase/tstX86-1A.asm
  3141 00001014 0FAE4701                fxsave [rdi + 1]
  3142                                 ..@796.trap_end:
  3143 00001018 B864060000              mov eax, 1636
  3144 0000101D E997020000              jmp .return
  3145                                 [section .data]
  3146                                 ..@796.trapinfo: 
  3147                                 ..@800.strucstart:
  3148 000009AC [0000000000000000]     dq ..@796.trap
  3149 000009B4 [0000000000000000]     dq ..@796.resume
  3150 000009BC 0D                     db 0x0d
  3151 000009BD 04                     db (..@796.trap_end - ..@796.trap)
  3152 000009BE 00<rept>               times TRAPINFO_size-($-..@800.strucstart) db 0
  3153                                 [section .text]
  3154                                 ..@796.resume:
  3155                                 %line 1637+1 /home/se170/VirtualBox-4.3.28/src/VBox/VMM/testcase/tstX86-1A.asm
  3156                                 ..@808.trap:
  3157                                 %line 1637+0 /home/se170/VirtualBox-4.3.28/src/VBox/VMM/testcase/tstX86-1A.asm
  3158 00001022 0FAE4702                fxsave [rdi + 2]
  3159                                 ..@808.trap_end:
  3160 00001026 B865060000              mov eax, 1637
  3161 0000102B E989020000              jmp .return
  3162                                 [section .data]
  3163                                 ..@808.trapinfo: 
  3164                                 ..@812.strucstart:
  3165 000009CC [0000000000000000]     dq ..@808.trap
  3166 000009D4 [0000000000000000]     dq ..@808.resume
  3167 000009DC 0D                     db 0x0d
  3168 000009DD 04                     db (..@808.trap_end - ..@808.trap)
  3169 000009DE 00<rept>               times TRAPINFO_size-($-..@812.strucstart) db 0
  3170                                 [section .text]
  3171                                 ..@808.resume:
  3172                                 %line 1638+1 /home/se170/VirtualBox-4.3.28/src/VBox/VMM/testcase/tstX86-1A.asm
  3173                                 ..@820.trap:
  3174                                 %line 1638+0 /home/se170/VirtualBox-4.3.28/src/VBox/VMM/testcase/tstX86-1A.asm
  3175 00001030 0FAE4703                fxsave [rdi + 3]
  3176                                 ..@820.trap_end:
  3177 00001034 B866060000              mov eax, 1638
  3178 00001039 E97B020000              jmp .return
  3179                                 [section .data]
  3180                                 ..@820.trapinfo: 
  3181                                 ..@824.strucstart:
  3182 000009EC [0000000000000000]     dq ..@820.trap
  3183 000009F4 [0000000000000000]     dq ..@820.resume
  3184 000009FC 0D                     db 0x0d
  3185 000009FD 04                     db (..@820.trap_end - ..@820.trap)
  3186 000009FE 00<rept>               times TRAPINFO_size-($-..@824.strucstart) db 0
  3187                                 [section .text]
  3188                                 ..@820.resume:
  3189                                 %line 1639+1 /home/se170/VirtualBox-4.3.28/src/VBox/VMM/testcase/tstX86-1A.asm
  3190                                 ..@832.trap:
  3191                                 %line 1639+0 /home/se170/VirtualBox-4.3.28/src/VBox/VMM/testcase/tstX86-1A.asm
  3192 0000103E 0FAE4704                fxsave [rdi + 4]
  3193                                 ..@832.trap_end:
  3194 00001042 B867060000              mov eax, 1639
  3195 00001047 E96D020000              jmp .return
  3196                                 [section .data]
  3197                                 ..@832.trapinfo: 
  3198                                 ..@836.strucstart:
  3199 00000A0C [0000000000000000]     dq ..@832.trap
  3200 00000A14 [0000000000000000]     dq ..@832.resume
  3201 00000A1C 0D                     db 0x0d
  3202 00000A1D 04                     db (..@832.trap_end - ..@832.trap)
  3203 00000A1E 00<rept>               times TRAPINFO_size-($-..@836.strucstart) db 0
  3204                                 [section .text]
  3205                                 ..@832.resume:
  3206                                 %line 1640+1 /home/se170/VirtualBox-4.3.28/src/VBox/VMM/testcase/tstX86-1A.asm
  3207                                 ..@844.trap:
  3208                                 %line 1640+0 /home/se170/VirtualBox-4.3.28/src/VBox/VMM/testcase/tstX86-1A.asm
  3209 0000104C 0FAE4705                fxsave [rdi + 5]
  3210                                 ..@844.trap_end:
  3211 00001050 B868060000              mov eax, 1640
  3212 00001055 E95F020000              jmp .return
  3213                                 [section .data]
  3214                                 ..@844.trapinfo: 
  3215                                 ..@848.strucstart:
  3216 00000A2C [0000000000000000]     dq ..@844.trap
  3217 00000A34 [0000000000000000]     dq ..@844.resume
  3218 00000A3C 0D                     db 0x0d
  3219 00000A3D 04                     db (..@844.trap_end - ..@844.trap)
  3220 00000A3E 00<rept>               times TRAPINFO_size-($-..@848.strucstart) db 0
  3221                                 [section .text]
  3222                                 ..@844.resume:
  3223                                 %line 1641+1 /home/se170/VirtualBox-4.3.28/src/VBox/VMM/testcase/tstX86-1A.asm
  3224                                 ..@856.trap:
  3225                                 %line 1641+0 /home/se170/VirtualBox-4.3.28/src/VBox/VMM/testcase/tstX86-1A.asm
  3226 0000105A 0FAE4706                fxsave [rdi + 6]
  3227                                 ..@856.trap_end:
  3228 0000105E B869060000              mov eax, 1641
  3229 00001063 E951020000              jmp .return
  3230                                 [section .data]
  3231                                 ..@856.trapinfo: 
  3232                                 ..@860.strucstart:
  3233 00000A4C [0000000000000000]     dq ..@856.trap
  3234 00000A54 [0000000000000000]     dq ..@856.resume
  3235 00000A5C 0D                     db 0x0d
  3236 00000A5D 04                     db (..@856.trap_end - ..@856.trap)
  3237 00000A5E 00<rept>               times TRAPINFO_size-($-..@860.strucstart) db 0
  3238                                 [section .text]
  3239                                 ..@856.resume:
  3240                                 %line 1642+1 /home/se170/VirtualBox-4.3.28/src/VBox/VMM/testcase/tstX86-1A.asm
  3241                                 ..@868.trap:
  3242                                 %line 1642+0 /home/se170/VirtualBox-4.3.28/src/VBox/VMM/testcase/tstX86-1A.asm
  3243 00001068 0FAE4707                fxsave [rdi + 7]
  3244                                 ..@868.trap_end:
  3245 0000106C B86A060000              mov eax, 1642
  3246 00001071 E943020000              jmp .return
  3247                                 [section .data]
  3248                                 ..@868.trapinfo: 
  3249                                 ..@872.strucstart:
  3250 00000A6C [0000000000000000]     dq ..@868.trap
  3251 00000A74 [0000000000000000]     dq ..@868.resume
  3252 00000A7C 0D                     db 0x0d
  3253 00000A7D 04                     db (..@868.trap_end - ..@868.trap)
  3254 00000A7E 00<rept>               times TRAPINFO_size-($-..@872.strucstart) db 0
  3255                                 [section .text]
  3256                                 ..@868.resume:
  3257                                 %line 1643+1 /home/se170/VirtualBox-4.3.28/src/VBox/VMM/testcase/tstX86-1A.asm
  3258                                 ..@880.trap:
  3259                                 %line 1643+0 /home/se170/VirtualBox-4.3.28/src/VBox/VMM/testcase/tstX86-1A.asm
  3260 00001076 0FAE4708                fxsave [rdi + 8]
  3261                                 ..@880.trap_end:
  3262 0000107A B86B060000              mov eax, 1643
  3263 0000107F E935020000              jmp .return
  3264                                 [section .data]
  3265                                 ..@880.trapinfo: 
  3266                                 ..@884.strucstart:
  3267 00000A8C [0000000000000000]     dq ..@880.trap
  3268 00000A94 [0000000000000000]     dq ..@880.resume
  3269 00000A9C 0D                     db 0x0d
  3270 00000A9D 04                     db (..@880.trap_end - ..@880.trap)
  3271 00000A9E 00<rept>               times TRAPINFO_size-($-..@884.strucstart) db 0
  3272                                 [section .text]
  3273                                 ..@880.resume:
  3274                                 %line 1644+1 /home/se170/VirtualBox-4.3.28/src/VBox/VMM/testcase/tstX86-1A.asm
  3275                                 ..@892.trap:
  3276                                 %line 1644+0 /home/se170/VirtualBox-4.3.28/src/VBox/VMM/testcase/tstX86-1A.asm
  3277 00001084 0FAE4709                fxsave [rdi + 9]
  3278                                 ..@892.trap_end:
  3279 00001088 B86C060000              mov eax, 1644
  3280 0000108D E927020000              jmp .return
  3281                                 [section .data]
  3282                                 ..@892.trapinfo: 
  3283                                 ..@896.strucstart:
  3284 00000AAC [0000000000000000]     dq ..@892.trap
  3285 00000AB4 [0000000000000000]     dq ..@892.resume
  3286 00000ABC 0D                     db 0x0d
  3287 00000ABD 04                     db (..@892.trap_end - ..@892.trap)
  3288 00000ABE 00<rept>               times TRAPINFO_size-($-..@896.strucstart) db 0
  3289                                 [section .text]
  3290                                 ..@892.resume:
  3291                                 %line 1645+1 /home/se170/VirtualBox-4.3.28/src/VBox/VMM/testcase/tstX86-1A.asm
  3292                                 ..@904.trap:
  3293                                 %line 1645+0 /home/se170/VirtualBox-4.3.28/src/VBox/VMM/testcase/tstX86-1A.asm
  3294 00001092 0FAE470A                fxsave [rdi + 10]
  3295                                 ..@904.trap_end:
  3296 00001096 B86D060000              mov eax, 1645
  3297 0000109B E919020000              jmp .return
  3298                                 [section .data]
  3299                                 ..@904.trapinfo: 
  3300                                 ..@908.strucstart:
  3301 00000ACC [0000000000000000]     dq ..@904.trap
  3302 00000AD4 [0000000000000000]     dq ..@904.resume
  3303 00000ADC 0D                     db 0x0d
  3304 00000ADD 04                     db (..@904.trap_end - ..@904.trap)
  3305 00000ADE 00<rept>               times TRAPINFO_size-($-..@908.strucstart) db 0
  3306                                 [section .text]
  3307                                 ..@904.resume:
  3308                                 %line 1646+1 /home/se170/VirtualBox-4.3.28/src/VBox/VMM/testcase/tstX86-1A.asm
  3309                                 ..@916.trap:
  3310                                 %line 1646+0 /home/se170/VirtualBox-4.3.28/src/VBox/VMM/testcase/tstX86-1A.asm
  3311 000010A0 0FAE470B                fxsave [rdi + 11]
  3312                                 ..@916.trap_end:
  3313 000010A4 B86E060000              mov eax, 1646
  3314 000010A9 E90B020000              jmp .return
  3315                                 [section .data]
  3316                                 ..@916.trapinfo: 
  3317                                 ..@920.strucstart:
  3318 00000AEC [0000000000000000]     dq ..@916.trap
  3319 00000AF4 [0000000000000000]     dq ..@916.resume
  3320 00000AFC 0D                     db 0x0d
  3321 00000AFD 04                     db (..@916.trap_end - ..@916.trap)
  3322 00000AFE 00<rept>               times TRAPINFO_size-($-..@920.strucstart) db 0
  3323                                 [section .text]
  3324                                 ..@916.resume:
  3325                                 %line 1647+1 /home/se170/VirtualBox-4.3.28/src/VBox/VMM/testcase/tstX86-1A.asm
  3326                                 ..@928.trap:
  3327                                 %line 1647+0 /home/se170/VirtualBox-4.3.28/src/VBox/VMM/testcase/tstX86-1A.asm
  3328 000010AE 0FAE470C                fxsave [rdi + 12]
  3329                                 ..@928.trap_end:
  3330 000010B2 B86F060000              mov eax, 1647
  3331 000010B7 E9FD010000              jmp .return
  3332                                 [section .data]
  3333                                 ..@928.trapinfo: 
  3334                                 ..@932.strucstart:
  3335 00000B0C [0000000000000000]     dq ..@928.trap
  3336 00000B14 [0000000000000000]     dq ..@928.resume
  3337 00000B1C 0D                     db 0x0d
  3338 00000B1D 04                     db (..@928.trap_end - ..@928.trap)
  3339 00000B1E 00<rept>               times TRAPINFO_size-($-..@932.strucstart) db 0
  3340                                 [section .text]
  3341                                 ..@928.resume:
  3342                                 %line 1648+1 /home/se170/VirtualBox-4.3.28/src/VBox/VMM/testcase/tstX86-1A.asm
  3343                                 ..@940.trap:
  3344                                 %line 1648+0 /home/se170/VirtualBox-4.3.28/src/VBox/VMM/testcase/tstX86-1A.asm
  3345 000010BC 0FAE470D                fxsave [rdi + 13]
  3346                                 ..@940.trap_end:
  3347 000010C0 B870060000              mov eax, 1648
  3348 000010C5 E9EF010000              jmp .return
  3349                                 [section .data]
  3350                                 ..@940.trapinfo: 
  3351                                 ..@944.strucstart:
  3352 00000B2C [0000000000000000]     dq ..@940.trap
  3353 00000B34 [0000000000000000]     dq ..@940.resume
  3354 00000B3C 0D                     db 0x0d
  3355 00000B3D 04                     db (..@940.trap_end - ..@940.trap)
  3356 00000B3E 00<rept>               times TRAPINFO_size-($-..@944.strucstart) db 0
  3357                                 [section .text]
  3358                                 ..@940.resume:
  3359                                 %line 1649+1 /home/se170/VirtualBox-4.3.28/src/VBox/VMM/testcase/tstX86-1A.asm
  3360                                 ..@952.trap:
  3361                                 %line 1649+0 /home/se170/VirtualBox-4.3.28/src/VBox/VMM/testcase/tstX86-1A.asm
  3362 000010CA 0FAE470E                fxsave [rdi + 14]
  3363                                 ..@952.trap_end:
  3364 000010CE B871060000              mov eax, 1649
  3365 000010D3 E9E1010000              jmp .return
  3366                                 [section .data]
  3367                                 ..@952.trapinfo: 
  3368                                 ..@956.strucstart:
  3369 00000B4C [0000000000000000]     dq ..@952.trap
  3370 00000B54 [0000000000000000]     dq ..@952.resume
  3371 00000B5C 0D                     db 0x0d
  3372 00000B5D 04                     db (..@952.trap_end - ..@952.trap)
  3373 00000B5E 00<rept>               times TRAPINFO_size-($-..@956.strucstart) db 0
  3374                                 [section .text]
  3375                                 ..@952.resume:
  3376                                 %line 1650+1 /home/se170/VirtualBox-4.3.28/src/VBox/VMM/testcase/tstX86-1A.asm
  3377                                 ..@964.trap:
  3378                                 %line 1650+0 /home/se170/VirtualBox-4.3.28/src/VBox/VMM/testcase/tstX86-1A.asm
  3379 000010D8 0FAE470F                fxsave [rdi + 15]
  3380                                 ..@964.trap_end:
  3381 000010DC B872060000              mov eax, 1650
  3382 000010E1 E9D3010000              jmp .return
  3383                                 [section .data]
  3384                                 ..@964.trapinfo: 
  3385                                 ..@968.strucstart:
  3386 00000B6C [0000000000000000]     dq ..@964.trap
  3387 00000B74 [0000000000000000]     dq ..@964.resume
  3388 00000B7C 0D                     db 0x0d
  3389 00000B7D 04                     db (..@964.trap_end - ..@964.trap)
  3390 00000B7E 00<rept>               times TRAPINFO_size-($-..@968.strucstart) db 0
  3391                                 [section .text]
  3392                                 ..@964.resume:
  3393                                 %line 1651+1 /home/se170/VirtualBox-4.3.28/src/VBox/VMM/testcase/tstX86-1A.asm
  3394                                 
  3395                                 ..@976.trap:
  3396                                 %line 1652+0 /home/se170/VirtualBox-4.3.28/src/VBox/VMM/testcase/tstX86-1A.asm
  3397 000010E6 0FAE4F01                fxrstor [rdi + 1]
  3398                                 ..@976.trap_end:
  3399 000010EA B874060000              mov eax, 1652
  3400 000010EF E9C5010000              jmp .return
  3401                                 [section .data]
  3402                                 ..@976.trapinfo: 
  3403                                 ..@980.strucstart:
  3404 00000B8C [0000000000000000]     dq ..@976.trap
  3405 00000B94 [0000000000000000]     dq ..@976.resume
  3406 00000B9C 0D                     db 0x0d
  3407 00000B9D 04                     db (..@976.trap_end - ..@976.trap)
  3408 00000B9E 00<rept>               times TRAPINFO_size-($-..@980.strucstart) db 0
  3409                                 [section .text]
  3410                                 ..@976.resume:
  3411                                 %line 1653+1 /home/se170/VirtualBox-4.3.28/src/VBox/VMM/testcase/tstX86-1A.asm
  3412                                 ..@988.trap:
  3413                                 %line 1653+0 /home/se170/VirtualBox-4.3.28/src/VBox/VMM/testcase/tstX86-1A.asm
  3414 000010F4 0FAE4F02                fxrstor [rdi + 2]
  3415                                 ..@988.trap_end:
  3416 000010F8 B875060000              mov eax, 1653
  3417 000010FD E9B7010000              jmp .return
  3418                                 [section .data]
  3419                                 ..@988.trapinfo: 
  3420                                 ..@992.strucstart:
  3421 00000BAC [0000000000000000]     dq ..@988.trap
  3422 00000BB4 [0000000000000000]     dq ..@988.resume
  3423 00000BBC 0D                     db 0x0d
  3424 00000BBD 04                     db (..@988.trap_end - ..@988.trap)
  3425 00000BBE 00<rept>               times TRAPINFO_size-($-..@992.strucstart) db 0
  3426                                 [section .text]
  3427                                 ..@988.resume:
  3428                                 %line 1654+1 /home/se170/VirtualBox-4.3.28/src/VBox/VMM/testcase/tstX86-1A.asm
  3429                                 ..@1000.trap:
  3430                                 %line 1654+0 /home/se170/VirtualBox-4.3.28/src/VBox/VMM/testcase/tstX86-1A.asm
  3431 00001102 0FAE4F03                fxrstor [rdi + 3]
  3432                                 ..@1000.trap_end:
  3433 00001106 B876060000              mov eax, 1654
  3434 0000110B E9A9010000              jmp .return
  3435                                 [section .data]
  3436                                 ..@1000.trapinfo: 
  3437                                 ..@1004.strucstart:
  3438 00000BCC [0000000000000000]     dq ..@1000.trap
  3439 00000BD4 [0000000000000000]     dq ..@1000.resume
  3440 00000BDC 0D                     db 0x0d
  3441 00000BDD 04                     db (..@1000.trap_end - ..@1000.trap)
  3442 00000BDE 00<rept>               times TRAPINFO_size-($-..@1004.strucstart) db 0
  3443                                 [section .text]
  3444                                 ..@1000.resume:
  3445                                 %line 1655+1 /home/se170/VirtualBox-4.3.28/src/VBox/VMM/testcase/tstX86-1A.asm
  3446                                 ..@1012.trap:
  3447                                 %line 1655+0 /home/se170/VirtualBox-4.3.28/src/VBox/VMM/testcase/tstX86-1A.asm
  3448 00001110 0FAE4F04                fxrstor [rdi + 4]
  3449                                 ..@1012.trap_end:
  3450 00001114 B877060000              mov eax, 1655
  3451 00001119 E99B010000              jmp .return
  3452                                 [section .data]
  3453                                 ..@1012.trapinfo: 
  3454                                 ..@1016.strucstart:
  3455 00000BEC [0000000000000000]     dq ..@1012.trap
  3456 00000BF4 [0000000000000000]     dq ..@1012.resume
  3457 00000BFC 0D                     db 0x0d
  3458 00000BFD 04                     db (..@1012.trap_end - ..@1012.trap)
  3459 00000BFE 00<rept>               times TRAPINFO_size-($-..@1016.strucstart) db 0
  3460                                 [section .text]
  3461                                 ..@1012.resume:
  3462                                 %line 1656+1 /home/se170/VirtualBox-4.3.28/src/VBox/VMM/testcase/tstX86-1A.asm
  3463                                 ..@1024.trap:
  3464                                 %line 1656+0 /home/se170/VirtualBox-4.3.28/src/VBox/VMM/testcase/tstX86-1A.asm
  3465 0000111E 0FAE4F05                fxrstor [rdi + 5]
  3466                                 ..@1024.trap_end:
  3467 00001122 B878060000              mov eax, 1656
  3468 00001127 E98D010000              jmp .return
  3469                                 [section .data]
  3470                                 ..@1024.trapinfo: 
  3471                                 ..@1028.strucstart:
  3472 00000C0C [0000000000000000]     dq ..@1024.trap
  3473 00000C14 [0000000000000000]     dq ..@1024.resume
  3474 00000C1C 0D                     db 0x0d
  3475 00000C1D 04                     db (..@1024.trap_end - ..@1024.trap)
  3476 00000C1E 00<rept>               times TRAPINFO_size-($-..@1028.strucstart) db 0
  3477                                 [section .text]
  3478                                 ..@1024.resume:
  3479                                 %line 1657+1 /home/se170/VirtualBox-4.3.28/src/VBox/VMM/testcase/tstX86-1A.asm
  3480                                 ..@1036.trap:
  3481                                 %line 1657+0 /home/se170/VirtualBox-4.3.28/src/VBox/VMM/testcase/tstX86-1A.asm
  3482 0000112C 0FAE4F06                fxrstor [rdi + 6]
  3483                                 ..@1036.trap_end:
  3484 00001130 B879060000              mov eax, 1657
  3485 00001135 E97F010000              jmp .return
  3486                                 [section .data]
  3487                                 ..@1036.trapinfo: 
  3488                                 ..@1040.strucstart:
  3489 00000C2C [0000000000000000]     dq ..@1036.trap
  3490 00000C34 [0000000000000000]     dq ..@1036.resume
  3491 00000C3C 0D                     db 0x0d
  3492 00000C3D 04                     db (..@1036.trap_end - ..@1036.trap)
  3493 00000C3E 00<rept>               times TRAPINFO_size-($-..@1040.strucstart) db 0
  3494                                 [section .text]
  3495                                 ..@1036.resume:
  3496                                 %line 1658+1 /home/se170/VirtualBox-4.3.28/src/VBox/VMM/testcase/tstX86-1A.asm
  3497                                 ..@1048.trap:
  3498                                 %line 1658+0 /home/se170/VirtualBox-4.3.28/src/VBox/VMM/testcase/tstX86-1A.asm
  3499 0000113A 0FAE4F07                fxrstor [rdi + 7]
  3500                                 ..@1048.trap_end:
  3501 0000113E B87A060000              mov eax, 1658
  3502 00001143 E971010000              jmp .return
  3503                                 [section .data]
  3504                                 ..@1048.trapinfo: 
  3505                                 ..@1052.strucstart:
  3506 00000C4C [0000000000000000]     dq ..@1048.trap
  3507 00000C54 [0000000000000000]     dq ..@1048.resume
  3508 00000C5C 0D                     db 0x0d
  3509 00000C5D 04                     db (..@1048.trap_end - ..@1048.trap)
  3510 00000C5E 00<rept>               times TRAPINFO_size-($-..@1052.strucstart) db 0
  3511                                 [section .text]
  3512                                 ..@1048.resume:
  3513                                 %line 1659+1 /home/se170/VirtualBox-4.3.28/src/VBox/VMM/testcase/tstX86-1A.asm
  3514                                 ..@1060.trap:
  3515                                 %line 1659+0 /home/se170/VirtualBox-4.3.28/src/VBox/VMM/testcase/tstX86-1A.asm
  3516 00001148 0FAE4F08                fxrstor [rdi + 8]
  3517                                 ..@1060.trap_end:
  3518 0000114C B87B060000              mov eax, 1659
  3519 00001151 E963010000              jmp .return
  3520                                 [section .data]
  3521                                 ..@1060.trapinfo: 
  3522                                 ..@1064.strucstart:
  3523 00000C6C [0000000000000000]     dq ..@1060.trap
  3524 00000C74 [0000000000000000]     dq ..@1060.resume
  3525 00000C7C 0D                     db 0x0d
  3526 00000C7D 04                     db (..@1060.trap_end - ..@1060.trap)
  3527 00000C7E 00<rept>               times TRAPINFO_size-($-..@1064.strucstart) db 0
  3528                                 [section .text]
  3529                                 ..@1060.resume:
  3530                                 %line 1660+1 /home/se170/VirtualBox-4.3.28/src/VBox/VMM/testcase/tstX86-1A.asm
  3531                                 ..@1072.trap:
  3532                                 %line 1660+0 /home/se170/VirtualBox-4.3.28/src/VBox/VMM/testcase/tstX86-1A.asm
  3533 00001156 0FAE4F09                fxrstor [rdi + 9]
  3534                                 ..@1072.trap_end:
  3535 0000115A B87C060000              mov eax, 1660
  3536 0000115F E955010000              jmp .return
  3537                                 [section .data]
  3538                                 ..@1072.trapinfo: 
  3539                                 ..@1076.strucstart:
  3540 00000C8C [0000000000000000]     dq ..@1072.trap
  3541 00000C94 [0000000000000000]     dq ..@1072.resume
  3542 00000C9C 0D                     db 0x0d
  3543 00000C9D 04                     db (..@1072.trap_end - ..@1072.trap)
  3544 00000C9E 00<rept>               times TRAPINFO_size-($-..@1076.strucstart) db 0
  3545                                 [section .text]
  3546                                 ..@1072.resume:
  3547                                 %line 1661+1 /home/se170/VirtualBox-4.3.28/src/VBox/VMM/testcase/tstX86-1A.asm
  3548                                 ..@1084.trap:
  3549                                 %line 1661+0 /home/se170/VirtualBox-4.3.28/src/VBox/VMM/testcase/tstX86-1A.asm
  3550 00001164 0FAE4F0A                fxrstor [rdi + 10]
  3551                                 ..@1084.trap_end:
  3552 00001168 B87D060000              mov eax, 1661
  3553 0000116D E947010000              jmp .return
  3554                                 [section .data]
  3555                                 ..@1084.trapinfo: 
  3556                                 ..@1088.strucstart:
  3557 00000CAC [0000000000000000]     dq ..@1084.trap
  3558 00000CB4 [0000000000000000]     dq ..@1084.resume
  3559 00000CBC 0D                     db 0x0d
  3560 00000CBD 04                     db (..@1084.trap_end - ..@1084.trap)
  3561 00000CBE 00<rept>               times TRAPINFO_size-($-..@1088.strucstart) db 0
  3562                                 [section .text]
  3563                                 ..@1084.resume:
  3564                                 %line 1662+1 /home/se170/VirtualBox-4.3.28/src/VBox/VMM/testcase/tstX86-1A.asm
  3565                                 ..@1096.trap:
  3566                                 %line 1662+0 /home/se170/VirtualBox-4.3.28/src/VBox/VMM/testcase/tstX86-1A.asm
  3567 00001172 0FAE4F0B                fxrstor [rdi + 11]
  3568                                 ..@1096.trap_end:
  3569 00001176 B87E060000              mov eax, 1662
  3570 0000117B E939010000              jmp .return
  3571                                 [section .data]
  3572                                 ..@1096.trapinfo: 
  3573                                 ..@1100.strucstart:
  3574 00000CCC [0000000000000000]     dq ..@1096.trap
  3575 00000CD4 [0000000000000000]     dq ..@1096.resume
  3576 00000CDC 0D                     db 0x0d
  3577 00000CDD 04                     db (..@1096.trap_end - ..@1096.trap)
  3578 00000CDE 00<rept>               times TRAPINFO_size-($-..@1100.strucstart) db 0
  3579                                 [section .text]
  3580                                 ..@1096.resume:
  3581                                 %line 1663+1 /home/se170/VirtualBox-4.3.28/src/VBox/VMM/testcase/tstX86-1A.asm
  3582                                 ..@1108.trap:
  3583                                 %line 1663+0 /home/se170/VirtualBox-4.3.28/src/VBox/VMM/testcase/tstX86-1A.asm
  3584 00001180 0FAE4F0C                fxrstor [rdi + 12]
  3585                                 ..@1108.trap_end:
  3586 00001184 B87F060000              mov eax, 1663
  3587 00001189 E92B010000              jmp .return
  3588                                 [section .data]
  3589                                 ..@1108.trapinfo: 
  3590                                 ..@1112.strucstart:
  3591 00000CEC [0000000000000000]     dq ..@1108.trap
  3592 00000CF4 [0000000000000000]     dq ..@1108.resume
  3593 00000CFC 0D                     db 0x0d
  3594 00000CFD 04                     db (..@1108.trap_end - ..@1108.trap)
  3595 00000CFE 00<rept>               times TRAPINFO_size-($-..@1112.strucstart) db 0
  3596                                 [section .text]
  3597                                 ..@1108.resume:
  3598                                 %line 1664+1 /home/se170/VirtualBox-4.3.28/src/VBox/VMM/testcase/tstX86-1A.asm
  3599                                 ..@1120.trap:
  3600                                 %line 1664+0 /home/se170/VirtualBox-4.3.28/src/VBox/VMM/testcase/tstX86-1A.asm
  3601 0000118E 0FAE4F0D                fxrstor [rdi + 13]
  3602                                 ..@1120.trap_end:
  3603 00001192 B880060000              mov eax, 1664
  3604 00001197 E91D010000              jmp .return
  3605                                 [section .data]
  3606                                 ..@1120.trapinfo: 
  3607                                 ..@1124.strucstart:
  3608 00000D0C [0000000000000000]     dq ..@1120.trap
  3609 00000D14 [0000000000000000]     dq ..@1120.resume
  3610 00000D1C 0D                     db 0x0d
  3611 00000D1D 04                     db (..@1120.trap_end - ..@1120.trap)
  3612 00000D1E 00<rept>               times TRAPINFO_size-($-..@1124.strucstart) db 0
  3613                                 [section .text]
  3614                                 ..@1120.resume:
  3615                                 %line 1665+1 /home/se170/VirtualBox-4.3.28/src/VBox/VMM/testcase/tstX86-1A.asm
  3616                                 ..@1132.trap:
  3617                                 %line 1665+0 /home/se170/VirtualBox-4.3.28/src/VBox/VMM/testcase/tstX86-1A.asm
  3618 0000119C 0FAE4F0E                fxrstor [rdi + 14]
  3619                                 ..@1132.trap_end:
  3620 000011A0 B881060000              mov eax, 1665
  3621 000011A5 E90F010000              jmp .return
  3622                                 [section .data]
  3623                                 ..@1132.trapinfo: 
  3624                                 ..@1136.strucstart:
  3625 00000D2C [0000000000000000]     dq ..@1132.trap
  3626 00000D34 [0000000000000000]     dq ..@1132.resume
  3627 00000D3C 0D                     db 0x0d
  3628 00000D3D 04                     db (..@1132.trap_end - ..@1132.trap)
  3629 00000D3E 00<rept>               times TRAPINFO_size-($-..@1136.strucstart) db 0
  3630                                 [section .text]
  3631                                 ..@1132.resume:
  3632                                 %line 1666+1 /home/se170/VirtualBox-4.3.28/src/VBox/VMM/testcase/tstX86-1A.asm
  3633                                 ..@1144.trap:
  3634                                 %line 1666+0 /home/se170/VirtualBox-4.3.28/src/VBox/VMM/testcase/tstX86-1A.asm
  3635 000011AA 0FAE4F0F                fxrstor [rdi + 15]
  3636                                 ..@1144.trap_end:
  3637 000011AE B882060000              mov eax, 1666
  3638 000011B3 E901010000              jmp .return
  3639                                 [section .data]
  3640                                 ..@1144.trapinfo: 
  3641                                 ..@1148.strucstart:
  3642 00000D4C [0000000000000000]     dq ..@1144.trap
  3643 00000D54 [0000000000000000]     dq ..@1144.resume
  3644 00000D5C 0D                     db 0x0d
  3645 00000D5D 04                     db (..@1144.trap_end - ..@1144.trap)
  3646 00000D5E 00<rept>               times TRAPINFO_size-($-..@1148.strucstart) db 0
  3647                                 [section .text]
  3648                                 ..@1144.resume:
  3649                                 %line 1667+1 /home/se170/VirtualBox-4.3.28/src/VBox/VMM/testcase/tstX86-1A.asm
  3650                                 
  3651                                 
  3652 000011B8 BB10000000              mov ebx, 16
  3653                                 .fxsave_pf_effect_loop:
  3654 000011BD 488B3D(F2FFFFFF)        mov rdi, [g_pbEfExecPage wrt rip]
  3655 000011C4 4881C7000C0000          add rdi, 0x1000 - 512 * 2
  3656 000011CB 4889FE                  mov rsi, rdi
  3657 000011CE B899887766              mov eax, 066778899
  3658 000011D3 B900010000              mov ecx, 512 * 2 / 4
  3659 000011D8 FC                      cld
  3660 000011D9 F3AB                    rep stosd
  3661                                 
  3662                                 ..@1156.trap:
  3663                                 %line 1679+0 /home/se170/VirtualBox-4.3.28/src/VBox/VMM/testcase/tstX86-1A.asm
  3664 000011DB 0FAE841E000E0000        fxsave [rsi + 0x1000 - 512 + rbx]
  3665                                 ..@1156.trap_end:
  3666 000011E3 B88F060000              mov eax, 1679
  3667 000011E8 E9CC000000              jmp .return
  3668                                 [section .data]
  3669                                 ..@1156.trapinfo: 
  3670                                 ..@1160.strucstart:
  3671 00000D6C [0000000000000000]     dq ..@1156.trap
  3672 00000D74 [0000000000000000]     dq ..@1156.resume
  3673 00000D7C 0E                     db 0x0e
  3674 00000D7D 08                     db (..@1156.trap_end - ..@1156.trap)
  3675 00000D7E 00<rept>               times TRAPINFO_size-($-..@1160.strucstart) db 0
  3676                                 [section .text]
  3677                                 ..@1156.resume:
  3678                                 %line 1680+1 /home/se170/VirtualBox-4.3.28/src/VBox/VMM/testcase/tstX86-1A.asm
  3679                                 
  3680 000011ED B980000000              mov ecx, 512 / 4
  3681 000011F2 488DBE00020000          lea rdi, [rsi + 512]
  3682 000011F9 FC                      cld
  3683 000011FA F3A7                    repz cmpsd
  3684 000011FC 488D83204E0000          lea rax, [rbx + 20000]
  3685 00001203 0F85AF000000            jnz .return
  3686                                 
  3687 00001209 83C310                  add ebx, 16
  3688 0000120C 81FB00020000            cmp ebx, 512
  3689 00001212 76A7                    jbe .fxsave_pf_effect_loop
  3690                                 
  3691                                 
  3692 00001214 488B3D(F2FFFFFF)        mov rdi, [g_pbEfExecPage wrt rip]
  3693 0000121B B900040000              mov ecx, 0x1000 / 4
  3694 00001220 B8CC33AAFF              mov eax, 0ffaa33cc
  3695 00001225 FC                      cld
  3696 00001226 F3AB                    rep stosd
  3697                                 
  3698 00001228 E854F1FFFF              call x861_LoadUniqueRegValuesSSEAndGRegs
  3699 0000122D 488B3D(F2FFFFFF)        mov rdi, [g_pbEfExecPage wrt rip]
  3700 00001234 0FAE07                  fxsave [rdi]
  3701                                 
  3702 00001237 E850F1FFFF              call x861_ClearRegistersSSEAndGRegs
  3703 0000123C 488B3D(F2FFFFFF)        mov rdi, [g_pbEfExecPage wrt rip]
  3704 00001243 0FAE8700020000          fxsave [rdi + 512]
  3705                                 
  3706 0000124A BB10000000              mov ebx, 16
  3707                                 .fxrstor_pf_effect_loop:
  3708 0000124F 488B3D(F2FFFFFF)        mov rdi, [g_pbEfExecPage wrt rip]
  3709 00001256 4889FE                  mov rsi, rdi
  3710 00001259 488DBC1F000E0000        lea rdi, [rdi + 0x1000 - 512 + rbx]
  3711 00001261 B900020000              mov ecx, 512
  3712 00001266 29D9                    sub ecx, ebx
  3713 00001268 FC                      cld
  3714 00001269 F3A4                    rep movsb
  3715                                 
  3716 0000126B 53                      push rbx
  3717 0000126C E81BF1FFFF              call x861_ClearRegistersSSEAndGRegs
  3718 00001271 5B                      pop rbx
  3719 00001272 488B3D(F2FFFFFF)        mov rdi, [g_pbEfExecPage wrt rip]
  3720                                 ..@1168.trap:
  3721                                 %line 1721+0 /home/se170/VirtualBox-4.3.28/src/VBox/VMM/testcase/tstX86-1A.asm
  3722 00001279 0FAE8C1F000E0000        fxrstor [rdi + 0x1000 - 512 + rbx]
  3723                                 ..@1168.trap_end:
  3724 00001281 B8B9060000              mov eax, 1721
  3725 00001286 EB34                    jmp .return
  3726                                 [section .data]
  3727                                 ..@1168.trapinfo: 
  3728                                 ..@1172.strucstart:
  3729 00000D8C [0000000000000000]     dq ..@1168.trap
  3730 00000D94 [0000000000000000]     dq ..@1168.resume
  3731 00000D9C 0E                     db 0x0e
  3732 00000D9D 08                     db (..@1168.trap_end - ..@1168.trap)
  3733 00000D9E 00<rept>               times TRAPINFO_size-($-..@1172.strucstart) db 0
  3734                                 [section .text]
  3735                                 ..@1168.resume:
  3736                                 %line 1722+1 /home/se170/VirtualBox-4.3.28/src/VBox/VMM/testcase/tstX86-1A.asm
  3737                                 
  3738 00001288 488B3D(F2FFFFFF)        mov rdi, [g_pbEfExecPage wrt rip]
  3739 0000128F 488DB700020000          lea rsi, [rdi + 512]
  3740 00001296 488DBF00040000          lea rdi, [rdi + 1024]
  3741 0000129D 0FAE07                  fxsave [rdi]
  3742 000012A0 B980000000              mov ecx, 512 / 4
  3743 000012A5 FC                      cld
  3744 000012A6 F3A7                    repe cmpsd
  3745 000012A8 488D83409C0000          lea rax, [rbx + 40000]
  3746 000012AF 750B                    jnz .return
  3747                                 
  3748 000012B1 83C310                  add ebx, 16
  3749 000012B4 81FB00020000            cmp ebx, 512
  3750 000012BA 7691                    jbe .fxrstor_pf_effect_loop
  3751                                 
  3752                                 .success:
  3753 000012BC 31C0                    xor eax, eax
  3754                                 .return:
  3755 000012BE 488D6590                lea rsp, [rbp - 14 * 8]
  3756                                 %line 1740+0 /home/se170/VirtualBox-4.3.28/src/VBox/VMM/testcase/tstX86-1A.asm
  3757 000012C2 415F                    pop r15
  3758 000012C4 415E                    pop r14
  3759 000012C6 415D                    pop r13
  3760 000012C8 415C                    pop r12
  3761 000012CA 415B                    pop r11
  3762 000012CC 415A                    pop r10
  3763 000012CE 4159                    pop r9
  3764 000012D0 4158                    pop r8
  3765 000012D2 5F                      pop rdi
  3766 000012D3 5E                      pop rsi
  3767 000012D4 5A                      pop rdx
  3768 000012D5 59                      pop rcx
  3769 000012D6 5B                      pop rbx
  3770 000012D7 9D                      popf
  3771 000012D8 C9                      leave
  3772                                 %line 1741+1 /home/se170/VirtualBox-4.3.28/src/VBox/VMM/testcase/tstX86-1A.asm
  3773 000012D9 C3                      ret
  3774                                 [global x861_Test3_EndProc:function hidden]
  3775                                 %line 1742+0 /home/se170/VirtualBox-4.3.28/src/VBox/VMM/testcase/tstX86-1A.asm
  3776                                 x861_Test3_EndProc:
  3777                                 [size x861_Test3 x861_Test3_EndProc - x861_Test3]
  3778                                 [size x861_Test3_EndProc 0]
  3779 000012DA CCCCCCCC                db 0xCC, 0xCC, 0xCC, 0xCC
  3780                                 %line 1743+1 /home/se170/VirtualBox-4.3.28/src/VBox/VMM/testcase/tstX86-1A.asm
  3781                                 
  3782                                 
  3783                                 
  3784                                 
  3785                                 
  3786                                 [global x861_Test4:function hidden]
  3787                                 %line 1748+0 /home/se170/VirtualBox-4.3.28/src/VBox/VMM/testcase/tstX86-1A.asm
  3788                                 x861_Test4:
  3789                                 %line 1749+1 /home/se170/VirtualBox-4.3.28/src/VBox/VMM/testcase/tstX86-1A.asm
  3790 000012DE 55                      push rbp
  3791                                 %line 1749+0 /home/se170/VirtualBox-4.3.28/src/VBox/VMM/testcase/tstX86-1A.asm
  3792 000012DF 4889E5                  mov rbp, rsp
  3793 000012E2 9C                      pushf
  3794 000012E3 53                      push rbx
  3795 000012E4 51                      push rcx
  3796 000012E5 52                      push rdx
  3797 000012E6 56                      push rsi
  3798 000012E7 57                      push rdi
  3799 000012E8 4150                    push r8
  3800 000012EA 4151                    push r9
  3801 000012EC 4152                    push r10
  3802 000012EE 4153                    push r11
  3803 000012F0 4154                    push r12
  3804 000012F2 4155                    push r13
  3805 000012F4 4156                    push r14
  3806 000012F6 4157                    push r15
  3807 000012F8 4883E4F0                and rsp, ~0f
  3808                                 %line 1750+1 /home/se170/VirtualBox-4.3.28/src/VBox/VMM/testcase/tstX86-1A.asm
  3809 000012FC E884EDFFFF              call x861_ClearRegisters
  3810                                 
  3811                                 
  3812 00001301 90                      nop
  3813 00001302 6690                    db 066
  3814 00001304 0F1F00                  db 00f
  3815 00001307 0F1F4000                db 00f
  3816 0000130B 0F1F440000              db 00f
  3817 00001310 660F1F440000            db 066
  3818 00001316 0F1F8000000000          db 00f
  3819 0000131D 0F1F840000000000        db 00f
  3820 00001325 660F1F840000000000      db 066
  3821                                 
  3822                                 
  3823                                 ..@1190.trap:
  3824                                 %line 1764+0 /home/se170/VirtualBox-4.3.28/src/VBox/VMM/testcase/tstX86-1A.asm
  3825 0000132E F090                    db 0f0
  3826                                 ..@1190.trap_end:
  3827 00001330 B8E4060000              mov eax, 1764
  3828 00001335 E9CF010000              jmp .return
  3829                                 [section .data]
  3830                                 ..@1190.trapinfo: 
  3831                                 ..@1194.strucstart:
  3832 00000DAC [0000000000000000]     dq ..@1190.trap
  3833 00000DB4 [0000000000000000]     dq ..@1190.resume
  3834 00000DBC 06                     db 0x06
  3835 00000DBD 02                     db (..@1190.trap_end - ..@1190.trap)
  3836 00000DBE 00<rept>               times TRAPINFO_size-($-..@1194.strucstart) db 0
  3837                                 [section .text]
  3838                                 ..@1190.resume:
  3839                                 %line 1765+1 /home/se170/VirtualBox-4.3.28/src/VBox/VMM/testcase/tstX86-1A.asm
  3840                                 ..@1202.trap:
  3841                                 %line 1765+0 /home/se170/VirtualBox-4.3.28/src/VBox/VMM/testcase/tstX86-1A.asm
  3842 0000133A F06690                  db 0f0
  3843                                 ..@1202.trap_end:
  3844 0000133D B8E5060000              mov eax, 1765
  3845 00001342 E9C2010000              jmp .return
  3846                                 [section .data]
  3847                                 ..@1202.trapinfo: 
  3848                                 ..@1206.strucstart:
  3849 00000DCC [0000000000000000]     dq ..@1202.trap
  3850 00000DD4 [0000000000000000]     dq ..@1202.resume
  3851 00000DDC 06                     db 0x06
  3852 00000DDD 03                     db (..@1202.trap_end - ..@1202.trap)
  3853 00000DDE 00<rept>               times TRAPINFO_size-($-..@1206.strucstart) db 0
  3854                                 [section .text]
  3855                                 ..@1202.resume:
  3856                                 %line 1766+1 /home/se170/VirtualBox-4.3.28/src/VBox/VMM/testcase/tstX86-1A.asm
  3857                                 ..@1214.trap:
  3858                                 %line 1766+0 /home/se170/VirtualBox-4.3.28/src/VBox/VMM/testcase/tstX86-1A.asm
  3859 00001347 F00F1F00                db 0f0
  3860                                 ..@1214.trap_end:
  3861 0000134B B8E6060000              mov eax, 1766
  3862 00001350 E9B4010000              jmp .return
  3863                                 [section .data]
  3864                                 ..@1214.trapinfo: 
  3865                                 ..@1218.strucstart:
  3866 00000DEC [0000000000000000]     dq ..@1214.trap
  3867 00000DF4 [0000000000000000]     dq ..@1214.resume
  3868 00000DFC 06                     db 0x06
  3869 00000DFD 04                     db (..@1214.trap_end - ..@1214.trap)
  3870 00000DFE 00<rept>               times TRAPINFO_size-($-..@1218.strucstart) db 0
  3871                                 [section .text]
  3872                                 ..@1214.resume:
  3873                                 %line 1767+1 /home/se170/VirtualBox-4.3.28/src/VBox/VMM/testcase/tstX86-1A.asm
  3874                                 
  3875                                 
  3876                                 %line 1779+1 /home/se170/VirtualBox-4.3.28/src/VBox/VMM/testcase/tstX86-1A.asm
  3877 00001355 0F1900                  db 00f
  3878                                 %line 1779+0 /home/se170/VirtualBox-4.3.28/src/VBox/VMM/testcase/tstX86-1A.asm
  3879 00001358 0F194000                db 00f
  3880 0000135C 0F19440000              db 00f
  3881 00001361 660F19440000            db 066
  3882 00001367 0F198000000000          db 00f
  3883 0000136E 0F19840000000000        db 00f
  3884 00001376 660F19840000000000      db 066
  3885                                 ..@1227.trap:
  3886 0000137F F00F1900                db 0f0
  3887                                 ..@1227.trap_end:
  3888 00001383 B8F3060000              mov eax, 1779
  3889 00001388 E97C010000              jmp .return
  3890                                 [section .data]
  3891                                 ..@1227.trapinfo: 
  3892                                 ..@1231.strucstart:
  3893 00000E0C [0000000000000000]     dq ..@1227.trap
  3894 00000E14 [0000000000000000]     dq ..@1227.resume
  3895 00000E1C 06                     db 0x06
  3896 00000E1D 04                     db (..@1227.trap_end - ..@1227.trap)
  3897 00000E1E 00<rept>               times TRAPINFO_size-($-..@1231.strucstart) db 0
  3898                                 [section .text]
  3899                                 ..@1227.resume:
  3900                                 %line 1780+1 /home/se170/VirtualBox-4.3.28/src/VBox/VMM/testcase/tstX86-1A.asm
  3901 0000138D 0F1A00                  db 00f
  3902                                 %line 1780+0 /home/se170/VirtualBox-4.3.28/src/VBox/VMM/testcase/tstX86-1A.asm
  3903 00001390 0F1A4000                db 00f
  3904 00001394 0F1A440000              db 00f
  3905 00001399 660F1A440000            db 066
  3906 0000139F 0F1A8000000000          db 00f
  3907 000013A6 0F1A840000000000        db 00f
  3908 000013AE 660F1A840000000000      db 066
  3909                                 ..@1240.trap:
  3910 000013B7 F00F1A00                db 0f0
  3911                                 ..@1240.trap_end:
  3912 000013BB B8F4060000              mov eax, 1780
  3913 000013C0 E944010000              jmp .return
  3914                                 [section .data]
  3915                                 ..@1240.trapinfo: 
  3916                                 ..@1244.strucstart:
  3917 00000E2C [0000000000000000]     dq ..@1240.trap
  3918 00000E34 [0000000000000000]     dq ..@1240.resume
  3919 00000E3C 06                     db 0x06
  3920 00000E3D 04                     db (..@1240.trap_end - ..@1240.trap)
  3921 00000E3E 00<rept>               times TRAPINFO_size-($-..@1244.strucstart) db 0
  3922                                 [section .text]
  3923                                 ..@1240.resume:
  3924                                 %line 1781+1 /home/se170/VirtualBox-4.3.28/src/VBox/VMM/testcase/tstX86-1A.asm
  3925 000013C5 0F1B00                  db 00f
  3926                                 %line 1781+0 /home/se170/VirtualBox-4.3.28/src/VBox/VMM/testcase/tstX86-1A.asm
  3927 000013C8 0F1B4000                db 00f
  3928 000013CC 0F1B440000              db 00f
  3929 000013D1 660F1B440000            db 066
  3930 000013D7 0F1B8000000000          db 00f
  3931 000013DE 0F1B840000000000        db 00f
  3932 000013E6 660F1B840000000000      db 066
  3933                                 ..@1253.trap:
  3934 000013EF F00F1B00                db 0f0
  3935                                 ..@1253.trap_end:
  3936 000013F3 B8F5060000              mov eax, 1781
  3937 000013F8 E90C010000              jmp .return
  3938                                 [section .data]
  3939                                 ..@1253.trapinfo: 
  3940                                 ..@1257.strucstart:
  3941 00000E4C [0000000000000000]     dq ..@1253.trap
  3942 00000E54 [0000000000000000]     dq ..@1253.resume
  3943 00000E5C 06                     db 0x06
  3944 00000E5D 04                     db (..@1253.trap_end - ..@1253.trap)
  3945 00000E5E 00<rept>               times TRAPINFO_size-($-..@1257.strucstart) db 0
  3946                                 [section .text]
  3947                                 ..@1253.resume:
  3948                                 %line 1782+1 /home/se170/VirtualBox-4.3.28/src/VBox/VMM/testcase/tstX86-1A.asm
  3949 000013FD 0F1C00                  db 00f
  3950                                 %line 1782+0 /home/se170/VirtualBox-4.3.28/src/VBox/VMM/testcase/tstX86-1A.asm
  3951 00001400 0F1C4000                db 00f
  3952 00001404 0F1C440000              db 00f
  3953 00001409 660F1C440000            db 066
  3954 0000140F 0F1C8000000000          db 00f
  3955 00001416 0F1C840000000000        db 00f
  3956 0000141E 660F1C840000000000      db 066
  3957                                 ..@1266.trap:
  3958 00001427 F00F1C00                db 0f0
  3959                                 ..@1266.trap_end:
  3960 0000142B B8F6060000              mov eax, 1782
  3961 00001430 E9D4000000              jmp .return
  3962                                 [section .data]
  3963                                 ..@1266.trapinfo: 
  3964                                 ..@1270.strucstart:
  3965 00000E6C [0000000000000000]     dq ..@1266.trap
  3966 00000E74 [0000000000000000]     dq ..@1266.resume
  3967 00000E7C 06                     db 0x06
  3968 00000E7D 04                     db (..@1266.trap_end - ..@1266.trap)
  3969 00000E7E 00<rept>               times TRAPINFO_size-($-..@1270.strucstart) db 0
  3970                                 [section .text]
  3971                                 ..@1266.resume:
  3972                                 %line 1783+1 /home/se170/VirtualBox-4.3.28/src/VBox/VMM/testcase/tstX86-1A.asm
  3973 00001435 0F1D00                  db 00f
  3974                                 %line 1783+0 /home/se170/VirtualBox-4.3.28/src/VBox/VMM/testcase/tstX86-1A.asm
  3975 00001438 0F1D4000                db 00f
  3976 0000143C 0F1D440000              db 00f
  3977 00001441 660F1D440000            db 066
  3978 00001447 0F1D8000000000          db 00f
  3979 0000144E 0F1D840000000000        db 00f
  3980 00001456 660F1D840000000000      db 066
  3981                                 ..@1279.trap:
  3982 0000145F F00F1D00                db 0f0
  3983                                 ..@1279.trap_end:
  3984 00001463 B8F7060000              mov eax, 1783
  3985 00001468 E99C000000              jmp .return
  3986                                 [section .data]
  3987                                 ..@1279.trapinfo: 
  3988                                 ..@1283.strucstart:
  3989 00000E8C [0000000000000000]     dq ..@1279.trap
  3990 00000E94 [0000000000000000]     dq ..@1279.resume
  3991 00000E9C 06                     db 0x06
  3992 00000E9D 04                     db (..@1279.trap_end - ..@1279.trap)
  3993 00000E9E 00<rept>               times TRAPINFO_size-($-..@1283.strucstart) db 0
  3994                                 [section .text]
  3995                                 ..@1279.resume:
  3996                                 %line 1784+1 /home/se170/VirtualBox-4.3.28/src/VBox/VMM/testcase/tstX86-1A.asm
  3997 0000146D 0F1E00                  db 00f
  3998                                 %line 1784+0 /home/se170/VirtualBox-4.3.28/src/VBox/VMM/testcase/tstX86-1A.asm
  3999 00001470 0F1E4000                db 00f
  4000 00001474 0F1E440000              db 00f
  4001 00001479 660F1E440000            db 066
  4002 0000147F 0F1E8000000000          db 00f
  4003 00001486 0F1E840000000000        db 00f
  4004 0000148E 660F1E840000000000      db 066
  4005                                 ..@1292.trap:
  4006 00001497 F00F1E00                db 0f0
  4007                                 ..@1292.trap_end:
  4008 0000149B B8F8060000              mov eax, 1784
  4009 000014A0 EB6A                    jmp .return
  4010                                 [section .data]
  4011                                 ..@1292.trapinfo: 
  4012                                 ..@1296.strucstart:
  4013 00000EAC [0000000000000000]     dq ..@1292.trap
  4014 00000EB4 [0000000000000000]     dq ..@1292.resume
  4015 00000EBC 06                     db 0x06
  4016 00000EBD 04                     db (..@1292.trap_end - ..@1292.trap)
  4017 00000EBE 00<rept>               times TRAPINFO_size-($-..@1296.strucstart) db 0
  4018                                 [section .text]
  4019                                 ..@1292.resume:
  4020                                 %line 1785+1 /home/se170/VirtualBox-4.3.28/src/VBox/VMM/testcase/tstX86-1A.asm
  4021 000014A2 0F1F00                  db 00f
  4022                                 %line 1785+0 /home/se170/VirtualBox-4.3.28/src/VBox/VMM/testcase/tstX86-1A.asm
  4023 000014A5 0F1F4000                db 00f
  4024 000014A9 0F1F440000              db 00f
  4025 000014AE 660F1F440000            db 066
  4026 000014B4 0F1F8000000000          db 00f
  4027 000014BB 0F1F840000000000        db 00f
  4028 000014C3 660F1F840000000000      db 066
  4029                                 ..@1305.trap:
  4030 000014CC F00F1F00                db 0f0
  4031                                 ..@1305.trap_end:
  4032 000014D0 B8F9060000              mov eax, 1785
  4033 000014D5 EB35                    jmp .return
  4034                                 [section .data]
  4035                                 ..@1305.trapinfo: 
  4036                                 ..@1309.strucstart:
  4037 00000ECC [0000000000000000]     dq ..@1305.trap
  4038 00000ED4 [0000000000000000]     dq ..@1305.resume
  4039 00000EDC 06                     db 0x06
  4040 00000EDD 04                     db (..@1305.trap_end - ..@1305.trap)
  4041 00000EDE 00<rept>               times TRAPINFO_size-($-..@1309.strucstart) db 0
  4042                                 [section .text]
  4043                                 ..@1305.resume:
  4044                                 %line 1786+1 /home/se170/VirtualBox-4.3.28/src/VBox/VMM/testcase/tstX86-1A.asm
  4045                                 
  4046                                 
  4047 000014D7 0F0D00                  db 00f
  4048                                 %line 1788+0 /home/se170/VirtualBox-4.3.28/src/VBox/VMM/testcase/tstX86-1A.asm
  4049 000014DA 0F0D4000                db 00f
  4050 000014DE 0F0D440000              db 00f
  4051 000014E3 660F0D440000            db 066
  4052 000014E9 0F0D8000000000          db 00f
  4053 000014F0 0F0D840000000000        db 00f
  4054 000014F8 660F0D840000000000      db 066
  4055                                 ..@1318.trap:
  4056 00001501 F00F0D00                db 0f0
  4057                                 ..@1318.trap_end:
  4058 00001505 B8FC060000              mov eax, 1788
  4059 0000150A EB00                    jmp .return
  4060                                 [section .data]
  4061                                 ..@1318.trapinfo: 
  4062                                 ..@1322.strucstart:
  4063 00000EEC [0000000000000000]     dq ..@1318.trap
  4064 00000EF4 [0000000000000000]     dq ..@1318.resume
  4065 00000EFC 06                     db 0x06
  4066 00000EFD 04                     db (..@1318.trap_end - ..@1318.trap)
  4067 00000EFE 00<rept>               times TRAPINFO_size-($-..@1322.strucstart) db 0
  4068                                 [section .text]
  4069                                 ..@1318.resume:
  4070                                 %line 1789+1 /home/se170/VirtualBox-4.3.28/src/VBox/VMM/testcase/tstX86-1A.asm
  4071                                 
  4072                                 .success:
  4073 0000150C 31C0                    xor eax, eax
  4074                                 .return:
  4075 0000150E 488D6590                lea rsp, [rbp - 14 * 8]
  4076                                 %line 1793+0 /home/se170/VirtualBox-4.3.28/src/VBox/VMM/testcase/tstX86-1A.asm
  4077 00001512 415F                    pop r15
  4078 00001514 415E                    pop r14
  4079 00001516 415D                    pop r13
  4080 00001518 415C                    pop r12
  4081 0000151A 415B                    pop r11
  4082 0000151C 415A                    pop r10
  4083 0000151E 4159                    pop r9
  4084 00001520 4158                    pop r8
  4085 00001522 5F                      pop rdi
  4086 00001523 5E                      pop rsi
  4087 00001524 5A                      pop rdx
  4088 00001525 59                      pop rcx
  4089 00001526 5B                      pop rbx
  4090 00001527 9D                      popf
  4091 00001528 C9                      leave
  4092                                 %line 1794+1 /home/se170/VirtualBox-4.3.28/src/VBox/VMM/testcase/tstX86-1A.asm
  4093 00001529 C3                      ret
  4094                                 [global x861_Test4_EndProc:function hidden]
  4095                                 %line 1795+0 /home/se170/VirtualBox-4.3.28/src/VBox/VMM/testcase/tstX86-1A.asm
  4096                                 x861_Test4_EndProc:
  4097                                 [size x861_Test4 x861_Test4_EndProc - x861_Test4]
  4098                                 [size x861_Test4_EndProc 0]
  4099 0000152A CCCCCCCC                db 0xCC, 0xCC, 0xCC, 0xCC
  4100                                 %line 1796+1 /home/se170/VirtualBox-4.3.28/src/VBox/VMM/testcase/tstX86-1A.asm
  4101                                 
  4102                                 
  4103                                 
  4104                                 
  4105                                 
  4106                                 [global x861_Test5:function hidden]
  4107                                 %line 1801+0 /home/se170/VirtualBox-4.3.28/src/VBox/VMM/testcase/tstX86-1A.asm
  4108                                 x861_Test5:
  4109                                 %line 1802+1 /home/se170/VirtualBox-4.3.28/src/VBox/VMM/testcase/tstX86-1A.asm
  4110 0000152E 55                      push rbp
  4111                                 %line 1802+0 /home/se170/VirtualBox-4.3.28/src/VBox/VMM/testcase/tstX86-1A.asm
  4112 0000152F 4889E5                  mov rbp, rsp
  4113 00001532 9C                      pushf
  4114 00001533 53                      push rbx
  4115 00001534 51                      push rcx
  4116 00001535 52                      push rdx
  4117 00001536 56                      push rsi
  4118 00001537 57                      push rdi
  4119 00001538 4150                    push r8
  4120 0000153A 4151                    push r9
  4121 0000153C 4152                    push r10
  4122 0000153E 4153                    push r11
  4123 00001540 4154                    push r12
  4124 00001542 4155                    push r13
  4125 00001544 4156                    push r14
  4126 00001546 4157                    push r15
  4127 00001548 4883E4F0                and rsp, ~0f
  4128                                 %line 1803+1 /home/se170/VirtualBox-4.3.28/src/VBox/VMM/testcase/tstX86-1A.asm
  4129 0000154C E834EBFFFF              call x861_ClearRegisters
  4130                                 
  4131                                 %line 1848+1 /home/se170/VirtualBox-4.3.28/src/VBox/VMM/testcase/tstX86-1A.asm
  4132                                 
  4133                                 
  4134                                 ..@1340.trap:
  4135                                 %line 1850+0 /home/se170/VirtualBox-4.3.28/src/VBox/VMM/testcase/tstX86-1A.asm
  4136 00001551 0F24C0                  db 0x0f, 0x24, 0xc0
  4137                                 ..@1340.trap_end:
  4138 00001554 B83A070000              mov eax, 1850
  4139 00001559 E983000000              jmp .return
  4140                                 [section .data]
  4141                                 ..@1340.trapinfo: 
  4142                                 ..@1344.strucstart:
  4143 00000F0C [0000000000000000]     dq ..@1340.trap
  4144 00000F14 [0000000000000000]     dq ..@1340.resume
  4145 00000F1C 06                     db 0x06
  4146 00000F1D 03                     db (..@1340.trap_end - ..@1340.trap)
  4147 00000F1E 00<rept>               times TRAPINFO_size-($-..@1344.strucstart) db 0
  4148                                 [section .text]
  4149                                 ..@1340.resume:
  4150                                 %line 1851+1 /home/se170/VirtualBox-4.3.28/src/VBox/VMM/testcase/tstX86-1A.asm
  4151                                 
  4152 0000155E 488B05(F2FFFFFF)        mov rax, [g_pbEfExecPage wrt rip]
  4153 00001565 4805FD0F0000            add rax, 0x1000 - 3
  4154 0000156B C6000F                  mov byte [rax ], 0x0f
  4155 0000156E C6400124                mov byte [rax + 1], 0x24
  4156 00001572 C64002C0                mov byte [rax + 2], 0xc0
  4157 00001576 488D15(F2FFFFFF)        lea rdx, [g_aTrapInfoExecPage wrt rip]
  4158                                 %line 1857+0 /home/se170/VirtualBox-4.3.28/src/VBox/VMM/testcase/tstX86-1A.asm
  4159 0000157D 488D0518000000          lea rax, [..@1352.resume wrt rip]
  4160 00001584 C6421103                mov byte [rdx + TRAPINFO.cbInstr], 0x1000 - (0x1000 - 3)
  4161 00001588 C6421006                mov byte [rdx + TRAPINFO.u8TrapNo], 0x06
  4162 0000158C 48894208                mov [rdx + TRAPINFO.uResumePC], rax
  4163 00001590 488B05(F2FFFFFF)        mov rax, [g_pbEfExecPage wrt rip]
  4164 00001597 488D80FD0F0000          lea rax, [rax + (0x1000 - 3)]
  4165 0000159E 488902                  mov [rdx + TRAPINFO.uTrapPC], rax
  4166 000015A1 FFE0                    jmp rax
  4167                                 ..@1352.resume:
  4168                                 %line 1858+1 /home/se170/VirtualBox-4.3.28/src/VBox/VMM/testcase/tstX86-1A.asm
  4169                                 
  4170 000015A3 488B05(F2FFFFFF)        mov rax, [g_pbEfExecPage wrt rip]
  4171 000015AA 4805FE0F0000            add rax, 0x1000 - 2
  4172 000015B0 C6000F                  mov byte [rax ], 0x0f
  4173 000015B3 C6400124                mov byte [rax + 1], 0x24
  4174 000015B7 488D15(F2FFFFFF)        lea rdx, [g_aTrapInfoExecPage wrt rip]
  4175                                 %line 1863+0 /home/se170/VirtualBox-4.3.28/src/VBox/VMM/testcase/tstX86-1A.asm
  4176 000015BE 488D0518000000          lea rax, [..@1353.resume wrt rip]
  4177 000015C5 C6421102                mov byte [rdx + TRAPINFO.cbInstr], 0x1000 - (0x1000 - 2)
  4178 000015C9 C6421006                mov byte [rdx + TRAPINFO.u8TrapNo], 0x06
  4179 000015CD 48894208                mov [rdx + TRAPINFO.uResumePC], rax
  4180 000015D1 488B05(F2FFFFFF)        mov rax, [g_pbEfExecPage wrt rip]
  4181 000015D8 488D80FE0F0000          lea rax, [rax + (0x1000 - 2)]
  4182 000015DF 488902                  mov [rdx + TRAPINFO.uTrapPC], rax
  4183 000015E2 FFE0                    jmp rax
  4184                                 ..@1353.resume:
  4185                                 %line 1864+1 /home/se170/VirtualBox-4.3.28/src/VBox/VMM/testcase/tstX86-1A.asm
  4186                                 
  4187                                 .success:
  4188 000015E4 31C0                    xor eax, eax
  4189                                 .return:
  4190 000015E6 488D6590                lea rsp, [rbp - 14 * 8]
  4191                                 %line 1868+0 /home/se170/VirtualBox-4.3.28/src/VBox/VMM/testcase/tstX86-1A.asm
  4192 000015EA 415F                    pop r15
  4193 000015EC 415E                    pop r14
  4194 000015EE 415D                    pop r13
  4195 000015F0 415C                    pop r12
  4196 000015F2 415B                    pop r11
  4197 000015F4 415A                    pop r10
  4198 000015F6 4159                    pop r9
  4199 000015F8 4158                    pop r8
  4200 000015FA 5F                      pop rdi
  4201 000015FB 5E                      pop rsi
  4202 000015FC 5A                      pop rdx
  4203 000015FD 59                      pop rcx
  4204 000015FE 5B                      pop rbx
  4205 000015FF 9D                      popf
  4206 00001600 C9                      leave
  4207                                 %line 1869+1 /home/se170/VirtualBox-4.3.28/src/VBox/VMM/testcase/tstX86-1A.asm
  4208 00001601 C3                      ret
  4209                                 [global x861_Test5_EndProc:function hidden]
  4210                                 %line 1870+0 /home/se170/VirtualBox-4.3.28/src/VBox/VMM/testcase/tstX86-1A.asm
  4211                                 x861_Test5_EndProc:
  4212                                 [size x861_Test5 x861_Test5_EndProc - x861_Test5]
  4213                                 [size x861_Test5_EndProc 0]
  4214 00001602 CCCCCCCC                db 0xCC, 0xCC, 0xCC, 0xCC
  4215                                 %line 1871+1 /home/se170/VirtualBox-4.3.28/src/VBox/VMM/testcase/tstX86-1A.asm
  4216                                 
  4217                                 
  4218                                 
  4219                                 
  4220                                 
  4221                                 
  4222                                 
  4223                                 %line 1896+1 /home/se170/VirtualBox-4.3.28/src/VBox/VMM/testcase/tstX86-1A.asm
  4224                                 
  4225                                 
  4226                                 
  4227                                 
  4228                                 %line 1927+1 /home/se170/VirtualBox-4.3.28/src/VBox/VMM/testcase/tstX86-1A.asm
  4229                                 
  4230                                 
  4231                                 
  4232                                 
  4233                                 
  4234                                 
  4235                                 
  4236                                 
  4237                                 
  4238                                 
  4239                                 SaveFPUAndGRegsToStack:
  4240                                 
  4241 00001606 9C                      pushf
  4242 00001607 51                      push rcx
  4243 00001608 50                      push rax
  4244 00001609 57                      push rdi
  4245                                 
  4246 0000160A 488D7C2428              lea rdi, [rsp + 8 * 5]
  4247 0000160F 48C7C180000000          mov rcx, 512 / 4
  4248 00001616 B8CCCCCCCC              mov eax, 0cccccccc
  4249 0000161B FC                      cld
  4250 0000161C F3AB                    rep stosd
  4251                                 
  4252 0000161E 5F                      pop rdi
  4253 0000161F 58                      pop rax
  4254 00001620 59                      pop rcx
  4255 00001621 9D                      popf
  4256                                 
  4257                                 
  4258 00001622 C744241000000000        mov dword [rsp + 8 + X86FXSTATE.FPUIP], 0
  4259 0000162A C744241400000000        mov dword [rsp + 8 + X86FXSTATE.FPUCS], 0
  4260 00001632 C744241800000000        mov dword [rsp + 8 + X86FXSTATE.FPUDP], 0
  4261 0000163A C744241C00000000        mov dword [rsp + 8 + X86FXSTATE.FPUDS], 0
  4262 00001642 480FAE442408            o64 fxsave [rsp + 8]
  4263                                 
  4264                                 
  4265                                 %line 1964+1 /home/se170/VirtualBox-4.3.28/src/VBox/VMM/testcase/tstX86-1A.asm
  4266 00001648 4889842408020000        mov [rsp + 512 + 8 + 000
  4267 00001650 48899C2410020000        mov [rsp + 512 + 8 + 008
  4268 00001658 48898C2418020000        mov [rsp + 512 + 8 + 010
  4269 00001660 4889942420020000        mov [rsp + 512 + 8 + 018
  4270 00001668 4889BC2428020000        mov [rsp + 512 + 8 + 020
  4271 00001670 4889B42430020000        mov [rsp + 512 + 8 + 028
  4272 00001678 4889AC2438020000        mov [rsp + 512 + 8 + 030
  4273 00001680 4C89842440020000        mov [rsp + 512 + 8 + 038
  4274 00001688 4C898C2448020000        mov [rsp + 512 + 8 + 040
  4275 00001690 4C89942450020000        mov [rsp + 512 + 8 + 048
  4276 00001698 4C899C2458020000        mov [rsp + 512 + 8 + 050
  4277 000016A0 4C89A42460020000        mov [rsp + 512 + 8 + 058
  4278 000016A8 4C89AC2468020000        mov [rsp + 512 + 8 + 060
  4279 000016B0 4C89B42470020000        mov [rsp + 512 + 8 + 068
  4280 000016B8 4C89BC2478020000        mov [rsp + 512 + 8 + 070
  4281 000016C0 9C                      pushf
  4282 000016C1 58                      pop rax
  4283 000016C2 4889842480020000        mov [rsp + 512 + 8 + 078
  4284 000016CA 488B842408020000        mov rax, [rsp + 512 + 8 + 000
  4285                                 %line 2020+1 /home/se170/VirtualBox-4.3.28/src/VBox/VMM/testcase/tstX86-1A.asm
  4286 000016D2 C3                      ret
  4287                                 
  4288                                 
  4289                                 
  4290                                 
  4291                                 
  4292                                 
  4293                                 
  4294                                 
  4295                                 
  4296                                 CompareFPUAndGRegsOnStack:
  4297 000016D3 488DA42408FCFFFF        lea rsp, [rsp - (1024 - 8)]
  4298 000016DB E821FFFFFF              call SaveFPUAndGRegsToStack
  4299                                 
  4300 000016E0 56                      push rsi
  4301 000016E1 57                      push rdi
  4302 000016E2 51                      push rcx
  4303                                 
  4304 000016E3 48C7C180020000          mov rcx, 640
  4305 000016EA 488D742418              lea rsi, [rsp + 8*3]
  4306 000016EF 488DBE00040000          lea rdi, [rsi + 1024]
  4307                                 
  4308 000016F6 FC                      cld
  4309 000016F7 F3A6                    repe cmpsb
  4310 000016F9 7416                    je .ok
  4311                                 
  4312                                 
  4313 000016FB 488D442418              lea rax, [rsp + 8*3]
  4314 00001700 4896                    xchg rax, rsi
  4315 00001702 4829F0                  sub rax, rsi
  4316                                 
  4317 00001705 52                      push rdx
  4318 00001706 48C7C240420F00          mov rdx, 1000000
  4319 0000170D 48F7E2                  mul rdx
  4320 00001710 5A                      pop rdx
  4321 00001711 EB00                    jmp .return
  4322                                 .ok:
  4323 00001713 31C0                    xor eax, eax
  4324                                 .return:
  4325 00001715 59                      pop rcx
  4326 00001716 5F                      pop rdi
  4327 00001717 5E                      pop rsi
  4328 00001718 488DA424F8030000        lea rsp, [rsp + (1024 - 8)]
  4329 00001720 09C0                    or eax, eax
  4330 00001722 C3                      ret
  4331                                 
  4332                                 
  4333                                 
  4334                                 
  4335                                 
  4336                                 
  4337                                 
  4338                                 
  4339                                 
  4340                                 CompareFPUAndGRegsOnStackIgnoreOpAndIp:
  4341 00001723 488DA42408FCFFFF        lea rsp, [rsp - (1024 - 8)]
  4342 0000172B E8D1FEFFFF              call SaveFPUAndGRegsToStack
  4343                                 
  4344 00001730 56                      push rsi
  4345 00001731 57                      push rdi
  4346 00001732 51                      push rcx
  4347                                 
  4348 00001733 48C7C180020000          mov rcx, 640
  4349 0000173A 488D742418              lea rsi, [rsp + 8*3]
  4350 0000173F 488DBE00040000          lea rdi, [rsi + 1024]
  4351                                 
  4352 00001746 66C746060000            mov word [rsi + X86FXSTATE.FOP], 0
  4353 0000174C 66C747060000            mov word [rdi + X86FXSTATE.FOP], 0
  4354 00001752 C7460800000000          mov dword [rsi + X86FXSTATE.FPUIP], 0
  4355 00001759 C7470800000000          mov dword [rdi + X86FXSTATE.FPUIP], 0
  4356                                 
  4357 00001760 FC                      cld
  4358 00001761 F3A6                    repe cmpsb
  4359 00001763 7416                    je .ok
  4360                                 
  4361                                 
  4362 00001765 488D442418              lea rax, [rsp + 8*3]
  4363 0000176A 4896                    xchg rax, rsi
  4364 0000176C 4829F0                  sub rax, rsi
  4365                                 
  4366 0000176F 52                      push rdx
  4367 00001770 48C7C240420F00          mov rdx, 1000000
  4368 00001777 48F7E2                  mul rdx
  4369 0000177A 5A                      pop rdx
  4370 0000177B EB00                    jmp .return
  4371                                 .ok:
  4372 0000177D 31C0                    xor eax, eax
  4373                                 .return:
  4374 0000177F 59                      pop rcx
  4375 00001780 5F                      pop rdi
  4376 00001781 5E                      pop rsi
  4377 00001782 488DA424F8030000        lea rsp, [rsp + (1024 - 8)]
  4378 0000178A 09C0                    or eax, eax
  4379 0000178C C3                      ret
  4380                                 
  4381                                 
  4382                                 SetFSW_C0_thru_C3:
  4383 0000178D 4883EC20                sub rsp, 20
  4384 00001791 9BD93424                fstenv [rsp]
  4385 00001795 66814C24040047          or word [rsp + 4], (1 << 8) | (1 << 9) | (1 << 10) | (1 << 14)
  4386 0000179C D92424                  fldenv [rsp]
  4387 0000179F 4883C420                add rsp, 20
  4388 000017A3 C3                      ret
  4389                                 
  4390                                 
  4391                                 
  4392                                 
  4393                                 
  4394                                 [global x861_Test6:function hidden]
  4395                                 %line 2128+0 /home/se170/VirtualBox-4.3.28/src/VBox/VMM/testcase/tstX86-1A.asm
  4396                                 x861_Test6:
  4397                                 %line 2129+1 /home/se170/VirtualBox-4.3.28/src/VBox/VMM/testcase/tstX86-1A.asm
  4398 000017A4 55                      push rbp
  4399                                 %line 2129+0 /home/se170/VirtualBox-4.3.28/src/VBox/VMM/testcase/tstX86-1A.asm
  4400 000017A5 4889E5                  mov rbp, rsp
  4401 000017A8 9C                      pushf
  4402 000017A9 53                      push rbx
  4403 000017AA 51                      push rcx
  4404 000017AB 52                      push rdx
  4405 000017AC 56                      push rsi
  4406 000017AD 57                      push rdi
  4407 000017AE 4150                    push r8
  4408 000017B0 4151                    push r9
  4409 000017B2 4152                    push r10
  4410 000017B4 4153                    push r11
  4411 000017B6 4154                    push r12
  4412 000017B8 4155                    push r13
  4413 000017BA 4156                    push r14
  4414 000017BC 4157                    push r15
  4415 000017BE 4883E4F0                and rsp, ~0f
  4416                                 %line 2130+1 /home/se170/VirtualBox-4.3.28/src/VBox/VMM/testcase/tstX86-1A.asm
  4417                                 
  4418                                 
  4419 000017C2 D905(F4FFFFFF)          fld dword [g_r32V1 wrt rip]
  4420 000017C8 DD05(F4FFFFFF)          fld qword [g_r64V1 wrt rip]
  4421 000017CE DB2D(F4FFFFFF)          fld tword [g_r80V1 wrt rip]
  4422 000017D4 DD05(F4FFFFFF)          fld qword [g_r64V1 wrt rip]
  4423 000017DA D905(F4FFFFFF)          fld dword [g_r32V2 wrt rip]
  4424 000017E0 D905(F4FFFFFF)          fld dword [g_r32V1 wrt rip]
  4425                                 
  4426                                 
  4427 000017E6 DBE2                    fnclex
  4428                                 %line 2140+0 /home/se170/VirtualBox-4.3.28/src/VBox/VMM/testcase/tstX86-1A.asm
  4429 000017E8 E89BFFFFFF              call SetFSW_C0_thru_C3
  4430                                 
  4431 000017ED 55                      push rbp
  4432 000017EE 4889E5                  mov rbp, rsp
  4433 000017F1 4881EC00040000          sub rsp, 1024
  4434 000017F8 4883E4F0                and rsp, ~0f
  4435 000017FC E800FEFFFF              call SaveFPUAndGRegsToStack
  4436 00001801 D9D0                    fnop
  4437 00001803 E816FFFFFF              call CompareFPUAndGRegsOnStackIgnoreOpAndIp
  4438 00001808 C9                      leave
  4439                                 
  4440 00001809 7408                    jz ..@1364.ok
  4441 0000180B 055C080000              add eax, 2140
  4442 00001810 E9C1200000              jmp .return
  4443                                 ..@1364.ok:
  4444                                 %line 2141+1 /home/se170/VirtualBox-4.3.28/src/VBox/VMM/testcase/tstX86-1A.asm
  4445                                 
  4446                                 
  4447                                 
  4448                                 ..@1365.trap:
  4449                                 %line 2144+0 /home/se170/VirtualBox-4.3.28/src/VBox/VMM/testcase/tstX86-1A.asm
  4450 00001815 D908                    db 0d9
  4451                                 ..@1365.trap_end:
  4452 00001817 B860080000              mov eax, 2144
  4453 0000181C E9B5200000              jmp .return
  4454                                 [section .data]
  4455                                 ..@1365.trapinfo: 
  4456                                 ..@1369.strucstart:
  4457 00000F2C [0000000000000000]     dq ..@1365.trap
  4458 00000F34 [0000000000000000]     dq ..@1365.resume
  4459 00000F3C 06                     db 0x06
  4460 00000F3D 02                     db (..@1365.trap_end - ..@1365.trap)
  4461 00000F3E 00<rept>               times TRAPINFO_size-($-..@1369.strucstart) db 0
  4462                                 [section .text]
  4463                                 ..@1365.resume:
  4464                                 %line 2145+1 /home/se170/VirtualBox-4.3.28/src/VBox/VMM/testcase/tstX86-1A.asm
  4465                                 ..@1377.trap:
  4466                                 %line 2145+0 /home/se170/VirtualBox-4.3.28/src/VBox/VMM/testcase/tstX86-1A.asm
  4467 00001821 D909                    db 0d9
  4468                                 ..@1377.trap_end:
  4469 00001823 B861080000              mov eax, 2145
  4470 00001828 E9A9200000              jmp .return
  4471                                 [section .data]
  4472                                 ..@1377.trapinfo: 
  4473                                 ..@1381.strucstart:
  4474 00000F4C [0000000000000000]     dq ..@1377.trap
  4475 00000F54 [0000000000000000]     dq ..@1377.resume
  4476 00000F5C 06                     db 0x06
  4477 00000F5D 02                     db (..@1377.trap_end - ..@1377.trap)
  4478 00000F5E 00<rept>               times TRAPINFO_size-($-..@1381.strucstart) db 0
  4479                                 [section .text]
  4480                                 ..@1377.resume:
  4481                                 %line 2146+1 /home/se170/VirtualBox-4.3.28/src/VBox/VMM/testcase/tstX86-1A.asm
  4482                                 ..@1389.trap:
  4483                                 %line 2146+0 /home/se170/VirtualBox-4.3.28/src/VBox/VMM/testcase/tstX86-1A.asm
  4484 0000182D D90A                    db 0d9
  4485                                 ..@1389.trap_end:
  4486 0000182F B862080000              mov eax, 2146
  4487 00001834 E99D200000              jmp .return
  4488                                 [section .data]
  4489                                 ..@1389.trapinfo: 
  4490                                 ..@1393.strucstart:
  4491 00000F6C [0000000000000000]     dq ..@1389.trap
  4492 00000F74 [0000000000000000]     dq ..@1389.resume
  4493 00000F7C 06                     db 0x06
  4494 00000F7D 02                     db (..@1389.trap_end - ..@1389.trap)
  4495 00000F7E 00<rept>               times TRAPINFO_size-($-..@1393.strucstart) db 0
  4496                                 [section .text]
  4497                                 ..@1389.resume:
  4498                                 %line 2147+1 /home/se170/VirtualBox-4.3.28/src/VBox/VMM/testcase/tstX86-1A.asm
  4499                                 ..@1401.trap:
  4500                                 %line 2147+0 /home/se170/VirtualBox-4.3.28/src/VBox/VMM/testcase/tstX86-1A.asm
  4501 00001839 D90B                    db 0d9
  4502                                 ..@1401.trap_end:
  4503 0000183B B863080000              mov eax, 2147
  4504 00001840 E991200000              jmp .return
  4505                                 [section .data]
  4506                                 ..@1401.trapinfo: 
  4507                                 ..@1405.strucstart:
  4508 00000F8C [0000000000000000]     dq ..@1401.trap
  4509 00000F94 [0000000000000000]     dq ..@1401.resume
  4510 00000F9C 06                     db 0x06
  4511 00000F9D 02                     db (..@1401.trap_end - ..@1401.trap)
  4512 00000F9E 00<rept>               times TRAPINFO_size-($-..@1405.strucstart) db 0
  4513                                 [section .text]
  4514                                 ..@1401.resume:
  4515                                 %line 2148+1 /home/se170/VirtualBox-4.3.28/src/VBox/VMM/testcase/tstX86-1A.asm
  4516                                 ..@1413.trap:
  4517                                 %line 2148+0 /home/se170/VirtualBox-4.3.28/src/VBox/VMM/testcase/tstX86-1A.asm
  4518 00001845 D90C                    db 0d9
  4519                                 ..@1413.trap_end:
  4520 00001847 B864080000              mov eax, 2148
  4521 0000184C E985200000              jmp .return
  4522                                 [section .data]
  4523                                 ..@1413.trapinfo: 
  4524                                 ..@1417.strucstart:
  4525 00000FAC [0000000000000000]     dq ..@1413.trap
  4526 00000FB4 [0000000000000000]     dq ..@1413.resume
  4527 00000FBC 06                     db 0x06
  4528 00000FBD 02                     db (..@1413.trap_end - ..@1413.trap)
  4529 00000FBE 00<rept>               times TRAPINFO_size-($-..@1417.strucstart) db 0
  4530                                 [section .text]
  4531                                 ..@1413.resume:
  4532                                 %line 2149+1 /home/se170/VirtualBox-4.3.28/src/VBox/VMM/testcase/tstX86-1A.asm
  4533                                 ..@1425.trap:
  4534                                 %line 2149+0 /home/se170/VirtualBox-4.3.28/src/VBox/VMM/testcase/tstX86-1A.asm
  4535 00001851 D90D                    db 0d9
  4536                                 ..@1425.trap_end:
  4537 00001853 B865080000              mov eax, 2149
  4538 00001858 E979200000              jmp .return
  4539                                 [section .data]
  4540                                 ..@1425.trapinfo: 
  4541                                 ..@1429.strucstart:
  4542 00000FCC [0000000000000000]     dq ..@1425.trap
  4543 00000FD4 [0000000000000000]     dq ..@1425.resume
  4544 00000FDC 06                     db 0x06
  4545 00000FDD 02                     db (..@1425.trap_end - ..@1425.trap)
  4546 00000FDE 00<rept>               times TRAPINFO_size-($-..@1429.strucstart) db 0
  4547                                 [section .text]
  4548                                 ..@1425.resume:
  4549                                 %line 2150+1 /home/se170/VirtualBox-4.3.28/src/VBox/VMM/testcase/tstX86-1A.asm
  4550                                 ..@1437.trap:
  4551                                 %line 2150+0 /home/se170/VirtualBox-4.3.28/src/VBox/VMM/testcase/tstX86-1A.asm
  4552 0000185D D90E                    db 0d9
  4553                                 ..@1437.trap_end:
  4554 0000185F B866080000              mov eax, 2150
  4555 00001864 E96D200000              jmp .return
  4556                                 [section .data]
  4557                                 ..@1437.trapinfo: 
  4558                                 ..@1441.strucstart:
  4559 00000FEC [0000000000000000]     dq ..@1437.trap
  4560 00000FF4 [0000000000000000]     dq ..@1437.resume
  4561 00000FFC 06                     db 0x06
  4562 00000FFD 02                     db (..@1437.trap_end - ..@1437.trap)
  4563 00000FFE 00<rept>               times TRAPINFO_size-($-..@1441.strucstart) db 0
  4564                                 [section .text]
  4565                                 ..@1437.resume:
  4566                                 %line 2151+1 /home/se170/VirtualBox-4.3.28/src/VBox/VMM/testcase/tstX86-1A.asm
  4567                                 ..@1449.trap:
  4568                                 %line 2151+0 /home/se170/VirtualBox-4.3.28/src/VBox/VMM/testcase/tstX86-1A.asm
  4569 00001869 D90F                    db 0d9
  4570                                 ..@1449.trap_end:
  4571 0000186B B867080000              mov eax, 2151
  4572 00001870 E961200000              jmp .return
  4573                                 [section .data]
  4574                                 ..@1449.trapinfo: 
  4575                                 ..@1453.strucstart:
  4576 0000100C [0000000000000000]     dq ..@1449.trap
  4577 00001014 [0000000000000000]     dq ..@1449.resume
  4578 0000101C 06                     db 0x06
  4579 0000101D 02                     db (..@1449.trap_end - ..@1449.trap)
  4580 0000101E 00<rept>               times TRAPINFO_size-($-..@1453.strucstart) db 0
  4581                                 [section .text]
  4582                                 ..@1449.resume:
  4583                                 %line 2152+1 /home/se170/VirtualBox-4.3.28/src/VBox/VMM/testcase/tstX86-1A.asm
  4584                                 
  4585                                 ..@1461.trap:
  4586                                 %line 2153+0 /home/se170/VirtualBox-4.3.28/src/VBox/VMM/testcase/tstX86-1A.asm
  4587 00001875 D9D1                    db 0d9
  4588                                 ..@1461.trap_end:
  4589 00001877 B869080000              mov eax, 2153
  4590 0000187C E955200000              jmp .return
  4591                                 [section .data]
  4592                                 ..@1461.trapinfo: 
  4593                                 ..@1465.strucstart:
  4594 0000102C [0000000000000000]     dq ..@1461.trap
  4595 00001034 [0000000000000000]     dq ..@1461.resume
  4596 0000103C 06                     db 0x06
  4597 0000103D 02                     db (..@1461.trap_end - ..@1461.trap)
  4598 0000103E 00<rept>               times TRAPINFO_size-($-..@1465.strucstart) db 0
  4599                                 [section .text]
  4600                                 ..@1461.resume:
  4601                                 %line 2154+1 /home/se170/VirtualBox-4.3.28/src/VBox/VMM/testcase/tstX86-1A.asm
  4602                                 ..@1473.trap:
  4603                                 %line 2154+0 /home/se170/VirtualBox-4.3.28/src/VBox/VMM/testcase/tstX86-1A.asm
  4604 00001881 D9D2                    db 0d9
  4605                                 ..@1473.trap_end:
  4606 00001883 B86A080000              mov eax, 2154
  4607 00001888 E949200000              jmp .return
  4608                                 [section .data]
  4609                                 ..@1473.trapinfo: 
  4610                                 ..@1477.strucstart:
  4611 0000104C [0000000000000000]     dq ..@1473.trap
  4612 00001054 [0000000000000000]     dq ..@1473.resume
  4613 0000105C 06                     db 0x06
  4614 0000105D 02                     db (..@1473.trap_end - ..@1473.trap)
  4615 0000105E 00<rept>               times TRAPINFO_size-($-..@1477.strucstart) db 0
  4616                                 [section .text]
  4617                                 ..@1473.resume:
  4618                                 %line 2155+1 /home/se170/VirtualBox-4.3.28/src/VBox/VMM/testcase/tstX86-1A.asm
  4619                                 ..@1485.trap:
  4620                                 %line 2155+0 /home/se170/VirtualBox-4.3.28/src/VBox/VMM/testcase/tstX86-1A.asm
  4621 0000188D D9D3                    db 0d9
  4622                                 ..@1485.trap_end:
  4623 0000188F B86B080000              mov eax, 2155
  4624 00001894 E93D200000              jmp .return
  4625                                 [section .data]
  4626                                 ..@1485.trapinfo: 
  4627                                 ..@1489.strucstart:
  4628 0000106C [0000000000000000]     dq ..@1485.trap
  4629 00001074 [0000000000000000]     dq ..@1485.resume
  4630 0000107C 06                     db 0x06
  4631 0000107D 02                     db (..@1485.trap_end - ..@1485.trap)
  4632 0000107E 00<rept>               times TRAPINFO_size-($-..@1489.strucstart) db 0
  4633                                 [section .text]
  4634                                 ..@1485.resume:
  4635                                 %line 2156+1 /home/se170/VirtualBox-4.3.28/src/VBox/VMM/testcase/tstX86-1A.asm
  4636                                 ..@1497.trap:
  4637                                 %line 2156+0 /home/se170/VirtualBox-4.3.28/src/VBox/VMM/testcase/tstX86-1A.asm
  4638 00001899 D9D4                    db 0d9
  4639                                 ..@1497.trap_end:
  4640 0000189B B86C080000              mov eax, 2156
  4641 000018A0 E931200000              jmp .return
  4642                                 [section .data]
  4643                                 ..@1497.trapinfo: 
  4644                                 ..@1501.strucstart:
  4645 0000108C [0000000000000000]     dq ..@1497.trap
  4646 00001094 [0000000000000000]     dq ..@1497.resume
  4647 0000109C 06                     db 0x06
  4648 0000109D 02                     db (..@1497.trap_end - ..@1497.trap)
  4649 0000109E 00<rept>               times TRAPINFO_size-($-..@1501.strucstart) db 0
  4650                                 [section .text]
  4651                                 ..@1497.resume:
  4652                                 %line 2157+1 /home/se170/VirtualBox-4.3.28/src/VBox/VMM/testcase/tstX86-1A.asm
  4653                                 ..@1509.trap:
  4654                                 %line 2157+0 /home/se170/VirtualBox-4.3.28/src/VBox/VMM/testcase/tstX86-1A.asm
  4655 000018A5 D9D5                    db 0d9
  4656                                 ..@1509.trap_end:
  4657 000018A7 B86D080000              mov eax, 2157
  4658 000018AC E925200000              jmp .return
  4659                                 [section .data]
  4660                                 ..@1509.trapinfo: 
  4661                                 ..@1513.strucstart:
  4662 000010AC [0000000000000000]     dq ..@1509.trap
  4663 000010B4 [0000000000000000]     dq ..@1509.resume
  4664 000010BC 06                     db 0x06
  4665 000010BD 02                     db (..@1509.trap_end - ..@1509.trap)
  4666 000010BE 00<rept>               times TRAPINFO_size-($-..@1513.strucstart) db 0
  4667                                 [section .text]
  4668                                 ..@1509.resume:
  4669                                 %line 2158+1 /home/se170/VirtualBox-4.3.28/src/VBox/VMM/testcase/tstX86-1A.asm
  4670                                 ..@1521.trap:
  4671                                 %line 2158+0 /home/se170/VirtualBox-4.3.28/src/VBox/VMM/testcase/tstX86-1A.asm
  4672 000018B1 D9D6                    db 0d9
  4673                                 ..@1521.trap_end:
  4674 000018B3 B86E080000              mov eax, 2158
  4675 000018B8 E919200000              jmp .return
  4676                                 [section .data]
  4677                                 ..@1521.trapinfo: 
  4678                                 ..@1525.strucstart:
  4679 000010CC [0000000000000000]     dq ..@1521.trap
  4680 000010D4 [0000000000000000]     dq ..@1521.resume
  4681 000010DC 06                     db 0x06
  4682 000010DD 02                     db (..@1521.trap_end - ..@1521.trap)
  4683 000010DE 00<rept>               times TRAPINFO_size-($-..@1525.strucstart) db 0
  4684                                 [section .text]
  4685                                 ..@1521.resume:
  4686                                 %line 2159+1 /home/se170/VirtualBox-4.3.28/src/VBox/VMM/testcase/tstX86-1A.asm
  4687                                 ..@1533.trap:
  4688                                 %line 2159+0 /home/se170/VirtualBox-4.3.28/src/VBox/VMM/testcase/tstX86-1A.asm
  4689 000018BD D9D7                    db 0d9
  4690                                 ..@1533.trap_end:
  4691 000018BF B86F080000              mov eax, 2159
  4692 000018C4 E90D200000              jmp .return
  4693                                 [section .data]
  4694                                 ..@1533.trapinfo: 
  4695                                 ..@1537.strucstart:
  4696 000010EC [0000000000000000]     dq ..@1533.trap
  4697 000010F4 [0000000000000000]     dq ..@1533.resume
  4698 000010FC 06                     db 0x06
  4699 000010FD 02                     db (..@1533.trap_end - ..@1533.trap)
  4700 000010FE 00<rept>               times TRAPINFO_size-($-..@1537.strucstart) db 0
  4701                                 [section .text]
  4702                                 ..@1533.resume:
  4703                                 %line 2160+1 /home/se170/VirtualBox-4.3.28/src/VBox/VMM/testcase/tstX86-1A.asm
  4704 000018C9 DBE2                    fnclex
  4705                                 %line 2160+0 /home/se170/VirtualBox-4.3.28/src/VBox/VMM/testcase/tstX86-1A.asm
  4706 000018CB E8B8FEFFFF              call SetFSW_C0_thru_C3
  4707                                 
  4708 000018D0 55                      push rbp
  4709 000018D1 4889E5                  mov rbp, rsp
  4710 000018D4 4881EC00080000          sub rsp, 2048
  4711 000018DB 4883E4F0                and rsp, ~0f
  4712 000018DF C78424080400000000-     mov dword [rsp + 1024 + X86FXSTATE.FPUIP], 0
  4713 000018DF 0000               
  4714 000018EA C784240C0400000000-     mov dword [rsp + 1024 + X86FXSTATE.FPUCS], 0
  4715 000018EA 0000               
  4716 000018F5 C78424100400000000-     mov dword [rsp + 1024 + X86FXSTATE.FPUDP], 0
  4717 000018F5 0000               
  4718 00001900 C78424140400000000-     mov dword [rsp + 1024 + X86FXSTATE.FPUDS], 0
  4719 00001900 0000               
  4720 0000190B 480FAE842400040000      o64 fxsave [rsp + 1024]
  4721 00001914 D9D8                    db 0d9
  4722 00001916 E8E6FCFFFF              call SaveFPUAndGRegsToStack
  4723                                 
  4724 0000191B 480FAE8C2400040000      o64 fxrstor [rsp + 1024]
  4725 00001924 DDD8                    fstp st0 
  4726 00001926 E8F3FDFFFF              call CompareFPUAndGRegsOnStackIgnoreOpAndIp
  4727                                 
  4728 0000192B C9                      leave
  4729                                 
  4730 0000192C 7408                    jz ..@1545.ok
  4731 0000192E 0570080000              add eax, 2160
  4732 00001933 E99E1F0000              jmp .return
  4733                                 ..@1545.ok:
  4734                                 %line 2161+1 /home/se170/VirtualBox-4.3.28/src/VBox/VMM/testcase/tstX86-1A.asm
  4735 00001938 DBE2                    fnclex
  4736                                 %line 2161+0 /home/se170/VirtualBox-4.3.28/src/VBox/VMM/testcase/tstX86-1A.asm
  4737 0000193A E849FEFFFF              call SetFSW_C0_thru_C3
  4738                                 
  4739 0000193F 55                      push rbp
  4740 00001940 4889E5                  mov rbp, rsp
  4741 00001943 4881EC00080000          sub rsp, 2048
  4742 0000194A 4883E4F0                and rsp, ~0f
  4743 0000194E C78424080400000000-     mov dword [rsp + 1024 + X86FXSTATE.FPUIP], 0
  4744 0000194E 0000               
  4745 00001959 C784240C0400000000-     mov dword [rsp + 1024 + X86FXSTATE.FPUCS], 0
  4746 00001959 0000               
  4747 00001964 C78424100400000000-     mov dword [rsp + 1024 + X86FXSTATE.FPUDP], 0
  4748 00001964 0000               
  4749 0000196F C78424140400000000-     mov dword [rsp + 1024 + X86FXSTATE.FPUDS], 0
  4750 0000196F 0000               
  4751 0000197A 480FAE842400040000      o64 fxsave [rsp + 1024]
  4752 00001983 D9D9                    db 0d9
  4753 00001985 E877FCFFFF              call SaveFPUAndGRegsToStack
  4754                                 
  4755 0000198A 480FAE8C2400040000      o64 fxrstor [rsp + 1024]
  4756 00001993 DDD9                    fstp st1 
  4757 00001995 E884FDFFFF              call CompareFPUAndGRegsOnStackIgnoreOpAndIp
  4758                                 
  4759 0000199A C9                      leave
  4760                                 
  4761 0000199B 7408                    jz ..@1546.ok
  4762 0000199D 0571080000              add eax, 2161
  4763 000019A2 E92F1F0000              jmp .return
  4764                                 ..@1546.ok:
  4765                                 %line 2162+1 /home/se170/VirtualBox-4.3.28/src/VBox/VMM/testcase/tstX86-1A.asm
  4766 000019A7 DBE2                    fnclex
  4767                                 %line 2162+0 /home/se170/VirtualBox-4.3.28/src/VBox/VMM/testcase/tstX86-1A.asm
  4768 000019A9 E8DAFDFFFF              call SetFSW_C0_thru_C3
  4769                                 
  4770 000019AE 55                      push rbp
  4771 000019AF 4889E5                  mov rbp, rsp
  4772 000019B2 4881EC00080000          sub rsp, 2048
  4773 000019B9 4883E4F0                and rsp, ~0f
  4774 000019BD C78424080400000000-     mov dword [rsp + 1024 + X86FXSTATE.FPUIP], 0
  4775 000019BD 0000               
  4776 000019C8 C784240C0400000000-     mov dword [rsp + 1024 + X86FXSTATE.FPUCS], 0
  4777 000019C8 0000               
  4778 000019D3 C78424100400000000-     mov dword [rsp + 1024 + X86FXSTATE.FPUDP], 0
  4779 000019D3 0000               
  4780 000019DE C78424140400000000-     mov dword [rsp + 1024 + X86FXSTATE.FPUDS], 0
  4781 000019DE 0000               
  4782 000019E9 480FAE842400040000      o64 fxsave [rsp + 1024]
  4783 000019F2 D9DA                    db 0d9
  4784 000019F4 E808FCFFFF              call SaveFPUAndGRegsToStack
  4785                                 
  4786 000019F9 480FAE8C2400040000      o64 fxrstor [rsp + 1024]
  4787 00001A02 DDDA                    fstp st2 
  4788 00001A04 E815FDFFFF              call CompareFPUAndGRegsOnStackIgnoreOpAndIp
  4789                                 
  4790 00001A09 C9                      leave
  4791                                 
  4792 00001A0A 7408                    jz ..@1547.ok
  4793 00001A0C 0572080000              add eax, 2162
  4794 00001A11 E9C01E0000              jmp .return
  4795                                 ..@1547.ok:
  4796                                 %line 2163+1 /home/se170/VirtualBox-4.3.28/src/VBox/VMM/testcase/tstX86-1A.asm
  4797 00001A16 DBE2                    fnclex
  4798                                 %line 2163+0 /home/se170/VirtualBox-4.3.28/src/VBox/VMM/testcase/tstX86-1A.asm
  4799 00001A18 E86BFDFFFF              call SetFSW_C0_thru_C3
  4800                                 
  4801 00001A1D 55                      push rbp
  4802 00001A1E 4889E5                  mov rbp, rsp
  4803 00001A21 4881EC00080000          sub rsp, 2048
  4804 00001A28 4883E4F0                and rsp, ~0f
  4805 00001A2C C78424080400000000-     mov dword [rsp + 1024 + X86FXSTATE.FPUIP], 0
  4806 00001A2C 0000               
  4807 00001A37 C784240C0400000000-     mov dword [rsp + 1024 + X86FXSTATE.FPUCS], 0
  4808 00001A37 0000               
  4809 00001A42 C78424100400000000-     mov dword [rsp + 1024 + X86FXSTATE.FPUDP], 0
  4810 00001A42 0000               
  4811 00001A4D C78424140400000000-     mov dword [rsp + 1024 + X86FXSTATE.FPUDS], 0
  4812 00001A4D 0000               
  4813 00001A58 480FAE842400040000      o64 fxsave [rsp + 1024]
  4814 00001A61 D9DB                    db 0d9
  4815 00001A63 E899FBFFFF              call SaveFPUAndGRegsToStack
  4816                                 
  4817 00001A68 480FAE8C2400040000      o64 fxrstor [rsp + 1024]
  4818 00001A71 DDDB                    fstp st3 
  4819 00001A73 E8A6FCFFFF              call CompareFPUAndGRegsOnStackIgnoreOpAndIp
  4820                                 
  4821 00001A78 C9                      leave
  4822                                 
  4823 00001A79 7408                    jz ..@1548.ok
  4824 00001A7B 0573080000              add eax, 2163
  4825 00001A80 E9511E0000              jmp .return
  4826                                 ..@1548.ok:
  4827                                 %line 2164+1 /home/se170/VirtualBox-4.3.28/src/VBox/VMM/testcase/tstX86-1A.asm
  4828 00001A85 DBE2                    fnclex
  4829                                 %line 2164+0 /home/se170/VirtualBox-4.3.28/src/VBox/VMM/testcase/tstX86-1A.asm
  4830 00001A87 E8FCFCFFFF              call SetFSW_C0_thru_C3
  4831                                 
  4832 00001A8C 55                      push rbp
  4833 00001A8D 4889E5                  mov rbp, rsp
  4834 00001A90 4881EC00080000          sub rsp, 2048
  4835 00001A97 4883E4F0                and rsp, ~0f
  4836 00001A9B C78424080400000000-     mov dword [rsp + 1024 + X86FXSTATE.FPUIP], 0
  4837 00001A9B 0000               
  4838 00001AA6 C784240C0400000000-     mov dword [rsp + 1024 + X86FXSTATE.FPUCS], 0
  4839 00001AA6 0000               
  4840 00001AB1 C78424100400000000-     mov dword [rsp + 1024 + X86FXSTATE.FPUDP], 0
  4841 00001AB1 0000               
  4842 00001ABC C78424140400000000-     mov dword [rsp + 1024 + X86FXSTATE.FPUDS], 0
  4843 00001ABC 0000               
  4844 00001AC7 480FAE842400040000      o64 fxsave [rsp + 1024]
  4845 00001AD0 D9DC                    db 0d9
  4846 00001AD2 E82AFBFFFF              call SaveFPUAndGRegsToStack
  4847                                 
  4848 00001AD7 480FAE8C2400040000      o64 fxrstor [rsp + 1024]
  4849 00001AE0 DDDC                    fstp st4 
  4850 00001AE2 E837FCFFFF              call CompareFPUAndGRegsOnStackIgnoreOpAndIp
  4851                                 
  4852 00001AE7 C9                      leave
  4853                                 
  4854 00001AE8 7408                    jz ..@1549.ok
  4855 00001AEA 0574080000              add eax, 2164
  4856 00001AEF E9E21D0000              jmp .return
  4857                                 ..@1549.ok:
  4858                                 %line 2165+1 /home/se170/VirtualBox-4.3.28/src/VBox/VMM/testcase/tstX86-1A.asm
  4859 00001AF4 DBE2                    fnclex
  4860                                 %line 2165+0 /home/se170/VirtualBox-4.3.28/src/VBox/VMM/testcase/tstX86-1A.asm
  4861 00001AF6 E88DFCFFFF              call SetFSW_C0_thru_C3
  4862                                 
  4863 00001AFB 55                      push rbp
  4864 00001AFC 4889E5                  mov rbp, rsp
  4865 00001AFF 4881EC00080000          sub rsp, 2048
  4866 00001B06 4883E4F0                and rsp, ~0f
  4867 00001B0A C78424080400000000-     mov dword [rsp + 1024 + X86FXSTATE.FPUIP], 0
  4868 00001B0A 0000               
  4869 00001B15 C784240C0400000000-     mov dword [rsp + 1024 + X86FXSTATE.FPUCS], 0
  4870 00001B15 0000               
  4871 00001B20 C78424100400000000-     mov dword [rsp + 1024 + X86FXSTATE.FPUDP], 0
  4872 00001B20 0000               
  4873 00001B2B C78424140400000000-     mov dword [rsp + 1024 + X86FXSTATE.FPUDS], 0
  4874 00001B2B 0000               
  4875 00001B36 480FAE842400040000      o64 fxsave [rsp + 1024]
  4876 00001B3F D9DD                    db 0d9
  4877 00001B41 E8BBFAFFFF              call SaveFPUAndGRegsToStack
  4878                                 
  4879 00001B46 480FAE8C2400040000      o64 fxrstor [rsp + 1024]
  4880 00001B4F DDDD                    fstp st5 
  4881 00001B51 E8C8FBFFFF              call CompareFPUAndGRegsOnStackIgnoreOpAndIp
  4882                                 
  4883 00001B56 C9                      leave
  4884                                 
  4885 00001B57 7408                    jz ..@1550.ok
  4886 00001B59 0575080000              add eax, 2165
  4887 00001B5E E9731D0000              jmp .return
  4888                                 ..@1550.ok:
  4889                                 %line 2166+1 /home/se170/VirtualBox-4.3.28/src/VBox/VMM/testcase/tstX86-1A.asm
  4890 00001B63 DBE2                    fnclex
  4891                                 %line 2166+0 /home/se170/VirtualBox-4.3.28/src/VBox/VMM/testcase/tstX86-1A.asm
  4892 00001B65 E81EFCFFFF              call SetFSW_C0_thru_C3
  4893                                 
  4894 00001B6A 55                      push rbp
  4895 00001B6B 4889E5                  mov rbp, rsp
  4896 00001B6E 4881EC00080000          sub rsp, 2048
  4897 00001B75 4883E4F0                and rsp, ~0f
  4898 00001B79 C78424080400000000-     mov dword [rsp + 1024 + X86FXSTATE.FPUIP], 0
  4899 00001B79 0000               
  4900 00001B84 C784240C0400000000-     mov dword [rsp + 1024 + X86FXSTATE.FPUCS], 0
  4901 00001B84 0000               
  4902 00001B8F C78424100400000000-     mov dword [rsp + 1024 + X86FXSTATE.FPUDP], 0
  4903 00001B8F 0000               
  4904 00001B9A C78424140400000000-     mov dword [rsp + 1024 + X86FXSTATE.FPUDS], 0
  4905 00001B9A 0000               
  4906 00001BA5 480FAE842400040000      o64 fxsave [rsp + 1024]
  4907 00001BAE D9DE                    db 0d9
  4908 00001BB0 E84CFAFFFF              call SaveFPUAndGRegsToStack
  4909                                 
  4910 00001BB5 480FAE8C2400040000      o64 fxrstor [rsp + 1024]
  4911 00001BBE DDDE                    fstp st6 
  4912 00001BC0 E859FBFFFF              call CompareFPUAndGRegsOnStackIgnoreOpAndIp
  4913                                 
  4914 00001BC5 C9                      leave
  4915                                 
  4916 00001BC6 7408                    jz ..@1551.ok
  4917 00001BC8 0576080000              add eax, 2166
  4918 00001BCD E9041D0000              jmp .return
  4919                                 ..@1551.ok:
  4920                                 %line 2167+1 /home/se170/VirtualBox-4.3.28/src/VBox/VMM/testcase/tstX86-1A.asm
  4921                                 
  4922                                 ..@1552.trap:
  4923                                 %line 2168+0 /home/se170/VirtualBox-4.3.28/src/VBox/VMM/testcase/tstX86-1A.asm
  4924 00001BD2 D9E2                    db 0d9
  4925                                 ..@1552.trap_end:
  4926 00001BD4 B878080000              mov eax, 2168
  4927 00001BD9 E9F81C0000              jmp .return
  4928                                 [section .data]
  4929                                 ..@1552.trapinfo: 
  4930                                 ..@1556.strucstart:
  4931 0000110C [0000000000000000]     dq ..@1552.trap
  4932 00001114 [0000000000000000]     dq ..@1552.resume
  4933 0000111C 06                     db 0x06
  4934 0000111D 02                     db (..@1552.trap_end - ..@1552.trap)
  4935 0000111E 00<rept>               times TRAPINFO_size-($-..@1556.strucstart) db 0
  4936                                 [section .text]
  4937                                 ..@1552.resume:
  4938                                 %line 2169+1 /home/se170/VirtualBox-4.3.28/src/VBox/VMM/testcase/tstX86-1A.asm
  4939                                 ..@1564.trap:
  4940                                 %line 2169+0 /home/se170/VirtualBox-4.3.28/src/VBox/VMM/testcase/tstX86-1A.asm
  4941 00001BDE D9E3                    db 0d9
  4942                                 ..@1564.trap_end:
  4943 00001BE0 B879080000              mov eax, 2169
  4944 00001BE5 E9EC1C0000              jmp .return
  4945                                 [section .data]
  4946                                 ..@1564.trapinfo: 
  4947                                 ..@1568.strucstart:
  4948 0000112C [0000000000000000]     dq ..@1564.trap
  4949 00001134 [0000000000000000]     dq ..@1564.resume
  4950 0000113C 06                     db 0x06
  4951 0000113D 02                     db (..@1564.trap_end - ..@1564.trap)
  4952 0000113E 00<rept>               times TRAPINFO_size-($-..@1568.strucstart) db 0
  4953                                 [section .text]
  4954                                 ..@1564.resume:
  4955                                 %line 2170+1 /home/se170/VirtualBox-4.3.28/src/VBox/VMM/testcase/tstX86-1A.asm
  4956                                 ..@1576.trap:
  4957                                 %line 2170+0 /home/se170/VirtualBox-4.3.28/src/VBox/VMM/testcase/tstX86-1A.asm
  4958 00001BEA D9E6                    db 0d9
  4959                                 ..@1576.trap_end:
  4960 00001BEC B87A080000              mov eax, 2170
  4961 00001BF1 E9E01C0000              jmp .return
  4962                                 [section .data]
  4963                                 ..@1576.trapinfo: 
  4964                                 ..@1580.strucstart:
  4965 0000114C [0000000000000000]     dq ..@1576.trap
  4966 00001154 [0000000000000000]     dq ..@1576.resume
  4967 0000115C 06                     db 0x06
  4968 0000115D 02                     db (..@1576.trap_end - ..@1576.trap)
  4969 0000115E 00<rept>               times TRAPINFO_size-($-..@1580.strucstart) db 0
  4970                                 [section .text]
  4971                                 ..@1576.resume:
  4972                                 %line 2171+1 /home/se170/VirtualBox-4.3.28/src/VBox/VMM/testcase/tstX86-1A.asm
  4973                                 ..@1588.trap:
  4974                                 %line 2171+0 /home/se170/VirtualBox-4.3.28/src/VBox/VMM/testcase/tstX86-1A.asm
  4975 00001BF6 D9E7                    db 0d9
  4976                                 ..@1588.trap_end:
  4977 00001BF8 B87B080000              mov eax, 2171
  4978 00001BFD E9D41C0000              jmp .return
  4979                                 [section .data]
  4980                                 ..@1588.trapinfo: 
  4981                                 ..@1592.strucstart:
  4982 0000116C [0000000000000000]     dq ..@1588.trap
  4983 00001174 [0000000000000000]     dq ..@1588.resume
  4984 0000117C 06                     db 0x06
  4985 0000117D 02                     db (..@1588.trap_end - ..@1588.trap)
  4986 0000117E 00<rept>               times TRAPINFO_size-($-..@1592.strucstart) db 0
  4987                                 [section .text]
  4988                                 ..@1588.resume:
  4989                                 %line 2172+1 /home/se170/VirtualBox-4.3.28/src/VBox/VMM/testcase/tstX86-1A.asm
  4990                                 ..@1600.trap:
  4991                                 %line 2172+0 /home/se170/VirtualBox-4.3.28/src/VBox/VMM/testcase/tstX86-1A.asm
  4992 00001C02 D9EF                    db 0d9
  4993                                 ..@1600.trap_end:
  4994 00001C04 B87C080000              mov eax, 2172
  4995 00001C09 E9C81C0000              jmp .return
  4996                                 [section .data]
  4997                                 ..@1600.trapinfo: 
  4998                                 ..@1604.strucstart:
  4999 0000118C [0000000000000000]     dq ..@1600.trap
  5000 00001194 [0000000000000000]     dq ..@1600.resume
  5001 0000119C 06                     db 0x06
  5002 0000119D 02                     db (..@1600.trap_end - ..@1600.trap)
  5003 0000119E 00<rept>               times TRAPINFO_size-($-..@1604.strucstart) db 0
  5004                                 [section .text]
  5005                                 ..@1600.resume:
  5006                                 %line 2173+1 /home/se170/VirtualBox-4.3.28/src/VBox/VMM/testcase/tstX86-1A.asm
  5007                                 ..@1612.trap:
  5008                                 %line 2173+0 /home/se170/VirtualBox-4.3.28/src/VBox/VMM/testcase/tstX86-1A.asm
  5009 00001C0E D908                    db 0d9
  5010                                 ..@1612.trap_end:
  5011 00001C10 B87D080000              mov eax, 2173
  5012 00001C15 E9BC1C0000              jmp .return
  5013                                 [section .data]
  5014                                 ..@1612.trapinfo: 
  5015                                 ..@1616.strucstart:
  5016 000011AC [0000000000000000]     dq ..@1612.trap
  5017 000011B4 [0000000000000000]     dq ..@1612.resume
  5018 000011BC 06                     db 0x06
  5019 000011BD 02                     db (..@1612.trap_end - ..@1612.trap)
  5020 000011BE 00<rept>               times TRAPINFO_size-($-..@1616.strucstart) db 0
  5021                                 [section .text]
  5022                                 ..@1612.resume:
  5023                                 %line 2174+1 /home/se170/VirtualBox-4.3.28/src/VBox/VMM/testcase/tstX86-1A.asm
  5024                                 ..@1624.trap:
  5025                                 %line 2174+0 /home/se170/VirtualBox-4.3.28/src/VBox/VMM/testcase/tstX86-1A.asm
  5026 00001C1A D90F                    db 0d9
  5027                                 ..@1624.trap_end:
  5028 00001C1C B87E080000              mov eax, 2174
  5029 00001C21 E9B01C0000              jmp .return
  5030                                 [section .data]
  5031                                 ..@1624.trapinfo: 
  5032                                 ..@1628.strucstart:
  5033 000011CC [0000000000000000]     dq ..@1624.trap
  5034 000011D4 [0000000000000000]     dq ..@1624.resume
  5035 000011DC 06                     db 0x06
  5036 000011DD 02                     db (..@1624.trap_end - ..@1624.trap)
  5037 000011DE 00<rept>               times TRAPINFO_size-($-..@1628.strucstart) db 0
  5038                                 [section .text]
  5039                                 ..@1624.resume:
  5040                                 %line 2175+1 /home/se170/VirtualBox-4.3.28/src/VBox/VMM/testcase/tstX86-1A.asm
  5041                                 
  5042                                 
  5043                                 ..@1636.trap:
  5044                                 %line 2177+0 /home/se170/VirtualBox-4.3.28/src/VBox/VMM/testcase/tstX86-1A.asm
  5045 00001C26 DAE0                    db 0da
  5046                                 ..@1636.trap_end:
  5047 00001C28 B881080000              mov eax, 2177
  5048 00001C2D E9A41C0000              jmp .return
  5049                                 [section .data]
  5050                                 ..@1636.trapinfo: 
  5051                                 ..@1640.strucstart:
  5052 000011EC [0000000000000000]     dq ..@1636.trap
  5053 000011F4 [0000000000000000]     dq ..@1636.resume
  5054 000011FC 06                     db 0x06
  5055 000011FD 02                     db (..@1636.trap_end - ..@1636.trap)
  5056 000011FE 00<rept>               times TRAPINFO_size-($-..@1640.strucstart) db 0
  5057                                 [section .text]
  5058                                 ..@1636.resume:
  5059                                 %line 2178+1 /home/se170/VirtualBox-4.3.28/src/VBox/VMM/testcase/tstX86-1A.asm
  5060                                 ..@1648.trap:
  5061                                 %line 2178+0 /home/se170/VirtualBox-4.3.28/src/VBox/VMM/testcase/tstX86-1A.asm
  5062 00001C32 DAE1                    db 0da
  5063                                 ..@1648.trap_end:
  5064 00001C34 B882080000              mov eax, 2178
  5065 00001C39 E9981C0000              jmp .return
  5066                                 [section .data]
  5067                                 ..@1648.trapinfo: 
  5068                                 ..@1652.strucstart:
  5069 0000120C [0000000000000000]     dq ..@1648.trap
  5070 00001214 [0000000000000000]     dq ..@1648.resume
  5071 0000121C 06                     db 0x06
  5072 0000121D 02                     db (..@1648.trap_end - ..@1648.trap)
  5073 0000121E 00<rept>               times TRAPINFO_size-($-..@1652.strucstart) db 0
  5074                                 [section .text]
  5075                                 ..@1648.resume:
  5076                                 %line 2179+1 /home/se170/VirtualBox-4.3.28/src/VBox/VMM/testcase/tstX86-1A.asm
  5077                                 ..@1660.trap:
  5078                                 %line 2179+0 /home/se170/VirtualBox-4.3.28/src/VBox/VMM/testcase/tstX86-1A.asm
  5079 00001C3E DAE2                    db 0da
  5080                                 ..@1660.trap_end:
  5081 00001C40 B883080000              mov eax, 2179
  5082 00001C45 E98C1C0000              jmp .return
  5083                                 [section .data]
  5084                                 ..@1660.trapinfo: 
  5085                                 ..@1664.strucstart:
  5086 0000122C [0000000000000000]     dq ..@1660.trap
  5087 00001234 [0000000000000000]     dq ..@1660.resume
  5088 0000123C 06                     db 0x06
  5089 0000123D 02                     db (..@1660.trap_end - ..@1660.trap)
  5090 0000123E 00<rept>               times TRAPINFO_size-($-..@1664.strucstart) db 0
  5091                                 [section .text]
  5092                                 ..@1660.resume:
  5093                                 %line 2180+1 /home/se170/VirtualBox-4.3.28/src/VBox/VMM/testcase/tstX86-1A.asm
  5094                                 ..@1672.trap:
  5095                                 %line 2180+0 /home/se170/VirtualBox-4.3.28/src/VBox/VMM/testcase/tstX86-1A.asm
  5096 00001C4A DAE3                    db 0da
  5097                                 ..@1672.trap_end:
  5098 00001C4C B884080000              mov eax, 2180
  5099 00001C51 E9801C0000              jmp .return
  5100                                 [section .data]
  5101                                 ..@1672.trapinfo: 
  5102                                 ..@1676.strucstart:
  5103 0000124C [0000000000000000]     dq ..@1672.trap
  5104 00001254 [0000000000000000]     dq ..@1672.resume
  5105 0000125C 06                     db 0x06
  5106 0000125D 02                     db (..@1672.trap_end - ..@1672.trap)
  5107 0000125E 00<rept>               times TRAPINFO_size-($-..@1676.strucstart) db 0
  5108                                 [section .text]
  5109                                 ..@1672.resume:
  5110                                 %line 2181+1 /home/se170/VirtualBox-4.3.28/src/VBox/VMM/testcase/tstX86-1A.asm
  5111                                 ..@1684.trap:
  5112                                 %line 2181+0 /home/se170/VirtualBox-4.3.28/src/VBox/VMM/testcase/tstX86-1A.asm
  5113 00001C56 DAE4                    db 0da
  5114                                 ..@1684.trap_end:
  5115 00001C58 B885080000              mov eax, 2181
  5116 00001C5D E9741C0000              jmp .return
  5117                                 [section .data]
  5118                                 ..@1684.trapinfo: 
  5119                                 ..@1688.strucstart:
  5120 0000126C [0000000000000000]     dq ..@1684.trap
  5121 00001274 [0000000000000000]     dq ..@1684.resume
  5122 0000127C 06                     db 0x06
  5123 0000127D 02                     db (..@1684.trap_end - ..@1684.trap)
  5124 0000127E 00<rept>               times TRAPINFO_size-($-..@1688.strucstart) db 0
  5125                                 [section .text]
  5126                                 ..@1684.resume:
  5127                                 %line 2182+1 /home/se170/VirtualBox-4.3.28/src/VBox/VMM/testcase/tstX86-1A.asm
  5128                                 ..@1696.trap:
  5129                                 %line 2182+0 /home/se170/VirtualBox-4.3.28/src/VBox/VMM/testcase/tstX86-1A.asm
  5130 00001C62 DAE5                    db 0da
  5131                                 ..@1696.trap_end:
  5132 00001C64 B886080000              mov eax, 2182
  5133 00001C69 E9681C0000              jmp .return
  5134                                 [section .data]
  5135                                 ..@1696.trapinfo: 
  5136                                 ..@1700.strucstart:
  5137 0000128C [0000000000000000]     dq ..@1696.trap
  5138 00001294 [0000000000000000]     dq ..@1696.resume
  5139 0000129C 06                     db 0x06
  5140 0000129D 02                     db (..@1696.trap_end - ..@1696.trap)
  5141 0000129E 00<rept>               times TRAPINFO_size-($-..@1700.strucstart) db 0
  5142                                 [section .text]
  5143                                 ..@1696.resume:
  5144                                 %line 2183+1 /home/se170/VirtualBox-4.3.28/src/VBox/VMM/testcase/tstX86-1A.asm
  5145                                 ..@1708.trap:
  5146                                 %line 2183+0 /home/se170/VirtualBox-4.3.28/src/VBox/VMM/testcase/tstX86-1A.asm
  5147 00001C6E DAE6                    db 0da
  5148                                 ..@1708.trap_end:
  5149 00001C70 B887080000              mov eax, 2183
  5150 00001C75 E95C1C0000              jmp .return
  5151                                 [section .data]
  5152                                 ..@1708.trapinfo: 
  5153                                 ..@1712.strucstart:
  5154 000012AC [0000000000000000]     dq ..@1708.trap
  5155 000012B4 [0000000000000000]     dq ..@1708.resume
  5156 000012BC 06                     db 0x06
  5157 000012BD 02                     db (..@1708.trap_end - ..@1708.trap)
  5158 000012BE 00<rept>               times TRAPINFO_size-($-..@1712.strucstart) db 0
  5159                                 [section .text]
  5160                                 ..@1708.resume:
  5161                                 %line 2184+1 /home/se170/VirtualBox-4.3.28/src/VBox/VMM/testcase/tstX86-1A.asm
  5162                                 ..@1720.trap:
  5163                                 %line 2184+0 /home/se170/VirtualBox-4.3.28/src/VBox/VMM/testcase/tstX86-1A.asm
  5164 00001C7A DAE7                    db 0da
  5165                                 ..@1720.trap_end:
  5166 00001C7C B888080000              mov eax, 2184
  5167 00001C81 E9501C0000              jmp .return
  5168                                 [section .data]
  5169                                 ..@1720.trapinfo: 
  5170                                 ..@1724.strucstart:
  5171 000012CC [0000000000000000]     dq ..@1720.trap
  5172 000012D4 [0000000000000000]     dq ..@1720.resume
  5173 000012DC 06                     db 0x06
  5174 000012DD 02                     db (..@1720.trap_end - ..@1720.trap)
  5175 000012DE 00<rept>               times TRAPINFO_size-($-..@1724.strucstart) db 0
  5176                                 [section .text]
  5177                                 ..@1720.resume:
  5178                                 %line 2185+1 /home/se170/VirtualBox-4.3.28/src/VBox/VMM/testcase/tstX86-1A.asm
  5179                                 ..@1732.trap:
  5180                                 %line 2185+0 /home/se170/VirtualBox-4.3.28/src/VBox/VMM/testcase/tstX86-1A.asm
  5181 00001C86 DAE8                    db 0da
  5182                                 ..@1732.trap_end:
  5183 00001C88 B889080000              mov eax, 2185
  5184 00001C8D E9441C0000              jmp .return
  5185                                 [section .data]
  5186                                 ..@1732.trapinfo: 
  5187                                 ..@1736.strucstart:
  5188 000012EC [0000000000000000]     dq ..@1732.trap
  5189 000012F4 [0000000000000000]     dq ..@1732.resume
  5190 000012FC 06                     db 0x06
  5191 000012FD 02                     db (..@1732.trap_end - ..@1732.trap)
  5192 000012FE 00<rept>               times TRAPINFO_size-($-..@1736.strucstart) db 0
  5193                                 [section .text]
  5194                                 ..@1732.resume:
  5195                                 %line 2186+1 /home/se170/VirtualBox-4.3.28/src/VBox/VMM/testcase/tstX86-1A.asm
  5196                                 ..@1744.trap:
  5197                                 %line 2186+0 /home/se170/VirtualBox-4.3.28/src/VBox/VMM/testcase/tstX86-1A.asm
  5198 00001C92 DAEA                    db 0da
  5199                                 ..@1744.trap_end:
  5200 00001C94 B88A080000              mov eax, 2186
  5201 00001C99 E9381C0000              jmp .return
  5202                                 [section .data]
  5203                                 ..@1744.trapinfo: 
  5204                                 ..@1748.strucstart:
  5205 0000130C [0000000000000000]     dq ..@1744.trap
  5206 00001314 [0000000000000000]     dq ..@1744.resume
  5207 0000131C 06                     db 0x06
  5208 0000131D 02                     db (..@1744.trap_end - ..@1744.trap)
  5209 0000131E 00<rept>               times TRAPINFO_size-($-..@1748.strucstart) db 0
  5210                                 [section .text]
  5211                                 ..@1744.resume:
  5212                                 %line 2187+1 /home/se170/VirtualBox-4.3.28/src/VBox/VMM/testcase/tstX86-1A.asm
  5213                                 ..@1756.trap:
  5214                                 %line 2187+0 /home/se170/VirtualBox-4.3.28/src/VBox/VMM/testcase/tstX86-1A.asm
  5215 00001C9E DAEB                    db 0da
  5216                                 ..@1756.trap_end:
  5217 00001CA0 B88B080000              mov eax, 2187
  5218 00001CA5 E92C1C0000              jmp .return
  5219                                 [section .data]
  5220                                 ..@1756.trapinfo: 
  5221                                 ..@1760.strucstart:
  5222 0000132C [0000000000000000]     dq ..@1756.trap
  5223 00001334 [0000000000000000]     dq ..@1756.resume
  5224 0000133C 06                     db 0x06
  5225 0000133D 02                     db (..@1756.trap_end - ..@1756.trap)
  5226 0000133E 00<rept>               times TRAPINFO_size-($-..@1760.strucstart) db 0
  5227                                 [section .text]
  5228                                 ..@1756.resume:
  5229                                 %line 2188+1 /home/se170/VirtualBox-4.3.28/src/VBox/VMM/testcase/tstX86-1A.asm
  5230                                 ..@1768.trap:
  5231                                 %line 2188+0 /home/se170/VirtualBox-4.3.28/src/VBox/VMM/testcase/tstX86-1A.asm
  5232 00001CAA DAEC                    db 0da
  5233                                 ..@1768.trap_end:
  5234 00001CAC B88C080000              mov eax, 2188
  5235 00001CB1 E9201C0000              jmp .return
  5236                                 [section .data]
  5237                                 ..@1768.trapinfo: 
  5238                                 ..@1772.strucstart:
  5239 0000134C [0000000000000000]     dq ..@1768.trap
  5240 00001354 [0000000000000000]     dq ..@1768.resume
  5241 0000135C 06                     db 0x06
  5242 0000135D 02                     db (..@1768.trap_end - ..@1768.trap)
  5243 0000135E 00<rept>               times TRAPINFO_size-($-..@1772.strucstart) db 0
  5244                                 [section .text]
  5245                                 ..@1768.resume:
  5246                                 %line 2189+1 /home/se170/VirtualBox-4.3.28/src/VBox/VMM/testcase/tstX86-1A.asm
  5247                                 ..@1780.trap:
  5248                                 %line 2189+0 /home/se170/VirtualBox-4.3.28/src/VBox/VMM/testcase/tstX86-1A.asm
  5249 00001CB6 DAED                    db 0da
  5250                                 ..@1780.trap_end:
  5251 00001CB8 B88D080000              mov eax, 2189
  5252 00001CBD E9141C0000              jmp .return
  5253                                 [section .data]
  5254                                 ..@1780.trapinfo: 
  5255                                 ..@1784.strucstart:
  5256 0000136C [0000000000000000]     dq ..@1780.trap
  5257 00001374 [0000000000000000]     dq ..@1780.resume
  5258 0000137C 06                     db 0x06
  5259 0000137D 02                     db (..@1780.trap_end - ..@1780.trap)
  5260 0000137E 00<rept>               times TRAPINFO_size-($-..@1784.strucstart) db 0
  5261                                 [section .text]
  5262                                 ..@1780.resume:
  5263                                 %line 2190+1 /home/se170/VirtualBox-4.3.28/src/VBox/VMM/testcase/tstX86-1A.asm
  5264                                 ..@1792.trap:
  5265                                 %line 2190+0 /home/se170/VirtualBox-4.3.28/src/VBox/VMM/testcase/tstX86-1A.asm
  5266 00001CC2 DAEE                    db 0da
  5267                                 ..@1792.trap_end:
  5268 00001CC4 B88E080000              mov eax, 2190
  5269 00001CC9 E9081C0000              jmp .return
  5270                                 [section .data]
  5271                                 ..@1792.trapinfo: 
  5272                                 ..@1796.strucstart:
  5273 0000138C [0000000000000000]     dq ..@1792.trap
  5274 00001394 [0000000000000000]     dq ..@1792.resume
  5275 0000139C 06                     db 0x06
  5276 0000139D 02                     db (..@1792.trap_end - ..@1792.trap)
  5277 0000139E 00<rept>               times TRAPINFO_size-($-..@1796.strucstart) db 0
  5278                                 [section .text]
  5279                                 ..@1792.resume:
  5280                                 %line 2191+1 /home/se170/VirtualBox-4.3.28/src/VBox/VMM/testcase/tstX86-1A.asm
  5281                                 ..@1804.trap:
  5282                                 %line 2191+0 /home/se170/VirtualBox-4.3.28/src/VBox/VMM/testcase/tstX86-1A.asm
  5283 00001CCE DAEF                    db 0da
  5284                                 ..@1804.trap_end:
  5285 00001CD0 B88F080000              mov eax, 2191
  5286 00001CD5 E9FC1B0000              jmp .return
  5287                                 [section .data]
  5288                                 ..@1804.trapinfo: 
  5289                                 ..@1808.strucstart:
  5290 000013AC [0000000000000000]     dq ..@1804.trap
  5291 000013B4 [0000000000000000]     dq ..@1804.resume
  5292 000013BC 06                     db 0x06
  5293 000013BD 02                     db (..@1804.trap_end - ..@1804.trap)
  5294 000013BE 00<rept>               times TRAPINFO_size-($-..@1808.strucstart) db 0
  5295                                 [section .text]
  5296                                 ..@1804.resume:
  5297                                 %line 2192+1 /home/se170/VirtualBox-4.3.28/src/VBox/VMM/testcase/tstX86-1A.asm
  5298                                 ..@1816.trap:
  5299                                 %line 2192+0 /home/se170/VirtualBox-4.3.28/src/VBox/VMM/testcase/tstX86-1A.asm
  5300 00001CDA DAF0                    db 0da
  5301                                 ..@1816.trap_end:
  5302 00001CDC B890080000              mov eax, 2192
  5303 00001CE1 E9F01B0000              jmp .return
  5304                                 [section .data]
  5305                                 ..@1816.trapinfo: 
  5306                                 ..@1820.strucstart:
  5307 000013CC [0000000000000000]     dq ..@1816.trap
  5308 000013D4 [0000000000000000]     dq ..@1816.resume
  5309 000013DC 06                     db 0x06
  5310 000013DD 02                     db (..@1816.trap_end - ..@1816.trap)
  5311 000013DE 00<rept>               times TRAPINFO_size-($-..@1820.strucstart) db 0
  5312                                 [section .text]
  5313                                 ..@1816.resume:
  5314                                 %line 2193+1 /home/se170/VirtualBox-4.3.28/src/VBox/VMM/testcase/tstX86-1A.asm
  5315                                 ..@1828.trap:
  5316                                 %line 2193+0 /home/se170/VirtualBox-4.3.28/src/VBox/VMM/testcase/tstX86-1A.asm
  5317 00001CE6 DAF1                    db 0da
  5318                                 ..@1828.trap_end:
  5319 00001CE8 B891080000              mov eax, 2193
  5320 00001CED E9E41B0000              jmp .return
  5321                                 [section .data]
  5322                                 ..@1828.trapinfo: 
  5323                                 ..@1832.strucstart:
  5324 000013EC [0000000000000000]     dq ..@1828.trap
  5325 000013F4 [0000000000000000]     dq ..@1828.resume
  5326 000013FC 06                     db 0x06
  5327 000013FD 02                     db (..@1828.trap_end - ..@1828.trap)
  5328 000013FE 00<rept>               times TRAPINFO_size-($-..@1832.strucstart) db 0
  5329                                 [section .text]
  5330                                 ..@1828.resume:
  5331                                 %line 2194+1 /home/se170/VirtualBox-4.3.28/src/VBox/VMM/testcase/tstX86-1A.asm
  5332                                 ..@1840.trap:
  5333                                 %line 2194+0 /home/se170/VirtualBox-4.3.28/src/VBox/VMM/testcase/tstX86-1A.asm
  5334 00001CF2 DAF2                    db 0da
  5335                                 ..@1840.trap_end:
  5336 00001CF4 B892080000              mov eax, 2194
  5337 00001CF9 E9D81B0000              jmp .return
  5338                                 [section .data]
  5339                                 ..@1840.trapinfo: 
  5340                                 ..@1844.strucstart:
  5341 0000140C [0000000000000000]     dq ..@1840.trap
  5342 00001414 [0000000000000000]     dq ..@1840.resume
  5343 0000141C 06                     db 0x06
  5344 0000141D 02                     db (..@1840.trap_end - ..@1840.trap)
  5345 0000141E 00<rept>               times TRAPINFO_size-($-..@1844.strucstart) db 0
  5346                                 [section .text]
  5347                                 ..@1840.resume:
  5348                                 %line 2195+1 /home/se170/VirtualBox-4.3.28/src/VBox/VMM/testcase/tstX86-1A.asm
  5349                                 ..@1852.trap:
  5350                                 %line 2195+0 /home/se170/VirtualBox-4.3.28/src/VBox/VMM/testcase/tstX86-1A.asm
  5351 00001CFE DAF3                    db 0da
  5352                                 ..@1852.trap_end:
  5353 00001D00 B893080000              mov eax, 2195
  5354 00001D05 E9CC1B0000              jmp .return
  5355                                 [section .data]
  5356                                 ..@1852.trapinfo: 
  5357                                 ..@1856.strucstart:
  5358 0000142C [0000000000000000]     dq ..@1852.trap
  5359 00001434 [0000000000000000]     dq ..@1852.resume
  5360 0000143C 06                     db 0x06
  5361 0000143D 02                     db (..@1852.trap_end - ..@1852.trap)
  5362 0000143E 00<rept>               times TRAPINFO_size-($-..@1856.strucstart) db 0
  5363                                 [section .text]
  5364                                 ..@1852.resume:
  5365                                 %line 2196+1 /home/se170/VirtualBox-4.3.28/src/VBox/VMM/testcase/tstX86-1A.asm
  5366                                 ..@1864.trap:
  5367                                 %line 2196+0 /home/se170/VirtualBox-4.3.28/src/VBox/VMM/testcase/tstX86-1A.asm
  5368 00001D0A DAF4                    db 0da
  5369                                 ..@1864.trap_end:
  5370 00001D0C B894080000              mov eax, 2196
  5371 00001D11 E9C01B0000              jmp .return
  5372                                 [section .data]
  5373                                 ..@1864.trapinfo: 
  5374                                 ..@1868.strucstart:
  5375 0000144C [0000000000000000]     dq ..@1864.trap
  5376 00001454 [0000000000000000]     dq ..@1864.resume
  5377 0000145C 06                     db 0x06
  5378 0000145D 02                     db (..@1864.trap_end - ..@1864.trap)
  5379 0000145E 00<rept>               times TRAPINFO_size-($-..@1868.strucstart) db 0
  5380                                 [section .text]
  5381                                 ..@1864.resume:
  5382                                 %line 2197+1 /home/se170/VirtualBox-4.3.28/src/VBox/VMM/testcase/tstX86-1A.asm
  5383                                 ..@1876.trap:
  5384                                 %line 2197+0 /home/se170/VirtualBox-4.3.28/src/VBox/VMM/testcase/tstX86-1A.asm
  5385 00001D16 DAF5                    db 0da
  5386                                 ..@1876.trap_end:
  5387 00001D18 B895080000              mov eax, 2197
  5388 00001D1D E9B41B0000              jmp .return
  5389                                 [section .data]
  5390                                 ..@1876.trapinfo: 
  5391                                 ..@1880.strucstart:
  5392 0000146C [0000000000000000]     dq ..@1876.trap
  5393 00001474 [0000000000000000]     dq ..@1876.resume
  5394 0000147C 06                     db 0x06
  5395 0000147D 02                     db (..@1876.trap_end - ..@1876.trap)
  5396 0000147E 00<rept>               times TRAPINFO_size-($-..@1880.strucstart) db 0
  5397                                 [section .text]
  5398                                 ..@1876.resume:
  5399                                 %line 2198+1 /home/se170/VirtualBox-4.3.28/src/VBox/VMM/testcase/tstX86-1A.asm
  5400                                 ..@1888.trap:
  5401                                 %line 2198+0 /home/se170/VirtualBox-4.3.28/src/VBox/VMM/testcase/tstX86-1A.asm
  5402 00001D22 DAF6                    db 0da
  5403                                 ..@1888.trap_end:
  5404 00001D24 B896080000              mov eax, 2198
  5405 00001D29 E9A81B0000              jmp .return
  5406                                 [section .data]
  5407                                 ..@1888.trapinfo: 
  5408                                 ..@1892.strucstart:
  5409 0000148C [0000000000000000]     dq ..@1888.trap
  5410 00001494 [0000000000000000]     dq ..@1888.resume
  5411 0000149C 06                     db 0x06
  5412 0000149D 02                     db (..@1888.trap_end - ..@1888.trap)
  5413 0000149E 00<rept>               times TRAPINFO_size-($-..@1892.strucstart) db 0
  5414                                 [section .text]
  5415                                 ..@1888.resume:
  5416                                 %line 2199+1 /home/se170/VirtualBox-4.3.28/src/VBox/VMM/testcase/tstX86-1A.asm
  5417                                 ..@1900.trap:
  5418                                 %line 2199+0 /home/se170/VirtualBox-4.3.28/src/VBox/VMM/testcase/tstX86-1A.asm
  5419 00001D2E DAF7                    db 0da
  5420                                 ..@1900.trap_end:
  5421 00001D30 B897080000              mov eax, 2199
  5422 00001D35 E99C1B0000              jmp .return
  5423                                 [section .data]
  5424                                 ..@1900.trapinfo: 
  5425                                 ..@1904.strucstart:
  5426 000014AC [0000000000000000]     dq ..@1900.trap
  5427 000014B4 [0000000000000000]     dq ..@1900.resume
  5428 000014BC 06                     db 0x06
  5429 000014BD 02                     db (..@1900.trap_end - ..@1900.trap)
  5430 000014BE 00<rept>               times TRAPINFO_size-($-..@1904.strucstart) db 0
  5431                                 [section .text]
  5432                                 ..@1900.resume:
  5433                                 %line 2200+1 /home/se170/VirtualBox-4.3.28/src/VBox/VMM/testcase/tstX86-1A.asm
  5434                                 ..@1912.trap:
  5435                                 %line 2200+0 /home/se170/VirtualBox-4.3.28/src/VBox/VMM/testcase/tstX86-1A.asm
  5436 00001D3A DAF8                    db 0da
  5437                                 ..@1912.trap_end:
  5438 00001D3C B898080000              mov eax, 2200
  5439 00001D41 E9901B0000              jmp .return
  5440                                 [section .data]
  5441                                 ..@1912.trapinfo: 
  5442                                 ..@1916.strucstart:
  5443 000014CC [0000000000000000]     dq ..@1912.trap
  5444 000014D4 [0000000000000000]     dq ..@1912.resume
  5445 000014DC 06                     db 0x06
  5446 000014DD 02                     db (..@1912.trap_end - ..@1912.trap)
  5447 000014DE 00<rept>               times TRAPINFO_size-($-..@1916.strucstart) db 0
  5448                                 [section .text]
  5449                                 ..@1912.resume:
  5450                                 %line 2201+1 /home/se170/VirtualBox-4.3.28/src/VBox/VMM/testcase/tstX86-1A.asm
  5451                                 ..@1924.trap:
  5452                                 %line 2201+0 /home/se170/VirtualBox-4.3.28/src/VBox/VMM/testcase/tstX86-1A.asm
  5453 00001D46 DAF9                    db 0da
  5454                                 ..@1924.trap_end:
  5455 00001D48 B899080000              mov eax, 2201
  5456 00001D4D E9841B0000              jmp .return
  5457                                 [section .data]
  5458                                 ..@1924.trapinfo: 
  5459                                 ..@1928.strucstart:
  5460 000014EC [0000000000000000]     dq ..@1924.trap
  5461 000014F4 [0000000000000000]     dq ..@1924.resume
  5462 000014FC 06                     db 0x06
  5463 000014FD 02                     db (..@1924.trap_end - ..@1924.trap)
  5464 000014FE 00<rept>               times TRAPINFO_size-($-..@1928.strucstart) db 0
  5465                                 [section .text]
  5466                                 ..@1924.resume:
  5467                                 %line 2202+1 /home/se170/VirtualBox-4.3.28/src/VBox/VMM/testcase/tstX86-1A.asm
  5468                                 ..@1936.trap:
  5469                                 %line 2202+0 /home/se170/VirtualBox-4.3.28/src/VBox/VMM/testcase/tstX86-1A.asm
  5470 00001D52 DAFA                    db 0da
  5471                                 ..@1936.trap_end:
  5472 00001D54 B89A080000              mov eax, 2202
  5473 00001D59 E9781B0000              jmp .return
  5474                                 [section .data]
  5475                                 ..@1936.trapinfo: 
  5476                                 ..@1940.strucstart:
  5477 0000150C [0000000000000000]     dq ..@1936.trap
  5478 00001514 [0000000000000000]     dq ..@1936.resume
  5479 0000151C 06                     db 0x06
  5480 0000151D 02                     db (..@1936.trap_end - ..@1936.trap)
  5481 0000151E 00<rept>               times TRAPINFO_size-($-..@1940.strucstart) db 0
  5482                                 [section .text]
  5483                                 ..@1936.resume:
  5484                                 %line 2203+1 /home/se170/VirtualBox-4.3.28/src/VBox/VMM/testcase/tstX86-1A.asm
  5485                                 ..@1948.trap:
  5486                                 %line 2203+0 /home/se170/VirtualBox-4.3.28/src/VBox/VMM/testcase/tstX86-1A.asm
  5487 00001D5E DAFB                    db 0da
  5488                                 ..@1948.trap_end:
  5489 00001D60 B89B080000              mov eax, 2203
  5490 00001D65 E96C1B0000              jmp .return
  5491                                 [section .data]
  5492                                 ..@1948.trapinfo: 
  5493                                 ..@1952.strucstart:
  5494 0000152C [0000000000000000]     dq ..@1948.trap
  5495 00001534 [0000000000000000]     dq ..@1948.resume
  5496 0000153C 06                     db 0x06
  5497 0000153D 02                     db (..@1948.trap_end - ..@1948.trap)
  5498 0000153E 00<rept>               times TRAPINFO_size-($-..@1952.strucstart) db 0
  5499                                 [section .text]
  5500                                 ..@1948.resume:
  5501                                 %line 2204+1 /home/se170/VirtualBox-4.3.28/src/VBox/VMM/testcase/tstX86-1A.asm
  5502                                 ..@1960.trap:
  5503                                 %line 2204+0 /home/se170/VirtualBox-4.3.28/src/VBox/VMM/testcase/tstX86-1A.asm
  5504 00001D6A DAFC                    db 0da
  5505                                 ..@1960.trap_end:
  5506 00001D6C B89C080000              mov eax, 2204
  5507 00001D71 E9601B0000              jmp .return
  5508                                 [section .data]
  5509                                 ..@1960.trapinfo: 
  5510                                 ..@1964.strucstart:
  5511 0000154C [0000000000000000]     dq ..@1960.trap
  5512 00001554 [0000000000000000]     dq ..@1960.resume
  5513 0000155C 06                     db 0x06
  5514 0000155D 02                     db (..@1960.trap_end - ..@1960.trap)
  5515 0000155E 00<rept>               times TRAPINFO_size-($-..@1964.strucstart) db 0
  5516                                 [section .text]
  5517                                 ..@1960.resume:
  5518                                 %line 2205+1 /home/se170/VirtualBox-4.3.28/src/VBox/VMM/testcase/tstX86-1A.asm
  5519                                 ..@1972.trap:
  5520                                 %line 2205+0 /home/se170/VirtualBox-4.3.28/src/VBox/VMM/testcase/tstX86-1A.asm
  5521 00001D76 DAFD                    db 0da
  5522                                 ..@1972.trap_end:
  5523 00001D78 B89D080000              mov eax, 2205
  5524 00001D7D E9541B0000              jmp .return
  5525                                 [section .data]
  5526                                 ..@1972.trapinfo: 
  5527                                 ..@1976.strucstart:
  5528 0000156C [0000000000000000]     dq ..@1972.trap
  5529 00001574 [0000000000000000]     dq ..@1972.resume
  5530 0000157C 06                     db 0x06
  5531 0000157D 02                     db (..@1972.trap_end - ..@1972.trap)
  5532 0000157E 00<rept>               times TRAPINFO_size-($-..@1976.strucstart) db 0
  5533                                 [section .text]
  5534                                 ..@1972.resume:
  5535                                 %line 2206+1 /home/se170/VirtualBox-4.3.28/src/VBox/VMM/testcase/tstX86-1A.asm
  5536                                 ..@1984.trap:
  5537                                 %line 2206+0 /home/se170/VirtualBox-4.3.28/src/VBox/VMM/testcase/tstX86-1A.asm
  5538 00001D82 DAFE                    db 0da
  5539                                 ..@1984.trap_end:
  5540 00001D84 B89E080000              mov eax, 2206
  5541 00001D89 E9481B0000              jmp .return
  5542                                 [section .data]
  5543                                 ..@1984.trapinfo: 
  5544                                 ..@1988.strucstart:
  5545 0000158C [0000000000000000]     dq ..@1984.trap
  5546 00001594 [0000000000000000]     dq ..@1984.resume
  5547 0000159C 06                     db 0x06
  5548 0000159D 02                     db (..@1984.trap_end - ..@1984.trap)
  5549 0000159E 00<rept>               times TRAPINFO_size-($-..@1988.strucstart) db 0
  5550                                 [section .text]
  5551                                 ..@1984.resume:
  5552                                 %line 2207+1 /home/se170/VirtualBox-4.3.28/src/VBox/VMM/testcase/tstX86-1A.asm
  5553                                 ..@1996.trap:
  5554                                 %line 2207+0 /home/se170/VirtualBox-4.3.28/src/VBox/VMM/testcase/tstX86-1A.asm
  5555 00001D8E DAFF                    db 0da
  5556                                 ..@1996.trap_end:
  5557 00001D90 B89F080000              mov eax, 2207
  5558 00001D95 E93C1B0000              jmp .return
  5559                                 [section .data]
  5560                                 ..@1996.trapinfo: 
  5561                                 ..@2000.strucstart:
  5562 000015AC [0000000000000000]     dq ..@1996.trap
  5563 000015B4 [0000000000000000]     dq ..@1996.resume
  5564 000015BC 06                     db 0x06
  5565 000015BD 02                     db (..@1996.trap_end - ..@1996.trap)
  5566 000015BE 00<rept>               times TRAPINFO_size-($-..@2000.strucstart) db 0
  5567                                 [section .text]
  5568                                 ..@1996.resume:
  5569                                 %line 2208+1 /home/se170/VirtualBox-4.3.28/src/VBox/VMM/testcase/tstX86-1A.asm
  5570                                 
  5571                                 
  5572 00001D9A DBE2                    fnclex
  5573                                 %line 2210+0 /home/se170/VirtualBox-4.3.28/src/VBox/VMM/testcase/tstX86-1A.asm
  5574 00001D9C E8E7F9FFFF              call SetFSW_C0_thru_C3
  5575                                 
  5576 00001DA1 55                      push rbp
  5577 00001DA2 4889E5                  mov rbp, rsp
  5578 00001DA5 4881EC00040000          sub rsp, 1024
  5579 00001DAC 4883E4F0                and rsp, ~0f
  5580 00001DB0 E84CF8FFFF              call SaveFPUAndGRegsToStack
  5581 00001DB5 DBE0                    db 0db
  5582 00001DB7 E862F9FFFF              call CompareFPUAndGRegsOnStackIgnoreOpAndIp
  5583 00001DBC C9                      leave
  5584                                 
  5585 00001DBD 7408                    jz ..@2008.ok
  5586 00001DBF 05A2080000              add eax, 2210
  5587 00001DC4 E90D1B0000              jmp .return
  5588                                 ..@2008.ok:
  5589                                 %line 2211+1 /home/se170/VirtualBox-4.3.28/src/VBox/VMM/testcase/tstX86-1A.asm
  5590 00001DC9 DBE2                    fnclex
  5591                                 %line 2211+0 /home/se170/VirtualBox-4.3.28/src/VBox/VMM/testcase/tstX86-1A.asm
  5592 00001DCB E8B8F9FFFF              call SetFSW_C0_thru_C3
  5593                                 
  5594 00001DD0 55                      push rbp
  5595 00001DD1 4889E5                  mov rbp, rsp
  5596 00001DD4 4881EC00040000          sub rsp, 1024
  5597 00001DDB 4883E4F0                and rsp, ~0f
  5598 00001DDF E81DF8FFFF              call SaveFPUAndGRegsToStack
  5599 00001DE4 DBE1                    db 0db
  5600 00001DE6 E833F9FFFF              call CompareFPUAndGRegsOnStackIgnoreOpAndIp
  5601 00001DEB C9                      leave
  5602                                 
  5603 00001DEC 7408                    jz ..@2009.ok
  5604 00001DEE 05A3080000              add eax, 2211
  5605 00001DF3 E9DE1A0000              jmp .return
  5606                                 ..@2009.ok:
  5607                                 %line 2212+1 /home/se170/VirtualBox-4.3.28/src/VBox/VMM/testcase/tstX86-1A.asm
  5608 00001DF8 DBE2                    fnclex
  5609                                 %line 2212+0 /home/se170/VirtualBox-4.3.28/src/VBox/VMM/testcase/tstX86-1A.asm
  5610 00001DFA E889F9FFFF              call SetFSW_C0_thru_C3
  5611                                 
  5612 00001DFF 55                      push rbp
  5613 00001E00 4889E5                  mov rbp, rsp
  5614 00001E03 4881EC00040000          sub rsp, 1024
  5615 00001E0A 4883E4F0                and rsp, ~0f
  5616 00001E0E E8EEF7FFFF              call SaveFPUAndGRegsToStack
  5617 00001E13 DBE4                    db 0db
  5618 00001E15 E804F9FFFF              call CompareFPUAndGRegsOnStackIgnoreOpAndIp
  5619 00001E1A C9                      leave
  5620                                 
  5621 00001E1B 7408                    jz ..@2010.ok
  5622 00001E1D 05A4080000              add eax, 2212
  5623 00001E22 E9AF1A0000              jmp .return
  5624                                 ..@2010.ok:
  5625                                 %line 2213+1 /home/se170/VirtualBox-4.3.28/src/VBox/VMM/testcase/tstX86-1A.asm
  5626                                 ..@2011.trap:
  5627                                 %line 2213+0 /home/se170/VirtualBox-4.3.28/src/VBox/VMM/testcase/tstX86-1A.asm
  5628 00001E27 DBE5                    db 0db
  5629                                 ..@2011.trap_end:
  5630 00001E29 B8A5080000              mov eax, 2213
  5631 00001E2E E9A31A0000              jmp .return
  5632                                 [section .data]
  5633                                 ..@2011.trapinfo: 
  5634                                 ..@2015.strucstart:
  5635 000015CC [0000000000000000]     dq ..@2011.trap
  5636 000015D4 [0000000000000000]     dq ..@2011.resume
  5637 000015DC 06                     db 0x06
  5638 000015DD 02                     db (..@2011.trap_end - ..@2011.trap)
  5639 000015DE 00<rept>               times TRAPINFO_size-($-..@2015.strucstart) db 0
  5640                                 [section .text]
  5641                                 ..@2011.resume:
  5642                                 %line 2214+1 /home/se170/VirtualBox-4.3.28/src/VBox/VMM/testcase/tstX86-1A.asm
  5643                                 ..@2023.trap:
  5644                                 %line 2214+0 /home/se170/VirtualBox-4.3.28/src/VBox/VMM/testcase/tstX86-1A.asm
  5645 00001E33 DBE6                    db 0db
  5646                                 ..@2023.trap_end:
  5647 00001E35 B8A6080000              mov eax, 2214
  5648 00001E3A E9971A0000              jmp .return
  5649                                 [section .data]
  5650                                 ..@2023.trapinfo: 
  5651                                 ..@2027.strucstart:
  5652 000015EC [0000000000000000]     dq ..@2023.trap
  5653 000015F4 [0000000000000000]     dq ..@2023.resume
  5654 000015FC 06                     db 0x06
  5655 000015FD 02                     db (..@2023.trap_end - ..@2023.trap)
  5656 000015FE 00<rept>               times TRAPINFO_size-($-..@2027.strucstart) db 0
  5657                                 [section .text]
  5658                                 ..@2023.resume:
  5659                                 %line 2215+1 /home/se170/VirtualBox-4.3.28/src/VBox/VMM/testcase/tstX86-1A.asm
  5660                                 ..@2035.trap:
  5661                                 %line 2215+0 /home/se170/VirtualBox-4.3.28/src/VBox/VMM/testcase/tstX86-1A.asm
  5662 00001E3F DBE7                    db 0db
  5663                                 ..@2035.trap_end:
  5664 00001E41 B8A7080000              mov eax, 2215
  5665 00001E46 E98B1A0000              jmp .return
  5666                                 [section .data]
  5667                                 ..@2035.trapinfo: 
  5668                                 ..@2039.strucstart:
  5669 0000160C [0000000000000000]     dq ..@2035.trap
  5670 00001614 [0000000000000000]     dq ..@2035.resume
  5671 0000161C 06                     db 0x06
  5672 0000161D 02                     db (..@2035.trap_end - ..@2035.trap)
  5673 0000161E 00<rept>               times TRAPINFO_size-($-..@2039.strucstart) db 0
  5674                                 [section .text]
  5675                                 ..@2035.resume:
  5676                                 %line 2216+1 /home/se170/VirtualBox-4.3.28/src/VBox/VMM/testcase/tstX86-1A.asm
  5677                                 ..@2047.trap:
  5678                                 %line 2216+0 /home/se170/VirtualBox-4.3.28/src/VBox/VMM/testcase/tstX86-1A.asm
  5679 00001E4B DBF8                    db 0db
  5680                                 ..@2047.trap_end:
  5681 00001E4D B8A8080000              mov eax, 2216
  5682 00001E52 E97F1A0000              jmp .return
  5683                                 [section .data]
  5684                                 ..@2047.trapinfo: 
  5685                                 ..@2051.strucstart:
  5686 0000162C [0000000000000000]     dq ..@2047.trap
  5687 00001634 [0000000000000000]     dq ..@2047.resume
  5688 0000163C 06                     db 0x06
  5689 0000163D 02                     db (..@2047.trap_end - ..@2047.trap)
  5690 0000163E 00<rept>               times TRAPINFO_size-($-..@2051.strucstart) db 0
  5691                                 [section .text]
  5692                                 ..@2047.resume:
  5693                                 %line 2217+1 /home/se170/VirtualBox-4.3.28/src/VBox/VMM/testcase/tstX86-1A.asm
  5694                                 ..@2059.trap:
  5695                                 %line 2217+0 /home/se170/VirtualBox-4.3.28/src/VBox/VMM/testcase/tstX86-1A.asm
  5696 00001E57 DBF9                    db 0db
  5697                                 ..@2059.trap_end:
  5698 00001E59 B8A9080000              mov eax, 2217
  5699 00001E5E E9731A0000              jmp .return
  5700                                 [section .data]
  5701                                 ..@2059.trapinfo: 
  5702                                 ..@2063.strucstart:
  5703 0000164C [0000000000000000]     dq ..@2059.trap
  5704 00001654 [0000000000000000]     dq ..@2059.resume
  5705 0000165C 06                     db 0x06
  5706 0000165D 02                     db (..@2059.trap_end - ..@2059.trap)
  5707 0000165E 00<rept>               times TRAPINFO_size-($-..@2063.strucstart) db 0
  5708                                 [section .text]
  5709                                 ..@2059.resume:
  5710                                 %line 2218+1 /home/se170/VirtualBox-4.3.28/src/VBox/VMM/testcase/tstX86-1A.asm
  5711                                 ..@2071.trap:
  5712                                 %line 2218+0 /home/se170/VirtualBox-4.3.28/src/VBox/VMM/testcase/tstX86-1A.asm
  5713 00001E63 DBFA                    db 0db
  5714                                 ..@2071.trap_end:
  5715 00001E65 B8AA080000              mov eax, 2218
  5716 00001E6A E9671A0000              jmp .return
  5717                                 [section .data]
  5718                                 ..@2071.trapinfo: 
  5719                                 ..@2075.strucstart:
  5720 0000166C [0000000000000000]     dq ..@2071.trap
  5721 00001674 [0000000000000000]     dq ..@2071.resume
  5722 0000167C 06                     db 0x06
  5723 0000167D 02                     db (..@2071.trap_end - ..@2071.trap)
  5724 0000167E 00<rept>               times TRAPINFO_size-($-..@2075.strucstart) db 0
  5725                                 [section .text]
  5726                                 ..@2071.resume:
  5727                                 %line 2219+1 /home/se170/VirtualBox-4.3.28/src/VBox/VMM/testcase/tstX86-1A.asm
  5728                                 ..@2083.trap:
  5729                                 %line 2219+0 /home/se170/VirtualBox-4.3.28/src/VBox/VMM/testcase/tstX86-1A.asm
  5730 00001E6F DBFB                    db 0db
  5731                                 ..@2083.trap_end:
  5732 00001E71 B8AB080000              mov eax, 2219
  5733 00001E76 E95B1A0000              jmp .return
  5734                                 [section .data]
  5735                                 ..@2083.trapinfo: 
  5736                                 ..@2087.strucstart:
  5737 0000168C [0000000000000000]     dq ..@2083.trap
  5738 00001694 [0000000000000000]     dq ..@2083.resume
  5739 0000169C 06                     db 0x06
  5740 0000169D 02                     db (..@2083.trap_end - ..@2083.trap)
  5741 0000169E 00<rept>               times TRAPINFO_size-($-..@2087.strucstart) db 0
  5742                                 [section .text]
  5743                                 ..@2083.resume:
  5744                                 %line 2220+1 /home/se170/VirtualBox-4.3.28/src/VBox/VMM/testcase/tstX86-1A.asm
  5745                                 ..@2095.trap:
  5746                                 %line 2220+0 /home/se170/VirtualBox-4.3.28/src/VBox/VMM/testcase/tstX86-1A.asm
  5747 00001E7B DBFC                    db 0db
  5748                                 ..@2095.trap_end:
  5749 00001E7D B8AC080000              mov eax, 2220
  5750 00001E82 E94F1A0000              jmp .return
  5751                                 [section .data]
  5752                                 ..@2095.trapinfo: 
  5753                                 ..@2099.strucstart:
  5754 000016AC [0000000000000000]     dq ..@2095.trap
  5755 000016B4 [0000000000000000]     dq ..@2095.resume
  5756 000016BC 06                     db 0x06
  5757 000016BD 02                     db (..@2095.trap_end - ..@2095.trap)
  5758 000016BE 00<rept>               times TRAPINFO_size-($-..@2099.strucstart) db 0
  5759                                 [section .text]
  5760                                 ..@2095.resume:
  5761                                 %line 2221+1 /home/se170/VirtualBox-4.3.28/src/VBox/VMM/testcase/tstX86-1A.asm
  5762                                 ..@2107.trap:
  5763                                 %line 2221+0 /home/se170/VirtualBox-4.3.28/src/VBox/VMM/testcase/tstX86-1A.asm
  5764 00001E87 DBFD                    db 0db
  5765                                 ..@2107.trap_end:
  5766 00001E89 B8AD080000              mov eax, 2221
  5767 00001E8E E9431A0000              jmp .return
  5768                                 [section .data]
  5769                                 ..@2107.trapinfo: 
  5770                                 ..@2111.strucstart:
  5771 000016CC [0000000000000000]     dq ..@2107.trap
  5772 000016D4 [0000000000000000]     dq ..@2107.resume
  5773 000016DC 06                     db 0x06
  5774 000016DD 02                     db (..@2107.trap_end - ..@2107.trap)
  5775 000016DE 00<rept>               times TRAPINFO_size-($-..@2111.strucstart) db 0
  5776                                 [section .text]
  5777                                 ..@2107.resume:
  5778                                 %line 2222+1 /home/se170/VirtualBox-4.3.28/src/VBox/VMM/testcase/tstX86-1A.asm
  5779                                 ..@2119.trap:
  5780                                 %line 2222+0 /home/se170/VirtualBox-4.3.28/src/VBox/VMM/testcase/tstX86-1A.asm
  5781 00001E93 DBFE                    db 0db
  5782                                 ..@2119.trap_end:
  5783 00001E95 B8AE080000              mov eax, 2222
  5784 00001E9A E9371A0000              jmp .return
  5785                                 [section .data]
  5786                                 ..@2119.trapinfo: 
  5787                                 ..@2123.strucstart:
  5788 000016EC [0000000000000000]     dq ..@2119.trap
  5789 000016F4 [0000000000000000]     dq ..@2119.resume
  5790 000016FC 06                     db 0x06
  5791 000016FD 02                     db (..@2119.trap_end - ..@2119.trap)
  5792 000016FE 00<rept>               times TRAPINFO_size-($-..@2123.strucstart) db 0
  5793                                 [section .text]
  5794                                 ..@2119.resume:
  5795                                 %line 2223+1 /home/se170/VirtualBox-4.3.28/src/VBox/VMM/testcase/tstX86-1A.asm
  5796                                 ..@2131.trap:
  5797                                 %line 2223+0 /home/se170/VirtualBox-4.3.28/src/VBox/VMM/testcase/tstX86-1A.asm
  5798 00001E9F DBFF                    db 0db
  5799                                 ..@2131.trap_end:
  5800 00001EA1 B8AF080000              mov eax, 2223
  5801 00001EA6 E92B1A0000              jmp .return
  5802                                 [section .data]
  5803                                 ..@2131.trapinfo: 
  5804                                 ..@2135.strucstart:
  5805 0000170C [0000000000000000]     dq ..@2131.trap
  5806 00001714 [0000000000000000]     dq ..@2131.resume
  5807 0000171C 06                     db 0x06
  5808 0000171D 02                     db (..@2131.trap_end - ..@2131.trap)
  5809 0000171E 00<rept>               times TRAPINFO_size-($-..@2135.strucstart) db 0
  5810                                 [section .text]
  5811                                 ..@2131.resume:
  5812                                 %line 2224+1 /home/se170/VirtualBox-4.3.28/src/VBox/VMM/testcase/tstX86-1A.asm
  5813                                 ..@2143.trap:
  5814                                 %line 2224+0 /home/se170/VirtualBox-4.3.28/src/VBox/VMM/testcase/tstX86-1A.asm
  5815 00001EAB DB20                    db 0db
  5816                                 ..@2143.trap_end:
  5817 00001EAD B8B0080000              mov eax, 2224
  5818 00001EB2 E91F1A0000              jmp .return
  5819                                 [section .data]
  5820                                 ..@2143.trapinfo: 
  5821                                 ..@2147.strucstart:
  5822 0000172C [0000000000000000]     dq ..@2143.trap
  5823 00001734 [0000000000000000]     dq ..@2143.resume
  5824 0000173C 06                     db 0x06
  5825 0000173D 02                     db (..@2143.trap_end - ..@2143.trap)
  5826 0000173E 00<rept>               times TRAPINFO_size-($-..@2147.strucstart) db 0
  5827                                 [section .text]
  5828                                 ..@2143.resume:
  5829                                 %line 2225+1 /home/se170/VirtualBox-4.3.28/src/VBox/VMM/testcase/tstX86-1A.asm
  5830                                 ..@2155.trap:
  5831                                 %line 2225+0 /home/se170/VirtualBox-4.3.28/src/VBox/VMM/testcase/tstX86-1A.asm
  5832 00001EB7 DB23                    db 0db
  5833                                 ..@2155.trap_end:
  5834 00001EB9 B8B1080000              mov eax, 2225
  5835 00001EBE E9131A0000              jmp .return
  5836                                 [section .data]
  5837                                 ..@2155.trapinfo: 
  5838                                 ..@2159.strucstart:
  5839 0000174C [0000000000000000]     dq ..@2155.trap
  5840 00001754 [0000000000000000]     dq ..@2155.resume
  5841 0000175C 06                     db 0x06
  5842 0000175D 02                     db (..@2155.trap_end - ..@2155.trap)
  5843 0000175E 00<rept>               times TRAPINFO_size-($-..@2159.strucstart) db 0
  5844                                 [section .text]
  5845                                 ..@2155.resume:
  5846                                 %line 2226+1 /home/se170/VirtualBox-4.3.28/src/VBox/VMM/testcase/tstX86-1A.asm
  5847                                 ..@2167.trap:
  5848                                 %line 2226+0 /home/se170/VirtualBox-4.3.28/src/VBox/VMM/testcase/tstX86-1A.asm
  5849 00001EC3 DB30                    db 0db
  5850                                 ..@2167.trap_end:
  5851 00001EC5 B8B2080000              mov eax, 2226
  5852 00001ECA E9071A0000              jmp .return
  5853                                 [section .data]
  5854                                 ..@2167.trapinfo: 
  5855                                 ..@2171.strucstart:
  5856 0000176C [0000000000000000]     dq ..@2167.trap
  5857 00001774 [0000000000000000]     dq ..@2167.resume
  5858 0000177C 06                     db 0x06
  5859 0000177D 02                     db (..@2167.trap_end - ..@2167.trap)
  5860 0000177E 00<rept>               times TRAPINFO_size-($-..@2171.strucstart) db 0
  5861                                 [section .text]
  5862                                 ..@2167.resume:
  5863                                 %line 2227+1 /home/se170/VirtualBox-4.3.28/src/VBox/VMM/testcase/tstX86-1A.asm
  5864                                 ..@2179.trap:
  5865                                 %line 2227+0 /home/se170/VirtualBox-4.3.28/src/VBox/VMM/testcase/tstX86-1A.asm
  5866 00001ECF DB32                    db 0db
  5867                                 ..@2179.trap_end:
  5868 00001ED1 B8B3080000              mov eax, 2227
  5869 00001ED6 E9FB190000              jmp .return
  5870                                 [section .data]
  5871                                 ..@2179.trapinfo: 
  5872                                 ..@2183.strucstart:
  5873 0000178C [0000000000000000]     dq ..@2179.trap
  5874 00001794 [0000000000000000]     dq ..@2179.resume
  5875 0000179C 06                     db 0x06
  5876 0000179D 02                     db (..@2179.trap_end - ..@2179.trap)
  5877 0000179E 00<rept>               times TRAPINFO_size-($-..@2183.strucstart) db 0
  5878                                 [section .text]
  5879                                 ..@2179.resume:
  5880                                 %line 2228+1 /home/se170/VirtualBox-4.3.28/src/VBox/VMM/testcase/tstX86-1A.asm
  5881                                 
  5882                                 
  5883 00001EDB DBE2                    fnclex
  5884                                 %line 2230+0 /home/se170/VirtualBox-4.3.28/src/VBox/VMM/testcase/tstX86-1A.asm
  5885 00001EDD E8A6F8FFFF              call SetFSW_C0_thru_C3
  5886                                 
  5887 00001EE2 55                      push rbp
  5888 00001EE3 4889E5                  mov rbp, rsp
  5889 00001EE6 4881EC00080000          sub rsp, 2048
  5890 00001EED 4883E4F0                and rsp, ~0f
  5891 00001EF1 C78424080400000000-     mov dword [rsp + 1024 + X86FXSTATE.FPUIP], 0
  5892 00001EF1 0000               
  5893 00001EFC C784240C0400000000-     mov dword [rsp + 1024 + X86FXSTATE.FPUCS], 0
  5894 00001EFC 0000               
  5895 00001F07 C78424100400000000-     mov dword [rsp + 1024 + X86FXSTATE.FPUDP], 0
  5896 00001F07 0000               
  5897 00001F12 C78424140400000000-     mov dword [rsp + 1024 + X86FXSTATE.FPUDS], 0
  5898 00001F12 0000               
  5899 00001F1D 480FAE842400040000      o64 fxsave [rsp + 1024]
  5900 00001F26 DCD0                    db 0dc
  5901 00001F28 E8D4F6FFFF              call SaveFPUAndGRegsToStack
  5902                                 
  5903 00001F2D 480FAE8C2400040000      o64 fxrstor [rsp + 1024]
  5904 00001F36 D8D0                    fcom st0 
  5905 00001F38 E8E1F7FFFF              call CompareFPUAndGRegsOnStackIgnoreOpAndIp
  5906                                 
  5907 00001F3D C9                      leave
  5908                                 
  5909 00001F3E 7408                    jz ..@2191.ok
  5910 00001F40 05B6080000              add eax, 2230
  5911 00001F45 E98C190000              jmp .return
  5912                                 ..@2191.ok:
  5913                                 %line 2231+1 /home/se170/VirtualBox-4.3.28/src/VBox/VMM/testcase/tstX86-1A.asm
  5914 00001F4A DBE2                    fnclex
  5915                                 %line 2231+0 /home/se170/VirtualBox-4.3.28/src/VBox/VMM/testcase/tstX86-1A.asm
  5916 00001F4C E837F8FFFF              call SetFSW_C0_thru_C3
  5917                                 
  5918 00001F51 55                      push rbp
  5919 00001F52 4889E5                  mov rbp, rsp
  5920 00001F55 4881EC00080000          sub rsp, 2048
  5921 00001F5C 4883E4F0                and rsp, ~0f
  5922 00001F60 C78424080400000000-     mov dword [rsp + 1024 + X86FXSTATE.FPUIP], 0
  5923 00001F60 0000               
  5924 00001F6B C784240C0400000000-     mov dword [rsp + 1024 + X86FXSTATE.FPUCS], 0
  5925 00001F6B 0000               
  5926 00001F76 C78424100400000000-     mov dword [rsp + 1024 + X86FXSTATE.FPUDP], 0
  5927 00001F76 0000               
  5928 00001F81 C78424140400000000-     mov dword [rsp + 1024 + X86FXSTATE.FPUDS], 0
  5929 00001F81 0000               
  5930 00001F8C 480FAE842400040000      o64 fxsave [rsp + 1024]
  5931 00001F95 DCD1                    db 0dc
  5932 00001F97 E865F6FFFF              call SaveFPUAndGRegsToStack
  5933                                 
  5934 00001F9C 480FAE8C2400040000      o64 fxrstor [rsp + 1024]
  5935 00001FA5 D8D1                    fcom st1 
  5936 00001FA7 E872F7FFFF              call CompareFPUAndGRegsOnStackIgnoreOpAndIp
  5937                                 
  5938 00001FAC C9                      leave
  5939                                 
  5940 00001FAD 7408                    jz ..@2192.ok
  5941 00001FAF 05B7080000              add eax, 2231
  5942 00001FB4 E91D190000              jmp .return
  5943                                 ..@2192.ok:
  5944                                 %line 2232+1 /home/se170/VirtualBox-4.3.28/src/VBox/VMM/testcase/tstX86-1A.asm
  5945 00001FB9 DBE2                    fnclex
  5946                                 %line 2232+0 /home/se170/VirtualBox-4.3.28/src/VBox/VMM/testcase/tstX86-1A.asm
  5947 00001FBB E8C8F7FFFF              call SetFSW_C0_thru_C3
  5948                                 
  5949 00001FC0 55                      push rbp
  5950 00001FC1 4889E5                  mov rbp, rsp
  5951 00001FC4 4881EC00080000          sub rsp, 2048
  5952 00001FCB 4883E4F0                and rsp, ~0f
  5953 00001FCF C78424080400000000-     mov dword [rsp + 1024 + X86FXSTATE.FPUIP], 0
  5954 00001FCF 0000               
  5955 00001FDA C784240C0400000000-     mov dword [rsp + 1024 + X86FXSTATE.FPUCS], 0
  5956 00001FDA 0000               
  5957 00001FE5 C78424100400000000-     mov dword [rsp + 1024 + X86FXSTATE.FPUDP], 0
  5958 00001FE5 0000               
  5959 00001FF0 C78424140400000000-     mov dword [rsp + 1024 + X86FXSTATE.FPUDS], 0
  5960 00001FF0 0000               
  5961 00001FFB 480FAE842400040000      o64 fxsave [rsp + 1024]
  5962 00002004 DCD2                    db 0dc
  5963 00002006 E8F6F5FFFF              call SaveFPUAndGRegsToStack
  5964                                 
  5965 0000200B 480FAE8C2400040000      o64 fxrstor [rsp + 1024]
  5966 00002014 D8D2                    fcom st2 
  5967 00002016 E803F7FFFF              call CompareFPUAndGRegsOnStackIgnoreOpAndIp
  5968                                 
  5969 0000201B C9                      leave
  5970                                 
  5971 0000201C 7408                    jz ..@2193.ok
  5972 0000201E 05B8080000              add eax, 2232
  5973 00002023 E9AE180000              jmp .return
  5974                                 ..@2193.ok:
  5975                                 %line 2233+1 /home/se170/VirtualBox-4.3.28/src/VBox/VMM/testcase/tstX86-1A.asm
  5976 00002028 DBE2                    fnclex
  5977                                 %line 2233+0 /home/se170/VirtualBox-4.3.28/src/VBox/VMM/testcase/tstX86-1A.asm
  5978 0000202A E859F7FFFF              call SetFSW_C0_thru_C3
  5979                                 
  5980 0000202F 55                      push rbp
  5981 00002030 4889E5                  mov rbp, rsp
  5982 00002033 4881EC00080000          sub rsp, 2048
  5983 0000203A 4883E4F0                and rsp, ~0f
  5984 0000203E C78424080400000000-     mov dword [rsp + 1024 + X86FXSTATE.FPUIP], 0
  5985 0000203E 0000               
  5986 00002049 C784240C0400000000-     mov dword [rsp + 1024 + X86FXSTATE.FPUCS], 0
  5987 00002049 0000               
  5988 00002054 C78424100400000000-     mov dword [rsp + 1024 + X86FXSTATE.FPUDP], 0
  5989 00002054 0000               
  5990 0000205F C78424140400000000-     mov dword [rsp + 1024 + X86FXSTATE.FPUDS], 0
  5991 0000205F 0000               
  5992 0000206A 480FAE842400040000      o64 fxsave [rsp + 1024]
  5993 00002073 DCD3                    db 0dc
  5994 00002075 E887F5FFFF              call SaveFPUAndGRegsToStack
  5995                                 
  5996 0000207A 480FAE8C2400040000      o64 fxrstor [rsp + 1024]
  5997 00002083 D8D3                    fcom st3 
  5998 00002085 E894F6FFFF              call CompareFPUAndGRegsOnStackIgnoreOpAndIp
  5999                                 
  6000 0000208A C9                      leave
  6001                                 
  6002 0000208B 7408                    jz ..@2194.ok
  6003 0000208D 05B9080000              add eax, 2233
  6004 00002092 E93F180000              jmp .return
  6005                                 ..@2194.ok:
  6006                                 %line 2234+1 /home/se170/VirtualBox-4.3.28/src/VBox/VMM/testcase/tstX86-1A.asm
  6007 00002097 DBE2                    fnclex
  6008                                 %line 2234+0 /home/se170/VirtualBox-4.3.28/src/VBox/VMM/testcase/tstX86-1A.asm
  6009 00002099 E8EAF6FFFF              call SetFSW_C0_thru_C3
  6010                                 
  6011 0000209E 55                      push rbp
  6012 0000209F 4889E5                  mov rbp, rsp
  6013 000020A2 4881EC00080000          sub rsp, 2048
  6014 000020A9 4883E4F0                and rsp, ~0f
  6015 000020AD C78424080400000000-     mov dword [rsp + 1024 + X86FXSTATE.FPUIP], 0
  6016 000020AD 0000               
  6017 000020B8 C784240C0400000000-     mov dword [rsp + 1024 + X86FXSTATE.FPUCS], 0
  6018 000020B8 0000               
  6019 000020C3 C78424100400000000-     mov dword [rsp + 1024 + X86FXSTATE.FPUDP], 0
  6020 000020C3 0000               
  6021 000020CE C78424140400000000-     mov dword [rsp + 1024 + X86FXSTATE.FPUDS], 0
  6022 000020CE 0000               
  6023 000020D9 480FAE842400040000      o64 fxsave [rsp + 1024]
  6024 000020E2 DCD4                    db 0dc
  6025 000020E4 E818F5FFFF              call SaveFPUAndGRegsToStack
  6026                                 
  6027 000020E9 480FAE8C2400040000      o64 fxrstor [rsp + 1024]
  6028 000020F2 D8D4                    fcom st4 
  6029 000020F4 E825F6FFFF              call CompareFPUAndGRegsOnStackIgnoreOpAndIp
  6030                                 
  6031 000020F9 C9                      leave
  6032                                 
  6033 000020FA 7408                    jz ..@2195.ok
  6034 000020FC 05BA080000              add eax, 2234
  6035 00002101 E9D0170000              jmp .return
  6036                                 ..@2195.ok:
  6037                                 %line 2235+1 /home/se170/VirtualBox-4.3.28/src/VBox/VMM/testcase/tstX86-1A.asm
  6038 00002106 DBE2                    fnclex
  6039                                 %line 2235+0 /home/se170/VirtualBox-4.3.28/src/VBox/VMM/testcase/tstX86-1A.asm
  6040 00002108 E87BF6FFFF              call SetFSW_C0_thru_C3
  6041                                 
  6042 0000210D 55                      push rbp
  6043 0000210E 4889E5                  mov rbp, rsp
  6044 00002111 4881EC00080000          sub rsp, 2048
  6045 00002118 4883E4F0                and rsp, ~0f
  6046 0000211C C78424080400000000-     mov dword [rsp + 1024 + X86FXSTATE.FPUIP], 0
  6047 0000211C 0000               
  6048 00002127 C784240C0400000000-     mov dword [rsp + 1024 + X86FXSTATE.FPUCS], 0
  6049 00002127 0000               
  6050 00002132 C78424100400000000-     mov dword [rsp + 1024 + X86FXSTATE.FPUDP], 0
  6051 00002132 0000               
  6052 0000213D C78424140400000000-     mov dword [rsp + 1024 + X86FXSTATE.FPUDS], 0
  6053 0000213D 0000               
  6054 00002148 480FAE842400040000      o64 fxsave [rsp + 1024]
  6055 00002151 DCD5                    db 0dc
  6056 00002153 E8A9F4FFFF              call SaveFPUAndGRegsToStack
  6057                                 
  6058 00002158 480FAE8C2400040000      o64 fxrstor [rsp + 1024]
  6059 00002161 D8D5                    fcom st5 
  6060 00002163 E8B6F5FFFF              call CompareFPUAndGRegsOnStackIgnoreOpAndIp
  6061                                 
  6062 00002168 C9                      leave
  6063                                 
  6064 00002169 7408                    jz ..@2196.ok
  6065 0000216B 05BB080000              add eax, 2235
  6066 00002170 E961170000              jmp .return
  6067                                 ..@2196.ok:
  6068                                 %line 2236+1 /home/se170/VirtualBox-4.3.28/src/VBox/VMM/testcase/tstX86-1A.asm
  6069 00002175 DBE2                    fnclex
  6070                                 %line 2236+0 /home/se170/VirtualBox-4.3.28/src/VBox/VMM/testcase/tstX86-1A.asm
  6071 00002177 E80CF6FFFF              call SetFSW_C0_thru_C3
  6072                                 
  6073 0000217C 55                      push rbp
  6074 0000217D 4889E5                  mov rbp, rsp
  6075 00002180 4881EC00080000          sub rsp, 2048
  6076 00002187 4883E4F0                and rsp, ~0f
  6077 0000218B C78424080400000000-     mov dword [rsp + 1024 + X86FXSTATE.FPUIP], 0
  6078 0000218B 0000               
  6079 00002196 C784240C0400000000-     mov dword [rsp + 1024 + X86FXSTATE.FPUCS], 0
  6080 00002196 0000               
  6081 000021A1 C78424100400000000-     mov dword [rsp + 1024 + X86FXSTATE.FPUDP], 0
  6082 000021A1 0000               
  6083 000021AC C78424140400000000-     mov dword [rsp + 1024 + X86FXSTATE.FPUDS], 0
  6084 000021AC 0000               
  6085 000021B7 480FAE842400040000      o64 fxsave [rsp + 1024]
  6086 000021C0 DCD6                    db 0dc
  6087 000021C2 E83AF4FFFF              call SaveFPUAndGRegsToStack
  6088                                 
  6089 000021C7 480FAE8C2400040000      o64 fxrstor [rsp + 1024]
  6090 000021D0 D8D6                    fcom st6 
  6091 000021D2 E847F5FFFF              call CompareFPUAndGRegsOnStackIgnoreOpAndIp
  6092                                 
  6093 000021D7 C9                      leave
  6094                                 
  6095 000021D8 7408                    jz ..@2197.ok
  6096 000021DA 05BC080000              add eax, 2236
  6097 000021DF E9F2160000              jmp .return
  6098                                 ..@2197.ok:
  6099                                 %line 2237+1 /home/se170/VirtualBox-4.3.28/src/VBox/VMM/testcase/tstX86-1A.asm
  6100 000021E4 DBE2                    fnclex
  6101                                 %line 2237+0 /home/se170/VirtualBox-4.3.28/src/VBox/VMM/testcase/tstX86-1A.asm
  6102 000021E6 E89DF5FFFF              call SetFSW_C0_thru_C3
  6103                                 
  6104 000021EB 55                      push rbp
  6105 000021EC 4889E5                  mov rbp, rsp
  6106 000021EF 4881EC00080000          sub rsp, 2048
  6107 000021F6 4883E4F0                and rsp, ~0f
  6108 000021FA C78424080400000000-     mov dword [rsp + 1024 + X86FXSTATE.FPUIP], 0
  6109 000021FA 0000               
  6110 00002205 C784240C0400000000-     mov dword [rsp + 1024 + X86FXSTATE.FPUCS], 0
  6111 00002205 0000               
  6112 00002210 C78424100400000000-     mov dword [rsp + 1024 + X86FXSTATE.FPUDP], 0
  6113 00002210 0000               
  6114 0000221B C78424140400000000-     mov dword [rsp + 1024 + X86FXSTATE.FPUDS], 0
  6115 0000221B 0000               
  6116 00002226 480FAE842400040000      o64 fxsave [rsp + 1024]
  6117 0000222F DCD7                    db 0dc
  6118 00002231 E8CBF3FFFF              call SaveFPUAndGRegsToStack
  6119                                 
  6120 00002236 480FAE8C2400040000      o64 fxrstor [rsp + 1024]
  6121 0000223F D8D7                    fcom st7 
  6122 00002241 E8D8F4FFFF              call CompareFPUAndGRegsOnStackIgnoreOpAndIp
  6123                                 
  6124 00002246 C9                      leave
  6125                                 
  6126 00002247 7408                    jz ..@2198.ok
  6127 00002249 05BD080000              add eax, 2237
  6128 0000224E E983160000              jmp .return
  6129                                 ..@2198.ok:
  6130                                 %line 2238+1 /home/se170/VirtualBox-4.3.28/src/VBox/VMM/testcase/tstX86-1A.asm
  6131 00002253 DBE2                    fnclex
  6132                                 %line 2238+0 /home/se170/VirtualBox-4.3.28/src/VBox/VMM/testcase/tstX86-1A.asm
  6133 00002255 E82EF5FFFF              call SetFSW_C0_thru_C3
  6134                                 
  6135 0000225A 55                      push rbp
  6136 0000225B 4889E5                  mov rbp, rsp
  6137 0000225E 4881EC00080000          sub rsp, 2048
  6138 00002265 4883E4F0                and rsp, ~0f
  6139 00002269 C78424080400000000-     mov dword [rsp + 1024 + X86FXSTATE.FPUIP], 0
  6140 00002269 0000               
  6141 00002274 C784240C0400000000-     mov dword [rsp + 1024 + X86FXSTATE.FPUCS], 0
  6142 00002274 0000               
  6143 0000227F C78424100400000000-     mov dword [rsp + 1024 + X86FXSTATE.FPUDP], 0
  6144 0000227F 0000               
  6145 0000228A C78424140400000000-     mov dword [rsp + 1024 + X86FXSTATE.FPUDS], 0
  6146 0000228A 0000               
  6147 00002295 480FAE842400040000      o64 fxsave [rsp + 1024]
  6148 0000229E DCD8                    db 0dc
  6149 000022A0 E85CF3FFFF              call SaveFPUAndGRegsToStack
  6150                                 
  6151 000022A5 480FAE8C2400040000      o64 fxrstor [rsp + 1024]
  6152 000022AE D8D8                    fcomp st0 
  6153 000022B0 E869F4FFFF              call CompareFPUAndGRegsOnStackIgnoreOpAndIp
  6154                                 
  6155 000022B5 C9                      leave
  6156                                 
  6157 000022B6 7408                    jz ..@2199.ok
  6158 000022B8 05BE080000              add eax, 2238
  6159 000022BD E914160000              jmp .return
  6160                                 ..@2199.ok:
  6161                                 %line 2239+1 /home/se170/VirtualBox-4.3.28/src/VBox/VMM/testcase/tstX86-1A.asm
  6162 000022C2 DBE2                    fnclex
  6163                                 %line 2239+0 /home/se170/VirtualBox-4.3.28/src/VBox/VMM/testcase/tstX86-1A.asm
  6164 000022C4 E8BFF4FFFF              call SetFSW_C0_thru_C3
  6165                                 
  6166 000022C9 55                      push rbp
  6167 000022CA 4889E5                  mov rbp, rsp
  6168 000022CD 4881EC00080000          sub rsp, 2048
  6169 000022D4 4883E4F0                and rsp, ~0f
  6170 000022D8 C78424080400000000-     mov dword [rsp + 1024 + X86FXSTATE.FPUIP], 0
  6171 000022D8 0000               
  6172 000022E3 C784240C0400000000-     mov dword [rsp + 1024 + X86FXSTATE.FPUCS], 0
  6173 000022E3 0000               
  6174 000022EE C78424100400000000-     mov dword [rsp + 1024 + X86FXSTATE.FPUDP], 0
  6175 000022EE 0000               
  6176 000022F9 C78424140400000000-     mov dword [rsp + 1024 + X86FXSTATE.FPUDS], 0
  6177 000022F9 0000               
  6178 00002304 480FAE842400040000      o64 fxsave [rsp + 1024]
  6179 0000230D DCD9                    db 0dc
  6180 0000230F E8EDF2FFFF              call SaveFPUAndGRegsToStack
  6181                                 
  6182 00002314 480FAE8C2400040000      o64 fxrstor [rsp + 1024]
  6183 0000231D D8D9                    fcomp st1 
  6184 0000231F E8FAF3FFFF              call CompareFPUAndGRegsOnStackIgnoreOpAndIp
  6185                                 
  6186 00002324 C9                      leave
  6187                                 
  6188 00002325 7408                    jz ..@2200.ok
  6189 00002327 05BF080000              add eax, 2239
  6190 0000232C E9A5150000              jmp .return
  6191                                 ..@2200.ok:
  6192                                 %line 2240+1 /home/se170/VirtualBox-4.3.28/src/VBox/VMM/testcase/tstX86-1A.asm
  6193 00002331 DBE2                    fnclex
  6194                                 %line 2240+0 /home/se170/VirtualBox-4.3.28/src/VBox/VMM/testcase/tstX86-1A.asm
  6195 00002333 E850F4FFFF              call SetFSW_C0_thru_C3
  6196                                 
  6197 00002338 55                      push rbp
  6198 00002339 4889E5                  mov rbp, rsp
  6199 0000233C 4881EC00080000          sub rsp, 2048
  6200 00002343 4883E4F0                and rsp, ~0f
  6201 00002347 C78424080400000000-     mov dword [rsp + 1024 + X86FXSTATE.FPUIP], 0
  6202 00002347 0000               
  6203 00002352 C784240C0400000000-     mov dword [rsp + 1024 + X86FXSTATE.FPUCS], 0
  6204 00002352 0000               
  6205 0000235D C78424100400000000-     mov dword [rsp + 1024 + X86FXSTATE.FPUDP], 0
  6206 0000235D 0000               
  6207 00002368 C78424140400000000-     mov dword [rsp + 1024 + X86FXSTATE.FPUDS], 0
  6208 00002368 0000               
  6209 00002373 480FAE842400040000      o64 fxsave [rsp + 1024]
  6210 0000237C DCDA                    db 0dc
  6211 0000237E E87EF2FFFF              call SaveFPUAndGRegsToStack
  6212                                 
  6213 00002383 480FAE8C2400040000      o64 fxrstor [rsp + 1024]
  6214 0000238C D8DA                    fcomp st2 
  6215 0000238E E88BF3FFFF              call CompareFPUAndGRegsOnStackIgnoreOpAndIp
  6216                                 
  6217 00002393 C9                      leave
  6218                                 
  6219 00002394 7408                    jz ..@2201.ok
  6220 00002396 05C0080000              add eax, 2240
  6221 0000239B E936150000              jmp .return
  6222                                 ..@2201.ok:
  6223                                 %line 2241+1 /home/se170/VirtualBox-4.3.28/src/VBox/VMM/testcase/tstX86-1A.asm
  6224 000023A0 DBE2                    fnclex
  6225                                 %line 2241+0 /home/se170/VirtualBox-4.3.28/src/VBox/VMM/testcase/tstX86-1A.asm
  6226 000023A2 E8E1F3FFFF              call SetFSW_C0_thru_C3
  6227                                 
  6228 000023A7 55                      push rbp
  6229 000023A8 4889E5                  mov rbp, rsp
  6230 000023AB 4881EC00080000          sub rsp, 2048
  6231 000023B2 4883E4F0                and rsp, ~0f
  6232 000023B6 C78424080400000000-     mov dword [rsp + 1024 + X86FXSTATE.FPUIP], 0
  6233 000023B6 0000               
  6234 000023C1 C784240C0400000000-     mov dword [rsp + 1024 + X86FXSTATE.FPUCS], 0
  6235 000023C1 0000               
  6236 000023CC C78424100400000000-     mov dword [rsp + 1024 + X86FXSTATE.FPUDP], 0
  6237 000023CC 0000               
  6238 000023D7 C78424140400000000-     mov dword [rsp + 1024 + X86FXSTATE.FPUDS], 0
  6239 000023D7 0000               
  6240 000023E2 480FAE842400040000      o64 fxsave [rsp + 1024]
  6241 000023EB DCDB                    db 0dc
  6242 000023ED E80FF2FFFF              call SaveFPUAndGRegsToStack
  6243                                 
  6244 000023F2 480FAE8C2400040000      o64 fxrstor [rsp + 1024]
  6245 000023FB D8DB                    fcomp st3 
  6246 000023FD E81CF3FFFF              call CompareFPUAndGRegsOnStackIgnoreOpAndIp
  6247                                 
  6248 00002402 C9                      leave
  6249                                 
  6250 00002403 7408                    jz ..@2202.ok
  6251 00002405 05C1080000              add eax, 2241
  6252 0000240A E9C7140000              jmp .return
  6253                                 ..@2202.ok:
  6254                                 %line 2242+1 /home/se170/VirtualBox-4.3.28/src/VBox/VMM/testcase/tstX86-1A.asm
  6255 0000240F DBE2                    fnclex
  6256                                 %line 2242+0 /home/se170/VirtualBox-4.3.28/src/VBox/VMM/testcase/tstX86-1A.asm
  6257 00002411 E872F3FFFF              call SetFSW_C0_thru_C3
  6258                                 
  6259 00002416 55                      push rbp
  6260 00002417 4889E5                  mov rbp, rsp
  6261 0000241A 4881EC00080000          sub rsp, 2048
  6262 00002421 4883E4F0                and rsp, ~0f
  6263 00002425 C78424080400000000-     mov dword [rsp + 1024 + X86FXSTATE.FPUIP], 0
  6264 00002425 0000               
  6265 00002430 C784240C0400000000-     mov dword [rsp + 1024 + X86FXSTATE.FPUCS], 0
  6266 00002430 0000               
  6267 0000243B C78424100400000000-     mov dword [rsp + 1024 + X86FXSTATE.FPUDP], 0
  6268 0000243B 0000               
  6269 00002446 C78424140400000000-     mov dword [rsp + 1024 + X86FXSTATE.FPUDS], 0
  6270 00002446 0000               
  6271 00002451 480FAE842400040000      o64 fxsave [rsp + 1024]
  6272 0000245A DCDC                    db 0dc
  6273 0000245C E8A0F1FFFF              call SaveFPUAndGRegsToStack
  6274                                 
  6275 00002461 480FAE8C2400040000      o64 fxrstor [rsp + 1024]
  6276 0000246A D8DC                    fcomp st4 
  6277 0000246C E8ADF2FFFF              call CompareFPUAndGRegsOnStackIgnoreOpAndIp
  6278                                 
  6279 00002471 C9                      leave
  6280                                 
  6281 00002472 7408                    jz ..@2203.ok
  6282 00002474 05C2080000              add eax, 2242
  6283 00002479 E958140000              jmp .return
  6284                                 ..@2203.ok:
  6285                                 %line 2243+1 /home/se170/VirtualBox-4.3.28/src/VBox/VMM/testcase/tstX86-1A.asm
  6286 0000247E DBE2                    fnclex
  6287                                 %line 2243+0 /home/se170/VirtualBox-4.3.28/src/VBox/VMM/testcase/tstX86-1A.asm
  6288 00002480 E803F3FFFF              call SetFSW_C0_thru_C3
  6289                                 
  6290 00002485 55                      push rbp
  6291 00002486 4889E5                  mov rbp, rsp
  6292 00002489 4881EC00080000          sub rsp, 2048
  6293 00002490 4883E4F0                and rsp, ~0f
  6294 00002494 C78424080400000000-     mov dword [rsp + 1024 + X86FXSTATE.FPUIP], 0
  6295 00002494 0000               
  6296 0000249F C784240C0400000000-     mov dword [rsp + 1024 + X86FXSTATE.FPUCS], 0
  6297 0000249F 0000               
  6298 000024AA C78424100400000000-     mov dword [rsp + 1024 + X86FXSTATE.FPUDP], 0
  6299 000024AA 0000               
  6300 000024B5 C78424140400000000-     mov dword [rsp + 1024 + X86FXSTATE.FPUDS], 0
  6301 000024B5 0000               
  6302 000024C0 480FAE842400040000      o64 fxsave [rsp + 1024]
  6303 000024C9 DCDD                    db 0dc
  6304 000024CB E831F1FFFF              call SaveFPUAndGRegsToStack
  6305                                 
  6306 000024D0 480FAE8C2400040000      o64 fxrstor [rsp + 1024]
  6307 000024D9 D8DD                    fcomp st5 
  6308 000024DB E83EF2FFFF              call CompareFPUAndGRegsOnStackIgnoreOpAndIp
  6309                                 
  6310 000024E0 C9                      leave
  6311                                 
  6312 000024E1 7408                    jz ..@2204.ok
  6313 000024E3 05C3080000              add eax, 2243
  6314 000024E8 E9E9130000              jmp .return
  6315                                 ..@2204.ok:
  6316                                 %line 2244+1 /home/se170/VirtualBox-4.3.28/src/VBox/VMM/testcase/tstX86-1A.asm
  6317 000024ED DBE2                    fnclex
  6318                                 %line 2244+0 /home/se170/VirtualBox-4.3.28/src/VBox/VMM/testcase/tstX86-1A.asm
  6319 000024EF E894F2FFFF              call SetFSW_C0_thru_C3
  6320                                 
  6321 000024F4 55                      push rbp
  6322 000024F5 4889E5                  mov rbp, rsp
  6323 000024F8 4881EC00080000          sub rsp, 2048
  6324 000024FF 4883E4F0                and rsp, ~0f
  6325 00002503 C78424080400000000-     mov dword [rsp + 1024 + X86FXSTATE.FPUIP], 0
  6326 00002503 0000               
  6327 0000250E C784240C0400000000-     mov dword [rsp + 1024 + X86FXSTATE.FPUCS], 0
  6328 0000250E 0000               
  6329 00002519 C78424100400000000-     mov dword [rsp + 1024 + X86FXSTATE.FPUDP], 0
  6330 00002519 0000               
  6331 00002524 C78424140400000000-     mov dword [rsp + 1024 + X86FXSTATE.FPUDS], 0
  6332 00002524 0000               
  6333 0000252F 480FAE842400040000      o64 fxsave [rsp + 1024]
  6334 00002538 DCDE                    db 0dc
  6335 0000253A E8C2F0FFFF              call SaveFPUAndGRegsToStack
  6336                                 
  6337 0000253F 480FAE8C2400040000      o64 fxrstor [rsp + 1024]
  6338 00002548 D8DE                    fcomp st6 
  6339 0000254A E8CFF1FFFF              call CompareFPUAndGRegsOnStackIgnoreOpAndIp
  6340                                 
  6341 0000254F C9                      leave
  6342                                 
  6343 00002550 7408                    jz ..@2205.ok
  6344 00002552 05C4080000              add eax, 2244
  6345 00002557 E97A130000              jmp .return
  6346                                 ..@2205.ok:
  6347                                 %line 2245+1 /home/se170/VirtualBox-4.3.28/src/VBox/VMM/testcase/tstX86-1A.asm
  6348 0000255C DBE2                    fnclex
  6349                                 %line 2245+0 /home/se170/VirtualBox-4.3.28/src/VBox/VMM/testcase/tstX86-1A.asm
  6350 0000255E E825F2FFFF              call SetFSW_C0_thru_C3
  6351                                 
  6352 00002563 55                      push rbp
  6353 00002564 4889E5                  mov rbp, rsp
  6354 00002567 4881EC00080000          sub rsp, 2048
  6355 0000256E 4883E4F0                and rsp, ~0f
  6356 00002572 C78424080400000000-     mov dword [rsp + 1024 + X86FXSTATE.FPUIP], 0
  6357 00002572 0000               
  6358 0000257D C784240C0400000000-     mov dword [rsp + 1024 + X86FXSTATE.FPUCS], 0
  6359 0000257D 0000               
  6360 00002588 C78424100400000000-     mov dword [rsp + 1024 + X86FXSTATE.FPUDP], 0
  6361 00002588 0000               
  6362 00002593 C78424140400000000-     mov dword [rsp + 1024 + X86FXSTATE.FPUDS], 0
  6363 00002593 0000               
  6364 0000259E 480FAE842400040000      o64 fxsave [rsp + 1024]
  6365 000025A7 DCDF                    db 0dc
  6366 000025A9 E853F0FFFF              call SaveFPUAndGRegsToStack
  6367                                 
  6368 000025AE 480FAE8C2400040000      o64 fxrstor [rsp + 1024]
  6369 000025B7 D8DF                    fcomp st7 
  6370 000025B9 E860F1FFFF              call CompareFPUAndGRegsOnStackIgnoreOpAndIp
  6371                                 
  6372 000025BE C9                      leave
  6373                                 
  6374 000025BF 7408                    jz ..@2206.ok
  6375 000025C1 05C5080000              add eax, 2245
  6376 000025C6 E90B130000              jmp .return
  6377                                 ..@2206.ok:
  6378                                 %line 2246+1 /home/se170/VirtualBox-4.3.28/src/VBox/VMM/testcase/tstX86-1A.asm
  6379                                 
  6380                                 
  6381 000025CB DBE2                    fnclex
  6382                                 %line 2248+0 /home/se170/VirtualBox-4.3.28/src/VBox/VMM/testcase/tstX86-1A.asm
  6383 000025CD E8B6F1FFFF              call SetFSW_C0_thru_C3
  6384                                 
  6385 000025D2 55                      push rbp
  6386 000025D3 4889E5                  mov rbp, rsp
  6387 000025D6 4881EC00080000          sub rsp, 2048
  6388 000025DD 4883E4F0                and rsp, ~0f
  6389 000025E1 C78424080400000000-     mov dword [rsp + 1024 + X86FXSTATE.FPUIP], 0
  6390 000025E1 0000               
  6391 000025EC C784240C0400000000-     mov dword [rsp + 1024 + X86FXSTATE.FPUCS], 0
  6392 000025EC 0000               
  6393 000025F7 C78424100400000000-     mov dword [rsp + 1024 + X86FXSTATE.FPUDP], 0
  6394 000025F7 0000               
  6395 00002602 C78424140400000000-     mov dword [rsp + 1024 + X86FXSTATE.FPUDS], 0
  6396 00002602 0000               
  6397 0000260D 480FAE842400040000      o64 fxsave [rsp + 1024]
  6398 00002616 DDC8                    db 0dd
  6399 00002618 E8E4EFFFFF              call SaveFPUAndGRegsToStack
  6400                                 
  6401 0000261D 480FAE8C2400040000      o64 fxrstor [rsp + 1024]
  6402 00002626 D9C8                    fxch st0 
  6403 00002628 E8F1F0FFFF              call CompareFPUAndGRegsOnStackIgnoreOpAndIp
  6404                                 
  6405 0000262D C9                      leave
  6406                                 
  6407 0000262E 7408                    jz ..@2207.ok
  6408 00002630 05C8080000              add eax, 2248
  6409 00002635 E99C120000              jmp .return
  6410                                 ..@2207.ok:
  6411                                 %line 2249+1 /home/se170/VirtualBox-4.3.28/src/VBox/VMM/testcase/tstX86-1A.asm
  6412 0000263A DBE2                    fnclex
  6413                                 %line 2249+0 /home/se170/VirtualBox-4.3.28/src/VBox/VMM/testcase/tstX86-1A.asm
  6414 0000263C E847F1FFFF              call SetFSW_C0_thru_C3
  6415                                 
  6416 00002641 55                      push rbp
  6417 00002642 4889E5                  mov rbp, rsp
  6418 00002645 4881EC00080000          sub rsp, 2048
  6419 0000264C 4883E4F0                and rsp, ~0f
  6420 00002650 C78424080400000000-     mov dword [rsp + 1024 + X86FXSTATE.FPUIP], 0
  6421 00002650 0000               
  6422 0000265B C784240C0400000000-     mov dword [rsp + 1024 + X86FXSTATE.FPUCS], 0
  6423 0000265B 0000               
  6424 00002666 C78424100400000000-     mov dword [rsp + 1024 + X86FXSTATE.FPUDP], 0
  6425 00002666 0000               
  6426 00002671 C78424140400000000-     mov dword [rsp + 1024 + X86FXSTATE.FPUDS], 0
  6427 00002671 0000               
  6428 0000267C 480FAE842400040000      o64 fxsave [rsp + 1024]
  6429 00002685 DDC9                    db 0dd
  6430 00002687 E875EFFFFF              call SaveFPUAndGRegsToStack
  6431                                 
  6432 0000268C 480FAE8C2400040000      o64 fxrstor [rsp + 1024]
  6433 00002695 D9C9                    fxch st1 
  6434 00002697 E882F0FFFF              call CompareFPUAndGRegsOnStackIgnoreOpAndIp
  6435                                 
  6436 0000269C C9                      leave
  6437                                 
  6438 0000269D 7408                    jz ..@2208.ok
  6439 0000269F 05C9080000              add eax, 2249
  6440 000026A4 E92D120000              jmp .return
  6441                                 ..@2208.ok:
  6442                                 %line 2250+1 /home/se170/VirtualBox-4.3.28/src/VBox/VMM/testcase/tstX86-1A.asm
  6443 000026A9 DBE2                    fnclex
  6444                                 %line 2250+0 /home/se170/VirtualBox-4.3.28/src/VBox/VMM/testcase/tstX86-1A.asm
  6445 000026AB E8D8F0FFFF              call SetFSW_C0_thru_C3
  6446                                 
  6447 000026B0 55                      push rbp
  6448 000026B1 4889E5                  mov rbp, rsp
  6449 000026B4 4881EC00080000          sub rsp, 2048
  6450 000026BB 4883E4F0                and rsp, ~0f
  6451 000026BF C78424080400000000-     mov dword [rsp + 1024 + X86FXSTATE.FPUIP], 0
  6452 000026BF 0000               
  6453 000026CA C784240C0400000000-     mov dword [rsp + 1024 + X86FXSTATE.FPUCS], 0
  6454 000026CA 0000               
  6455 000026D5 C78424100400000000-     mov dword [rsp + 1024 + X86FXSTATE.FPUDP], 0
  6456 000026D5 0000               
  6457 000026E0 C78424140400000000-     mov dword [rsp + 1024 + X86FXSTATE.FPUDS], 0
  6458 000026E0 0000               
  6459 000026EB 480FAE842400040000      o64 fxsave [rsp + 1024]
  6460 000026F4 DDCA                    db 0dd
  6461 000026F6 E806EFFFFF              call SaveFPUAndGRegsToStack
  6462                                 
  6463 000026FB 480FAE8C2400040000      o64 fxrstor [rsp + 1024]
  6464 00002704 D9CA                    fxch st2 
  6465 00002706 E813F0FFFF              call CompareFPUAndGRegsOnStackIgnoreOpAndIp
  6466                                 
  6467 0000270B C9                      leave
  6468                                 
  6469 0000270C 7408                    jz ..@2209.ok
  6470 0000270E 05CA080000              add eax, 2250
  6471 00002713 E9BE110000              jmp .return
  6472                                 ..@2209.ok:
  6473                                 %line 2251+1 /home/se170/VirtualBox-4.3.28/src/VBox/VMM/testcase/tstX86-1A.asm
  6474 00002718 DBE2                    fnclex
  6475                                 %line 2251+0 /home/se170/VirtualBox-4.3.28/src/VBox/VMM/testcase/tstX86-1A.asm
  6476 0000271A E869F0FFFF              call SetFSW_C0_thru_C3
  6477                                 
  6478 0000271F 55                      push rbp
  6479 00002720 4889E5                  mov rbp, rsp
  6480 00002723 4881EC00080000          sub rsp, 2048
  6481 0000272A 4883E4F0                and rsp, ~0f
  6482 0000272E C78424080400000000-     mov dword [rsp + 1024 + X86FXSTATE.FPUIP], 0
  6483 0000272E 0000               
  6484 00002739 C784240C0400000000-     mov dword [rsp + 1024 + X86FXSTATE.FPUCS], 0
  6485 00002739 0000               
  6486 00002744 C78424100400000000-     mov dword [rsp + 1024 + X86FXSTATE.FPUDP], 0
  6487 00002744 0000               
  6488 0000274F C78424140400000000-     mov dword [rsp + 1024 + X86FXSTATE.FPUDS], 0
  6489 0000274F 0000               
  6490 0000275A 480FAE842400040000      o64 fxsave [rsp + 1024]
  6491 00002763 DDCB                    db 0dd
  6492 00002765 E897EEFFFF              call SaveFPUAndGRegsToStack
  6493                                 
  6494 0000276A 480FAE8C2400040000      o64 fxrstor [rsp + 1024]
  6495 00002773 D9CB                    fxch st3 
  6496 00002775 E8A4EFFFFF              call CompareFPUAndGRegsOnStackIgnoreOpAndIp
  6497                                 
  6498 0000277A C9                      leave
  6499                                 
  6500 0000277B 7408                    jz ..@2210.ok
  6501 0000277D 05CB080000              add eax, 2251
  6502 00002782 E94F110000              jmp .return
  6503                                 ..@2210.ok:
  6504                                 %line 2252+1 /home/se170/VirtualBox-4.3.28/src/VBox/VMM/testcase/tstX86-1A.asm
  6505 00002787 DBE2                    fnclex
  6506                                 %line 2252+0 /home/se170/VirtualBox-4.3.28/src/VBox/VMM/testcase/tstX86-1A.asm
  6507 00002789 E8FAEFFFFF              call SetFSW_C0_thru_C3
  6508                                 
  6509 0000278E 55                      push rbp
  6510 0000278F 4889E5                  mov rbp, rsp
  6511 00002792 4881EC00080000          sub rsp, 2048
  6512 00002799 4883E4F0                and rsp, ~0f
  6513 0000279D C78424080400000000-     mov dword [rsp + 1024 + X86FXSTATE.FPUIP], 0
  6514 0000279D 0000               
  6515 000027A8 C784240C0400000000-     mov dword [rsp + 1024 + X86FXSTATE.FPUCS], 0
  6516 000027A8 0000               
  6517 000027B3 C78424100400000000-     mov dword [rsp + 1024 + X86FXSTATE.FPUDP], 0
  6518 000027B3 0000               
  6519 000027BE C78424140400000000-     mov dword [rsp + 1024 + X86FXSTATE.FPUDS], 0
  6520 000027BE 0000               
  6521 000027C9 480FAE842400040000      o64 fxsave [rsp + 1024]
  6522 000027D2 DDCC                    db 0dd
  6523 000027D4 E828EEFFFF              call SaveFPUAndGRegsToStack
  6524                                 
  6525 000027D9 480FAE8C2400040000      o64 fxrstor [rsp + 1024]
  6526 000027E2 D9CC                    fxch st4 
  6527 000027E4 E835EFFFFF              call CompareFPUAndGRegsOnStackIgnoreOpAndIp
  6528                                 
  6529 000027E9 C9                      leave
  6530                                 
  6531 000027EA 7408                    jz ..@2211.ok
  6532 000027EC 05CC080000              add eax, 2252
  6533 000027F1 E9E0100000              jmp .return
  6534                                 ..@2211.ok:
  6535                                 %line 2253+1 /home/se170/VirtualBox-4.3.28/src/VBox/VMM/testcase/tstX86-1A.asm
  6536 000027F6 DBE2                    fnclex
  6537                                 %line 2253+0 /home/se170/VirtualBox-4.3.28/src/VBox/VMM/testcase/tstX86-1A.asm
  6538 000027F8 E88BEFFFFF              call SetFSW_C0_thru_C3
  6539                                 
  6540 000027FD 55                      push rbp
  6541 000027FE 4889E5                  mov rbp, rsp
  6542 00002801 4881EC00080000          sub rsp, 2048
  6543 00002808 4883E4F0                and rsp, ~0f
  6544 0000280C C78424080400000000-     mov dword [rsp + 1024 + X86FXSTATE.FPUIP], 0
  6545 0000280C 0000               
  6546 00002817 C784240C0400000000-     mov dword [rsp + 1024 + X86FXSTATE.FPUCS], 0
  6547 00002817 0000               
  6548 00002822 C78424100400000000-     mov dword [rsp + 1024 + X86FXSTATE.FPUDP], 0
  6549 00002822 0000               
  6550 0000282D C78424140400000000-     mov dword [rsp + 1024 + X86FXSTATE.FPUDS], 0
  6551 0000282D 0000               
  6552 00002838 480FAE842400040000      o64 fxsave [rsp + 1024]
  6553 00002841 DDCD                    db 0dd
  6554 00002843 E8B9EDFFFF              call SaveFPUAndGRegsToStack
  6555                                 
  6556 00002848 480FAE8C2400040000      o64 fxrstor [rsp + 1024]
  6557 00002851 D9CD                    fxch st5 
  6558 00002853 E8C6EEFFFF              call CompareFPUAndGRegsOnStackIgnoreOpAndIp
  6559                                 
  6560 00002858 C9                      leave
  6561                                 
  6562 00002859 7408                    jz ..@2212.ok
  6563 0000285B 05CD080000              add eax, 2253
  6564 00002860 E971100000              jmp .return
  6565                                 ..@2212.ok:
  6566                                 %line 2254+1 /home/se170/VirtualBox-4.3.28/src/VBox/VMM/testcase/tstX86-1A.asm
  6567 00002865 DBE2                    fnclex
  6568                                 %line 2254+0 /home/se170/VirtualBox-4.3.28/src/VBox/VMM/testcase/tstX86-1A.asm
  6569 00002867 E81CEFFFFF              call SetFSW_C0_thru_C3
  6570                                 
  6571 0000286C 55                      push rbp
  6572 0000286D 4889E5                  mov rbp, rsp
  6573 00002870 4881EC00080000          sub rsp, 2048
  6574 00002877 4883E4F0                and rsp, ~0f
  6575 0000287B C78424080400000000-     mov dword [rsp + 1024 + X86FXSTATE.FPUIP], 0
  6576 0000287B 0000               
  6577 00002886 C784240C0400000000-     mov dword [rsp + 1024 + X86FXSTATE.FPUCS], 0
  6578 00002886 0000               
  6579 00002891 C78424100400000000-     mov dword [rsp + 1024 + X86FXSTATE.FPUDP], 0
  6580 00002891 0000               
  6581 0000289C C78424140400000000-     mov dword [rsp + 1024 + X86FXSTATE.FPUDS], 0
  6582 0000289C 0000               
  6583 000028A7 480FAE842400040000      o64 fxsave [rsp + 1024]
  6584 000028B0 DDCE                    db 0dd
  6585 000028B2 E84AEDFFFF              call SaveFPUAndGRegsToStack
  6586                                 
  6587 000028B7 480FAE8C2400040000      o64 fxrstor [rsp + 1024]
  6588 000028C0 D9CE                    fxch st6 
  6589 000028C2 E857EEFFFF              call CompareFPUAndGRegsOnStackIgnoreOpAndIp
  6590                                 
  6591 000028C7 C9                      leave
  6592                                 
  6593 000028C8 7408                    jz ..@2213.ok
  6594 000028CA 05CE080000              add eax, 2254
  6595 000028CF E902100000              jmp .return
  6596                                 ..@2213.ok:
  6597                                 %line 2255+1 /home/se170/VirtualBox-4.3.28/src/VBox/VMM/testcase/tstX86-1A.asm
  6598 000028D4 DBE2                    fnclex
  6599                                 %line 2255+0 /home/se170/VirtualBox-4.3.28/src/VBox/VMM/testcase/tstX86-1A.asm
  6600 000028D6 E8ADEEFFFF              call SetFSW_C0_thru_C3
  6601                                 
  6602 000028DB 55                      push rbp
  6603 000028DC 4889E5                  mov rbp, rsp
  6604 000028DF 4881EC00080000          sub rsp, 2048
  6605 000028E6 4883E4F0                and rsp, ~0f
  6606 000028EA C78424080400000000-     mov dword [rsp + 1024 + X86FXSTATE.FPUIP], 0
  6607 000028EA 0000               
  6608 000028F5 C784240C0400000000-     mov dword [rsp + 1024 + X86FXSTATE.FPUCS], 0
  6609 000028F5 0000               
  6610 00002900 C78424100400000000-     mov dword [rsp + 1024 + X86FXSTATE.FPUDP], 0
  6611 00002900 0000               
  6612 0000290B C78424140400000000-     mov dword [rsp + 1024 + X86FXSTATE.FPUDS], 0
  6613 0000290B 0000               
  6614 00002916 480FAE842400040000      o64 fxsave [rsp + 1024]
  6615 0000291F DDCF                    db 0dd
  6616 00002921 E8DBECFFFF              call SaveFPUAndGRegsToStack
  6617                                 
  6618 00002926 480FAE8C2400040000      o64 fxrstor [rsp + 1024]
  6619 0000292F D9CF                    fxch st7 
  6620 00002931 E8E8EDFFFF              call CompareFPUAndGRegsOnStackIgnoreOpAndIp
  6621                                 
  6622 00002936 C9                      leave
  6623                                 
  6624 00002937 7408                    jz ..@2214.ok
  6625 00002939 05CF080000              add eax, 2255
  6626 0000293E E9930F0000              jmp .return
  6627                                 ..@2214.ok:
  6628                                 %line 2256+1 /home/se170/VirtualBox-4.3.28/src/VBox/VMM/testcase/tstX86-1A.asm
  6629                                 ..@2215.trap:
  6630                                 %line 2256+0 /home/se170/VirtualBox-4.3.28/src/VBox/VMM/testcase/tstX86-1A.asm
  6631 00002943 DDF0                    db 0dd
  6632                                 ..@2215.trap_end:
  6633 00002945 B8D0080000              mov eax, 2256
  6634 0000294A E9870F0000              jmp .return
  6635                                 [section .data]
  6636                                 ..@2215.trapinfo: 
  6637                                 ..@2219.strucstart:
  6638 000017AC [0000000000000000]     dq ..@2215.trap
  6639 000017B4 [0000000000000000]     dq ..@2215.resume
  6640 000017BC 06                     db 0x06
  6641 000017BD 02                     db (..@2215.trap_end - ..@2215.trap)
  6642 000017BE 00<rept>               times TRAPINFO_size-($-..@2219.strucstart) db 0
  6643                                 [section .text]
  6644                                 ..@2215.resume:
  6645                                 %line 2257+1 /home/se170/VirtualBox-4.3.28/src/VBox/VMM/testcase/tstX86-1A.asm
  6646                                 ..@2227.trap:
  6647                                 %line 2257+0 /home/se170/VirtualBox-4.3.28/src/VBox/VMM/testcase/tstX86-1A.asm
  6648 0000294F DDF1                    db 0dd
  6649                                 ..@2227.trap_end:
  6650 00002951 B8D1080000              mov eax, 2257
  6651 00002956 E97B0F0000              jmp .return
  6652                                 [section .data]
  6653                                 ..@2227.trapinfo: 
  6654                                 ..@2231.strucstart:
  6655 000017CC [0000000000000000]     dq ..@2227.trap
  6656 000017D4 [0000000000000000]     dq ..@2227.resume
  6657 000017DC 06                     db 0x06
  6658 000017DD 02                     db (..@2227.trap_end - ..@2227.trap)
  6659 000017DE 00<rept>               times TRAPINFO_size-($-..@2231.strucstart) db 0
  6660                                 [section .text]
  6661                                 ..@2227.resume:
  6662                                 %line 2258+1 /home/se170/VirtualBox-4.3.28/src/VBox/VMM/testcase/tstX86-1A.asm
  6663                                 ..@2239.trap:
  6664                                 %line 2258+0 /home/se170/VirtualBox-4.3.28/src/VBox/VMM/testcase/tstX86-1A.asm
  6665 0000295B DDF2                    db 0dd
  6666                                 ..@2239.trap_end:
  6667 0000295D B8D2080000              mov eax, 2258
  6668 00002962 E96F0F0000              jmp .return
  6669                                 [section .data]
  6670                                 ..@2239.trapinfo: 
  6671                                 ..@2243.strucstart:
  6672 000017EC [0000000000000000]     dq ..@2239.trap
  6673 000017F4 [0000000000000000]     dq ..@2239.resume
  6674 000017FC 06                     db 0x06
  6675 000017FD 02                     db (..@2239.trap_end - ..@2239.trap)
  6676 000017FE 00<rept>               times TRAPINFO_size-($-..@2243.strucstart) db 0
  6677                                 [section .text]
  6678                                 ..@2239.resume:
  6679                                 %line 2259+1 /home/se170/VirtualBox-4.3.28/src/VBox/VMM/testcase/tstX86-1A.asm
  6680                                 ..@2251.trap:
  6681                                 %line 2259+0 /home/se170/VirtualBox-4.3.28/src/VBox/VMM/testcase/tstX86-1A.asm
  6682 00002967 DDF3                    db 0dd
  6683                                 ..@2251.trap_end:
  6684 00002969 B8D3080000              mov eax, 2259
  6685 0000296E E9630F0000              jmp .return
  6686                                 [section .data]
  6687                                 ..@2251.trapinfo: 
  6688                                 ..@2255.strucstart:
  6689 0000180C [0000000000000000]     dq ..@2251.trap
  6690 00001814 [0000000000000000]     dq ..@2251.resume
  6691 0000181C 06                     db 0x06
  6692 0000181D 02                     db (..@2251.trap_end - ..@2251.trap)
  6693 0000181E 00<rept>               times TRAPINFO_size-($-..@2255.strucstart) db 0
  6694                                 [section .text]
  6695                                 ..@2251.resume:
  6696                                 %line 2260+1 /home/se170/VirtualBox-4.3.28/src/VBox/VMM/testcase/tstX86-1A.asm
  6697                                 ..@2263.trap:
  6698                                 %line 2260+0 /home/se170/VirtualBox-4.3.28/src/VBox/VMM/testcase/tstX86-1A.asm
  6699 00002973 DDF4                    db 0dd
  6700                                 ..@2263.trap_end:
  6701 00002975 B8D4080000              mov eax, 2260
  6702 0000297A E9570F0000              jmp .return
  6703                                 [section .data]
  6704                                 ..@2263.trapinfo: 
  6705                                 ..@2267.strucstart:
  6706 0000182C [0000000000000000]     dq ..@2263.trap
  6707 00001834 [0000000000000000]     dq ..@2263.resume
  6708 0000183C 06                     db 0x06
  6709 0000183D 02                     db (..@2263.trap_end - ..@2263.trap)
  6710 0000183E 00<rept>               times TRAPINFO_size-($-..@2267.strucstart) db 0
  6711                                 [section .text]
  6712                                 ..@2263.resume:
  6713                                 %line 2261+1 /home/se170/VirtualBox-4.3.28/src/VBox/VMM/testcase/tstX86-1A.asm
  6714                                 ..@2275.trap:
  6715                                 %line 2261+0 /home/se170/VirtualBox-4.3.28/src/VBox/VMM/testcase/tstX86-1A.asm
  6716 0000297F DDF5                    db 0dd
  6717                                 ..@2275.trap_end:
  6718 00002981 B8D5080000              mov eax, 2261
  6719 00002986 E94B0F0000              jmp .return
  6720                                 [section .data]
  6721                                 ..@2275.trapinfo: 
  6722                                 ..@2279.strucstart:
  6723 0000184C [0000000000000000]     dq ..@2275.trap
  6724 00001854 [0000000000000000]     dq ..@2275.resume
  6725 0000185C 06                     db 0x06
  6726 0000185D 02                     db (..@2275.trap_end - ..@2275.trap)
  6727 0000185E 00<rept>               times TRAPINFO_size-($-..@2279.strucstart) db 0
  6728                                 [section .text]
  6729                                 ..@2275.resume:
  6730                                 %line 2262+1 /home/se170/VirtualBox-4.3.28/src/VBox/VMM/testcase/tstX86-1A.asm
  6731                                 ..@2287.trap:
  6732                                 %line 2262+0 /home/se170/VirtualBox-4.3.28/src/VBox/VMM/testcase/tstX86-1A.asm
  6733 0000298B DDF6                    db 0dd
  6734                                 ..@2287.trap_end:
  6735 0000298D B8D6080000              mov eax, 2262
  6736 00002992 E93F0F0000              jmp .return
  6737                                 [section .data]
  6738                                 ..@2287.trapinfo: 
  6739                                 ..@2291.strucstart:
  6740 0000186C [0000000000000000]     dq ..@2287.trap
  6741 00001874 [0000000000000000]     dq ..@2287.resume
  6742 0000187C 06                     db 0x06
  6743 0000187D 02                     db (..@2287.trap_end - ..@2287.trap)
  6744 0000187E 00<rept>               times TRAPINFO_size-($-..@2291.strucstart) db 0
  6745                                 [section .text]
  6746                                 ..@2287.resume:
  6747                                 %line 2263+1 /home/se170/VirtualBox-4.3.28/src/VBox/VMM/testcase/tstX86-1A.asm
  6748                                 ..@2299.trap:
  6749                                 %line 2263+0 /home/se170/VirtualBox-4.3.28/src/VBox/VMM/testcase/tstX86-1A.asm
  6750 00002997 DDF7                    db 0dd
  6751                                 ..@2299.trap_end:
  6752 00002999 B8D7080000              mov eax, 2263
  6753 0000299E E9330F0000              jmp .return
  6754                                 [section .data]
  6755                                 ..@2299.trapinfo: 
  6756                                 ..@2303.strucstart:
  6757 0000188C [0000000000000000]     dq ..@2299.trap
  6758 00001894 [0000000000000000]     dq ..@2299.resume
  6759 0000189C 06                     db 0x06
  6760 0000189D 02                     db (..@2299.trap_end - ..@2299.trap)
  6761 0000189E 00<rept>               times TRAPINFO_size-($-..@2303.strucstart) db 0
  6762                                 [section .text]
  6763                                 ..@2299.resume:
  6764                                 %line 2264+1 /home/se170/VirtualBox-4.3.28/src/VBox/VMM/testcase/tstX86-1A.asm
  6765                                 ..@2311.trap:
  6766                                 %line 2264+0 /home/se170/VirtualBox-4.3.28/src/VBox/VMM/testcase/tstX86-1A.asm
  6767 000029A3 DDF8                    db 0dd
  6768                                 ..@2311.trap_end:
  6769 000029A5 B8D8080000              mov eax, 2264
  6770 000029AA E9270F0000              jmp .return
  6771                                 [section .data]
  6772                                 ..@2311.trapinfo: 
  6773                                 ..@2315.strucstart:
  6774 000018AC [0000000000000000]     dq ..@2311.trap
  6775 000018B4 [0000000000000000]     dq ..@2311.resume
  6776 000018BC 06                     db 0x06
  6777 000018BD 02                     db (..@2311.trap_end - ..@2311.trap)
  6778 000018BE 00<rept>               times TRAPINFO_size-($-..@2315.strucstart) db 0
  6779                                 [section .text]
  6780                                 ..@2311.resume:
  6781                                 %line 2265+1 /home/se170/VirtualBox-4.3.28/src/VBox/VMM/testcase/tstX86-1A.asm
  6782                                 ..@2323.trap:
  6783                                 %line 2265+0 /home/se170/VirtualBox-4.3.28/src/VBox/VMM/testcase/tstX86-1A.asm
  6784 000029AF DDF9                    db 0dd
  6785                                 ..@2323.trap_end:
  6786 000029B1 B8D9080000              mov eax, 2265
  6787 000029B6 E91B0F0000              jmp .return
  6788                                 [section .data]
  6789                                 ..@2323.trapinfo: 
  6790                                 ..@2327.strucstart:
  6791 000018CC [0000000000000000]     dq ..@2323.trap
  6792 000018D4 [0000000000000000]     dq ..@2323.resume
  6793 000018DC 06                     db 0x06
  6794 000018DD 02                     db (..@2323.trap_end - ..@2323.trap)
  6795 000018DE 00<rept>               times TRAPINFO_size-($-..@2327.strucstart) db 0
  6796                                 [section .text]
  6797                                 ..@2323.resume:
  6798                                 %line 2266+1 /home/se170/VirtualBox-4.3.28/src/VBox/VMM/testcase/tstX86-1A.asm
  6799                                 ..@2335.trap:
  6800                                 %line 2266+0 /home/se170/VirtualBox-4.3.28/src/VBox/VMM/testcase/tstX86-1A.asm
  6801 000029BB DDFA                    db 0dd
  6802                                 ..@2335.trap_end:
  6803 000029BD B8DA080000              mov eax, 2266
  6804 000029C2 E90F0F0000              jmp .return
  6805                                 [section .data]
  6806                                 ..@2335.trapinfo: 
  6807                                 ..@2339.strucstart:
  6808 000018EC [0000000000000000]     dq ..@2335.trap
  6809 000018F4 [0000000000000000]     dq ..@2335.resume
  6810 000018FC 06                     db 0x06
  6811 000018FD 02                     db (..@2335.trap_end - ..@2335.trap)
  6812 000018FE 00<rept>               times TRAPINFO_size-($-..@2339.strucstart) db 0
  6813                                 [section .text]
  6814                                 ..@2335.resume:
  6815                                 %line 2267+1 /home/se170/VirtualBox-4.3.28/src/VBox/VMM/testcase/tstX86-1A.asm
  6816                                 ..@2347.trap:
  6817                                 %line 2267+0 /home/se170/VirtualBox-4.3.28/src/VBox/VMM/testcase/tstX86-1A.asm
  6818 000029C7 DDFB                    db 0dd
  6819                                 ..@2347.trap_end:
  6820 000029C9 B8DB080000              mov eax, 2267
  6821 000029CE E9030F0000              jmp .return
  6822                                 [section .data]
  6823                                 ..@2347.trapinfo: 
  6824                                 ..@2351.strucstart:
  6825 0000190C [0000000000000000]     dq ..@2347.trap
  6826 00001914 [0000000000000000]     dq ..@2347.resume
  6827 0000191C 06                     db 0x06
  6828 0000191D 02                     db (..@2347.trap_end - ..@2347.trap)
  6829 0000191E 00<rept>               times TRAPINFO_size-($-..@2351.strucstart) db 0
  6830                                 [section .text]
  6831                                 ..@2347.resume:
  6832                                 %line 2268+1 /home/se170/VirtualBox-4.3.28/src/VBox/VMM/testcase/tstX86-1A.asm
  6833                                 ..@2359.trap:
  6834                                 %line 2268+0 /home/se170/VirtualBox-4.3.28/src/VBox/VMM/testcase/tstX86-1A.asm
  6835 000029D3 DDFC                    db 0dd
  6836                                 ..@2359.trap_end:
  6837 000029D5 B8DC080000              mov eax, 2268
  6838 000029DA E9F70E0000              jmp .return
  6839                                 [section .data]
  6840                                 ..@2359.trapinfo: 
  6841                                 ..@2363.strucstart:
  6842 0000192C [0000000000000000]     dq ..@2359.trap
  6843 00001934 [0000000000000000]     dq ..@2359.resume
  6844 0000193C 06                     db 0x06
  6845 0000193D 02                     db (..@2359.trap_end - ..@2359.trap)
  6846 0000193E 00<rept>               times TRAPINFO_size-($-..@2363.strucstart) db 0
  6847                                 [section .text]
  6848                                 ..@2359.resume:
  6849                                 %line 2269+1 /home/se170/VirtualBox-4.3.28/src/VBox/VMM/testcase/tstX86-1A.asm
  6850                                 ..@2371.trap:
  6851                                 %line 2269+0 /home/se170/VirtualBox-4.3.28/src/VBox/VMM/testcase/tstX86-1A.asm
  6852 000029DF DDFD                    db 0dd
  6853                                 ..@2371.trap_end:
  6854 000029E1 B8DD080000              mov eax, 2269
  6855 000029E6 E9EB0E0000              jmp .return
  6856                                 [section .data]
  6857                                 ..@2371.trapinfo: 
  6858                                 ..@2375.strucstart:
  6859 0000194C [0000000000000000]     dq ..@2371.trap
  6860 00001954 [0000000000000000]     dq ..@2371.resume
  6861 0000195C 06                     db 0x06
  6862 0000195D 02                     db (..@2371.trap_end - ..@2371.trap)
  6863 0000195E 00<rept>               times TRAPINFO_size-($-..@2375.strucstart) db 0
  6864                                 [section .text]
  6865                                 ..@2371.resume:
  6866                                 %line 2270+1 /home/se170/VirtualBox-4.3.28/src/VBox/VMM/testcase/tstX86-1A.asm
  6867                                 ..@2383.trap:
  6868                                 %line 2270+0 /home/se170/VirtualBox-4.3.28/src/VBox/VMM/testcase/tstX86-1A.asm
  6869 000029EB DDFE                    db 0dd
  6870                                 ..@2383.trap_end:
  6871 000029ED B8DE080000              mov eax, 2270
  6872 000029F2 E9DF0E0000              jmp .return
  6873                                 [section .data]
  6874                                 ..@2383.trapinfo: 
  6875                                 ..@2387.strucstart:
  6876 0000196C [0000000000000000]     dq ..@2383.trap
  6877 00001974 [0000000000000000]     dq ..@2383.resume
  6878 0000197C 06                     db 0x06
  6879 0000197D 02                     db (..@2383.trap_end - ..@2383.trap)
  6880 0000197E 00<rept>               times TRAPINFO_size-($-..@2387.strucstart) db 0
  6881                                 [section .text]
  6882                                 ..@2383.resume:
  6883                                 %line 2271+1 /home/se170/VirtualBox-4.3.28/src/VBox/VMM/testcase/tstX86-1A.asm
  6884                                 ..@2395.trap:
  6885                                 %line 2271+0 /home/se170/VirtualBox-4.3.28/src/VBox/VMM/testcase/tstX86-1A.asm
  6886 000029F7 DDFF                    db 0dd
  6887                                 ..@2395.trap_end:
  6888 000029F9 B8DF080000              mov eax, 2271
  6889 000029FE E9D30E0000              jmp .return
  6890                                 [section .data]
  6891                                 ..@2395.trapinfo: 
  6892                                 ..@2399.strucstart:
  6893 0000198C [0000000000000000]     dq ..@2395.trap
  6894 00001994 [0000000000000000]     dq ..@2395.resume
  6895 0000199C 06                     db 0x06
  6896 0000199D 02                     db (..@2395.trap_end - ..@2395.trap)
  6897 0000199E 00<rept>               times TRAPINFO_size-($-..@2399.strucstart) db 0
  6898                                 [section .text]
  6899                                 ..@2395.resume:
  6900                                 %line 2272+1 /home/se170/VirtualBox-4.3.28/src/VBox/VMM/testcase/tstX86-1A.asm
  6901                                 ..@2407.trap:
  6902                                 %line 2272+0 /home/se170/VirtualBox-4.3.28/src/VBox/VMM/testcase/tstX86-1A.asm
  6903 00002A03 DD28                    db 0dd
  6904                                 ..@2407.trap_end:
  6905 00002A05 B8E0080000              mov eax, 2272
  6906 00002A0A E9C70E0000              jmp .return
  6907                                 [section .data]
  6908                                 ..@2407.trapinfo: 
  6909                                 ..@2411.strucstart:
  6910 000019AC [0000000000000000]     dq ..@2407.trap
  6911 000019B4 [0000000000000000]     dq ..@2407.resume
  6912 000019BC 06                     db 0x06
  6913 000019BD 02                     db (..@2407.trap_end - ..@2407.trap)
  6914 000019BE 00<rept>               times TRAPINFO_size-($-..@2411.strucstart) db 0
  6915                                 [section .text]
  6916                                 ..@2407.resume:
  6917                                 %line 2273+1 /home/se170/VirtualBox-4.3.28/src/VBox/VMM/testcase/tstX86-1A.asm
  6918                                 ..@2419.trap:
  6919                                 %line 2273+0 /home/se170/VirtualBox-4.3.28/src/VBox/VMM/testcase/tstX86-1A.asm
  6920 00002A0F DD2F                    db 0dd
  6921                                 ..@2419.trap_end:
  6922 00002A11 B8E1080000              mov eax, 2273
  6923 00002A16 E9BB0E0000              jmp .return
  6924                                 [section .data]
  6925                                 ..@2419.trapinfo: 
  6926                                 ..@2423.strucstart:
  6927 000019CC [0000000000000000]     dq ..@2419.trap
  6928 000019D4 [0000000000000000]     dq ..@2419.resume
  6929 000019DC 06                     db 0x06
  6930 000019DD 02                     db (..@2419.trap_end - ..@2419.trap)
  6931 000019DE 00<rept>               times TRAPINFO_size-($-..@2423.strucstart) db 0
  6932                                 [section .text]
  6933                                 ..@2419.resume:
  6934                                 %line 2274+1 /home/se170/VirtualBox-4.3.28/src/VBox/VMM/testcase/tstX86-1A.asm
  6935                                 
  6936                                 
  6937 00002A1B DBE2                    fnclex
  6938                                 %line 2276+0 /home/se170/VirtualBox-4.3.28/src/VBox/VMM/testcase/tstX86-1A.asm
  6939 00002A1D E866EDFFFF              call SetFSW_C0_thru_C3
  6940                                 
  6941 00002A22 55                      push rbp
  6942 00002A23 4889E5                  mov rbp, rsp
  6943 00002A26 4881EC00080000          sub rsp, 2048
  6944 00002A2D 4883E4F0                and rsp, ~0f
  6945 00002A31 C78424080400000000-     mov dword [rsp + 1024 + X86FXSTATE.FPUIP], 0
  6946 00002A31 0000               
  6947 00002A3C C784240C0400000000-     mov dword [rsp + 1024 + X86FXSTATE.FPUCS], 0
  6948 00002A3C 0000               
  6949 00002A47 C78424100400000000-     mov dword [rsp + 1024 + X86FXSTATE.FPUDP], 0
  6950 00002A47 0000               
  6951 00002A52 C78424140400000000-     mov dword [rsp + 1024 + X86FXSTATE.FPUDS], 0
  6952 00002A52 0000               
  6953 00002A5D 480FAE842400040000      o64 fxsave [rsp + 1024]
  6954 00002A66 DED0                    db 0de
  6955 00002A68 E894EBFFFF              call SaveFPUAndGRegsToStack
  6956                                 
  6957 00002A6D 480FAE8C2400040000      o64 fxrstor [rsp + 1024]
  6958 00002A76 D8D8                    fcomp st0 
  6959 00002A78 E8A1ECFFFF              call CompareFPUAndGRegsOnStackIgnoreOpAndIp
  6960                                 
  6961 00002A7D C9                      leave
  6962                                 
  6963 00002A7E 7408                    jz ..@2431.ok
  6964 00002A80 05E4080000              add eax, 2276
  6965 00002A85 E94C0E0000              jmp .return
  6966                                 ..@2431.ok:
  6967                                 %line 2277+1 /home/se170/VirtualBox-4.3.28/src/VBox/VMM/testcase/tstX86-1A.asm
  6968 00002A8A DBE2                    fnclex
  6969                                 %line 2277+0 /home/se170/VirtualBox-4.3.28/src/VBox/VMM/testcase/tstX86-1A.asm
  6970 00002A8C E8F7ECFFFF              call SetFSW_C0_thru_C3
  6971                                 
  6972 00002A91 55                      push rbp
  6973 00002A92 4889E5                  mov rbp, rsp
  6974 00002A95 4881EC00080000          sub rsp, 2048
  6975 00002A9C 4883E4F0                and rsp, ~0f
  6976 00002AA0 C78424080400000000-     mov dword [rsp + 1024 + X86FXSTATE.FPUIP], 0
  6977 00002AA0 0000               
  6978 00002AAB C784240C0400000000-     mov dword [rsp + 1024 + X86FXSTATE.FPUCS], 0
  6979 00002AAB 0000               
  6980 00002AB6 C78424100400000000-     mov dword [rsp + 1024 + X86FXSTATE.FPUDP], 0
  6981 00002AB6 0000               
  6982 00002AC1 C78424140400000000-     mov dword [rsp + 1024 + X86FXSTATE.FPUDS], 0
  6983 00002AC1 0000               
  6984 00002ACC 480FAE842400040000      o64 fxsave [rsp + 1024]
  6985 00002AD5 DED1                    db 0de
  6986 00002AD7 E825EBFFFF              call SaveFPUAndGRegsToStack
  6987                                 
  6988 00002ADC 480FAE8C2400040000      o64 fxrstor [rsp + 1024]
  6989 00002AE5 D8D9                    fcomp st1 
  6990 00002AE7 E832ECFFFF              call CompareFPUAndGRegsOnStackIgnoreOpAndIp
  6991                                 
  6992 00002AEC C9                      leave
  6993                                 
  6994 00002AED 7408                    jz ..@2432.ok
  6995 00002AEF 05E5080000              add eax, 2277
  6996 00002AF4 E9DD0D0000              jmp .return
  6997                                 ..@2432.ok:
  6998                                 %line 2278+1 /home/se170/VirtualBox-4.3.28/src/VBox/VMM/testcase/tstX86-1A.asm
  6999 00002AF9 DBE2                    fnclex
  7000                                 %line 2278+0 /home/se170/VirtualBox-4.3.28/src/VBox/VMM/testcase/tstX86-1A.asm
  7001 00002AFB E888ECFFFF              call SetFSW_C0_thru_C3
  7002                                 
  7003 00002B00 55                      push rbp
  7004 00002B01 4889E5                  mov rbp, rsp
  7005 00002B04 4881EC00080000          sub rsp, 2048
  7006 00002B0B 4883E4F0                and rsp, ~0f
  7007 00002B0F C78424080400000000-     mov dword [rsp + 1024 + X86FXSTATE.FPUIP], 0
  7008 00002B0F 0000               
  7009 00002B1A C784240C0400000000-     mov dword [rsp + 1024 + X86FXSTATE.FPUCS], 0
  7010 00002B1A 0000               
  7011 00002B25 C78424100400000000-     mov dword [rsp + 1024 + X86FXSTATE.FPUDP], 0
  7012 00002B25 0000               
  7013 00002B30 C78424140400000000-     mov dword [rsp + 1024 + X86FXSTATE.FPUDS], 0
  7014 00002B30 0000               
  7015 00002B3B 480FAE842400040000      o64 fxsave [rsp + 1024]
  7016 00002B44 DED2                    db 0de
  7017 00002B46 E8B6EAFFFF              call SaveFPUAndGRegsToStack
  7018                                 
  7019 00002B4B 480FAE8C2400040000      o64 fxrstor [rsp + 1024]
  7020 00002B54 D8DA                    fcomp st2 
  7021 00002B56 E8C3EBFFFF              call CompareFPUAndGRegsOnStackIgnoreOpAndIp
  7022                                 
  7023 00002B5B C9                      leave
  7024                                 
  7025 00002B5C 7408                    jz ..@2433.ok
  7026 00002B5E 05E6080000              add eax, 2278
  7027 00002B63 E96E0D0000              jmp .return
  7028                                 ..@2433.ok:
  7029                                 %line 2279+1 /home/se170/VirtualBox-4.3.28/src/VBox/VMM/testcase/tstX86-1A.asm
  7030 00002B68 DBE2                    fnclex
  7031                                 %line 2279+0 /home/se170/VirtualBox-4.3.28/src/VBox/VMM/testcase/tstX86-1A.asm
  7032 00002B6A E819ECFFFF              call SetFSW_C0_thru_C3
  7033                                 
  7034 00002B6F 55                      push rbp
  7035 00002B70 4889E5                  mov rbp, rsp
  7036 00002B73 4881EC00080000          sub rsp, 2048
  7037 00002B7A 4883E4F0                and rsp, ~0f
  7038 00002B7E C78424080400000000-     mov dword [rsp + 1024 + X86FXSTATE.FPUIP], 0
  7039 00002B7E 0000               
  7040 00002B89 C784240C0400000000-     mov dword [rsp + 1024 + X86FXSTATE.FPUCS], 0
  7041 00002B89 0000               
  7042 00002B94 C78424100400000000-     mov dword [rsp + 1024 + X86FXSTATE.FPUDP], 0
  7043 00002B94 0000               
  7044 00002B9F C78424140400000000-     mov dword [rsp + 1024 + X86FXSTATE.FPUDS], 0
  7045 00002B9F 0000               
  7046 00002BAA 480FAE842400040000      o64 fxsave [rsp + 1024]
  7047 00002BB3 DED3                    db 0de
  7048 00002BB5 E847EAFFFF              call SaveFPUAndGRegsToStack
  7049                                 
  7050 00002BBA 480FAE8C2400040000      o64 fxrstor [rsp + 1024]
  7051 00002BC3 D8DB                    fcomp st3 
  7052 00002BC5 E854EBFFFF              call CompareFPUAndGRegsOnStackIgnoreOpAndIp
  7053                                 
  7054 00002BCA C9                      leave
  7055                                 
  7056 00002BCB 7408                    jz ..@2434.ok
  7057 00002BCD 05E7080000              add eax, 2279
  7058 00002BD2 E9FF0C0000              jmp .return
  7059                                 ..@2434.ok:
  7060                                 %line 2280+1 /home/se170/VirtualBox-4.3.28/src/VBox/VMM/testcase/tstX86-1A.asm
  7061 00002BD7 DBE2                    fnclex
  7062                                 %line 2280+0 /home/se170/VirtualBox-4.3.28/src/VBox/VMM/testcase/tstX86-1A.asm
  7063 00002BD9 E8AAEBFFFF              call SetFSW_C0_thru_C3
  7064                                 
  7065 00002BDE 55                      push rbp
  7066 00002BDF 4889E5                  mov rbp, rsp
  7067 00002BE2 4881EC00080000          sub rsp, 2048
  7068 00002BE9 4883E4F0                and rsp, ~0f
  7069 00002BED C78424080400000000-     mov dword [rsp + 1024 + X86FXSTATE.FPUIP], 0
  7070 00002BED 0000               
  7071 00002BF8 C784240C0400000000-     mov dword [rsp + 1024 + X86FXSTATE.FPUCS], 0
  7072 00002BF8 0000               
  7073 00002C03 C78424100400000000-     mov dword [rsp + 1024 + X86FXSTATE.FPUDP], 0
  7074 00002C03 0000               
  7075 00002C0E C78424140400000000-     mov dword [rsp + 1024 + X86FXSTATE.FPUDS], 0
  7076 00002C0E 0000               
  7077 00002C19 480FAE842400040000      o64 fxsave [rsp + 1024]
  7078 00002C22 DED4                    db 0de
  7079 00002C24 E8D8E9FFFF              call SaveFPUAndGRegsToStack
  7080                                 
  7081 00002C29 480FAE8C2400040000      o64 fxrstor [rsp + 1024]
  7082 00002C32 D8DC                    fcomp st4 
  7083 00002C34 E8E5EAFFFF              call CompareFPUAndGRegsOnStackIgnoreOpAndIp
  7084                                 
  7085 00002C39 C9                      leave
  7086                                 
  7087 00002C3A 7408                    jz ..@2435.ok
  7088 00002C3C 05E8080000              add eax, 2280
  7089 00002C41 E9900C0000              jmp .return
  7090                                 ..@2435.ok:
  7091                                 %line 2281+1 /home/se170/VirtualBox-4.3.28/src/VBox/VMM/testcase/tstX86-1A.asm
  7092 00002C46 DBE2                    fnclex
  7093                                 %line 2281+0 /home/se170/VirtualBox-4.3.28/src/VBox/VMM/testcase/tstX86-1A.asm
  7094 00002C48 E83BEBFFFF              call SetFSW_C0_thru_C3
  7095                                 
  7096 00002C4D 55                      push rbp
  7097 00002C4E 4889E5                  mov rbp, rsp
  7098 00002C51 4881EC00080000          sub rsp, 2048
  7099 00002C58 4883E4F0                and rsp, ~0f
  7100 00002C5C C78424080400000000-     mov dword [rsp + 1024 + X86FXSTATE.FPUIP], 0
  7101 00002C5C 0000               
  7102 00002C67 C784240C0400000000-     mov dword [rsp + 1024 + X86FXSTATE.FPUCS], 0
  7103 00002C67 0000               
  7104 00002C72 C78424100400000000-     mov dword [rsp + 1024 + X86FXSTATE.FPUDP], 0
  7105 00002C72 0000               
  7106 00002C7D C78424140400000000-     mov dword [rsp + 1024 + X86FXSTATE.FPUDS], 0
  7107 00002C7D 0000               
  7108 00002C88 480FAE842400040000      o64 fxsave [rsp + 1024]
  7109 00002C91 DED5                    db 0de
  7110 00002C93 E869E9FFFF              call SaveFPUAndGRegsToStack
  7111                                 
  7112 00002C98 480FAE8C2400040000      o64 fxrstor [rsp + 1024]
  7113 00002CA1 D8DD                    fcomp st5 
  7114 00002CA3 E876EAFFFF              call CompareFPUAndGRegsOnStackIgnoreOpAndIp
  7115                                 
  7116 00002CA8 C9                      leave
  7117                                 
  7118 00002CA9 7408                    jz ..@2436.ok
  7119 00002CAB 05E9080000              add eax, 2281
  7120 00002CB0 E9210C0000              jmp .return
  7121                                 ..@2436.ok:
  7122                                 %line 2282+1 /home/se170/VirtualBox-4.3.28/src/VBox/VMM/testcase/tstX86-1A.asm
  7123 00002CB5 DBE2                    fnclex
  7124                                 %line 2282+0 /home/se170/VirtualBox-4.3.28/src/VBox/VMM/testcase/tstX86-1A.asm
  7125 00002CB7 E8CCEAFFFF              call SetFSW_C0_thru_C3
  7126                                 
  7127 00002CBC 55                      push rbp
  7128 00002CBD 4889E5                  mov rbp, rsp
  7129 00002CC0 4881EC00080000          sub rsp, 2048
  7130 00002CC7 4883E4F0                and rsp, ~0f
  7131 00002CCB C78424080400000000-     mov dword [rsp + 1024 + X86FXSTATE.FPUIP], 0
  7132 00002CCB 0000               
  7133 00002CD6 C784240C0400000000-     mov dword [rsp + 1024 + X86FXSTATE.FPUCS], 0
  7134 00002CD6 0000               
  7135 00002CE1 C78424100400000000-     mov dword [rsp + 1024 + X86FXSTATE.FPUDP], 0
  7136 00002CE1 0000               
  7137 00002CEC C78424140400000000-     mov dword [rsp + 1024 + X86FXSTATE.FPUDS], 0
  7138 00002CEC 0000               
  7139 00002CF7 480FAE842400040000      o64 fxsave [rsp + 1024]
  7140 00002D00 DED6                    db 0de
  7141 00002D02 E8FAE8FFFF              call SaveFPUAndGRegsToStack
  7142                                 
  7143 00002D07 480FAE8C2400040000      o64 fxrstor [rsp + 1024]
  7144 00002D10 D8DE                    fcomp st6 
  7145 00002D12 E807EAFFFF              call CompareFPUAndGRegsOnStackIgnoreOpAndIp
  7146                                 
  7147 00002D17 C9                      leave
  7148                                 
  7149 00002D18 7408                    jz ..@2437.ok
  7150 00002D1A 05EA080000              add eax, 2282
  7151 00002D1F E9B20B0000              jmp .return
  7152                                 ..@2437.ok:
  7153                                 %line 2283+1 /home/se170/VirtualBox-4.3.28/src/VBox/VMM/testcase/tstX86-1A.asm
  7154 00002D24 DBE2                    fnclex
  7155                                 %line 2283+0 /home/se170/VirtualBox-4.3.28/src/VBox/VMM/testcase/tstX86-1A.asm
  7156 00002D26 E85DEAFFFF              call SetFSW_C0_thru_C3
  7157                                 
  7158 00002D2B 55                      push rbp
  7159 00002D2C 4889E5                  mov rbp, rsp
  7160 00002D2F 4881EC00080000          sub rsp, 2048
  7161 00002D36 4883E4F0                and rsp, ~0f
  7162 00002D3A C78424080400000000-     mov dword [rsp + 1024 + X86FXSTATE.FPUIP], 0
  7163 00002D3A 0000               
  7164 00002D45 C784240C0400000000-     mov dword [rsp + 1024 + X86FXSTATE.FPUCS], 0
  7165 00002D45 0000               
  7166 00002D50 C78424100400000000-     mov dword [rsp + 1024 + X86FXSTATE.FPUDP], 0
  7167 00002D50 0000               
  7168 00002D5B C78424140400000000-     mov dword [rsp + 1024 + X86FXSTATE.FPUDS], 0
  7169 00002D5B 0000               
  7170 00002D66 480FAE842400040000      o64 fxsave [rsp + 1024]
  7171 00002D6F DED7                    db 0de
  7172 00002D71 E88BE8FFFF              call SaveFPUAndGRegsToStack
  7173                                 
  7174 00002D76 480FAE8C2400040000      o64 fxrstor [rsp + 1024]
  7175 00002D7F D8DF                    fcomp st7 
  7176 00002D81 E898E9FFFF              call CompareFPUAndGRegsOnStackIgnoreOpAndIp
  7177                                 
  7178 00002D86 C9                      leave
  7179                                 
  7180 00002D87 7408                    jz ..@2438.ok
  7181 00002D89 05EB080000              add eax, 2283
  7182 00002D8E E9430B0000              jmp .return
  7183                                 ..@2438.ok:
  7184                                 %line 2284+1 /home/se170/VirtualBox-4.3.28/src/VBox/VMM/testcase/tstX86-1A.asm
  7185                                 ..@2439.trap:
  7186                                 %line 2284+0 /home/se170/VirtualBox-4.3.28/src/VBox/VMM/testcase/tstX86-1A.asm
  7187 00002D93 DED8                    db 0de
  7188                                 ..@2439.trap_end:
  7189 00002D95 B8EC080000              mov eax, 2284
  7190 00002D9A E9370B0000              jmp .return
  7191                                 [section .data]
  7192                                 ..@2439.trapinfo: 
  7193                                 ..@2443.strucstart:
  7194 000019EC [0000000000000000]     dq ..@2439.trap
  7195 000019F4 [0000000000000000]     dq ..@2439.resume
  7196 000019FC 06                     db 0x06
  7197 000019FD 02                     db (..@2439.trap_end - ..@2439.trap)
  7198 000019FE 00<rept>               times TRAPINFO_size-($-..@2443.strucstart) db 0
  7199                                 [section .text]
  7200                                 ..@2439.resume:
  7201                                 %line 2285+1 /home/se170/VirtualBox-4.3.28/src/VBox/VMM/testcase/tstX86-1A.asm
  7202                                 ..@2451.trap:
  7203                                 %line 2285+0 /home/se170/VirtualBox-4.3.28/src/VBox/VMM/testcase/tstX86-1A.asm
  7204 00002D9F DEDA                    db 0de
  7205                                 ..@2451.trap_end:
  7206 00002DA1 B8ED080000              mov eax, 2285
  7207 00002DA6 E92B0B0000              jmp .return
  7208                                 [section .data]
  7209                                 ..@2451.trapinfo: 
  7210                                 ..@2455.strucstart:
  7211 00001A0C [0000000000000000]     dq ..@2451.trap
  7212 00001A14 [0000000000000000]     dq ..@2451.resume
  7213 00001A1C 06                     db 0x06
  7214 00001A1D 02                     db (..@2451.trap_end - ..@2451.trap)
  7215 00001A1E 00<rept>               times TRAPINFO_size-($-..@2455.strucstart) db 0
  7216                                 [section .text]
  7217                                 ..@2451.resume:
  7218                                 %line 2286+1 /home/se170/VirtualBox-4.3.28/src/VBox/VMM/testcase/tstX86-1A.asm
  7219                                 ..@2463.trap:
  7220                                 %line 2286+0 /home/se170/VirtualBox-4.3.28/src/VBox/VMM/testcase/tstX86-1A.asm
  7221 00002DAB DEDB                    db 0de
  7222                                 ..@2463.trap_end:
  7223 00002DAD B8EE080000              mov eax, 2286
  7224 00002DB2 E91F0B0000              jmp .return
  7225                                 [section .data]
  7226                                 ..@2463.trapinfo: 
  7227                                 ..@2467.strucstart:
  7228 00001A2C [0000000000000000]     dq ..@2463.trap
  7229 00001A34 [0000000000000000]     dq ..@2463.resume
  7230 00001A3C 06                     db 0x06
  7231 00001A3D 02                     db (..@2463.trap_end - ..@2463.trap)
  7232 00001A3E 00<rept>               times TRAPINFO_size-($-..@2467.strucstart) db 0
  7233                                 [section .text]
  7234                                 ..@2463.resume:
  7235                                 %line 2287+1 /home/se170/VirtualBox-4.3.28/src/VBox/VMM/testcase/tstX86-1A.asm
  7236                                 ..@2475.trap:
  7237                                 %line 2287+0 /home/se170/VirtualBox-4.3.28/src/VBox/VMM/testcase/tstX86-1A.asm
  7238 00002DB7 DEDC                    db 0de
  7239                                 ..@2475.trap_end:
  7240 00002DB9 B8EF080000              mov eax, 2287
  7241 00002DBE E9130B0000              jmp .return
  7242                                 [section .data]
  7243                                 ..@2475.trapinfo: 
  7244                                 ..@2479.strucstart:
  7245 00001A4C [0000000000000000]     dq ..@2475.trap
  7246 00001A54 [0000000000000000]     dq ..@2475.resume
  7247 00001A5C 06                     db 0x06
  7248 00001A5D 02                     db (..@2475.trap_end - ..@2475.trap)
  7249 00001A5E 00<rept>               times TRAPINFO_size-($-..@2479.strucstart) db 0
  7250                                 [section .text]
  7251                                 ..@2475.resume:
  7252                                 %line 2288+1 /home/se170/VirtualBox-4.3.28/src/VBox/VMM/testcase/tstX86-1A.asm
  7253                                 ..@2487.trap:
  7254                                 %line 2288+0 /home/se170/VirtualBox-4.3.28/src/VBox/VMM/testcase/tstX86-1A.asm
  7255 00002DC3 DEDD                    db 0de
  7256                                 ..@2487.trap_end:
  7257 00002DC5 B8F0080000              mov eax, 2288
  7258 00002DCA E9070B0000              jmp .return
  7259                                 [section .data]
  7260                                 ..@2487.trapinfo: 
  7261                                 ..@2491.strucstart:
  7262 00001A6C [0000000000000000]     dq ..@2487.trap
  7263 00001A74 [0000000000000000]     dq ..@2487.resume
  7264 00001A7C 06                     db 0x06
  7265 00001A7D 02                     db (..@2487.trap_end - ..@2487.trap)
  7266 00001A7E 00<rept>               times TRAPINFO_size-($-..@2491.strucstart) db 0
  7267                                 [section .text]
  7268                                 ..@2487.resume:
  7269                                 %line 2289+1 /home/se170/VirtualBox-4.3.28/src/VBox/VMM/testcase/tstX86-1A.asm
  7270                                 ..@2499.trap:
  7271                                 %line 2289+0 /home/se170/VirtualBox-4.3.28/src/VBox/VMM/testcase/tstX86-1A.asm
  7272 00002DCF DEDE                    db 0de
  7273                                 ..@2499.trap_end:
  7274 00002DD1 B8F1080000              mov eax, 2289
  7275 00002DD6 E9FB0A0000              jmp .return
  7276                                 [section .data]
  7277                                 ..@2499.trapinfo: 
  7278                                 ..@2503.strucstart:
  7279 00001A8C [0000000000000000]     dq ..@2499.trap
  7280 00001A94 [0000000000000000]     dq ..@2499.resume
  7281 00001A9C 06                     db 0x06
  7282 00001A9D 02                     db (..@2499.trap_end - ..@2499.trap)
  7283 00001A9E 00<rept>               times TRAPINFO_size-($-..@2503.strucstart) db 0
  7284                                 [section .text]
  7285                                 ..@2499.resume:
  7286                                 %line 2290+1 /home/se170/VirtualBox-4.3.28/src/VBox/VMM/testcase/tstX86-1A.asm
  7287                                 ..@2511.trap:
  7288                                 %line 2290+0 /home/se170/VirtualBox-4.3.28/src/VBox/VMM/testcase/tstX86-1A.asm
  7289 00002DDB DEDF                    db 0de
  7290                                 ..@2511.trap_end:
  7291 00002DDD B8F2080000              mov eax, 2290
  7292 00002DE2 E9EF0A0000              jmp .return
  7293                                 [section .data]
  7294                                 ..@2511.trapinfo: 
  7295                                 ..@2515.strucstart:
  7296 00001AAC [0000000000000000]     dq ..@2511.trap
  7297 00001AB4 [0000000000000000]     dq ..@2511.resume
  7298 00001ABC 06                     db 0x06
  7299 00001ABD 02                     db (..@2511.trap_end - ..@2511.trap)
  7300 00001ABE 00<rept>               times TRAPINFO_size-($-..@2515.strucstart) db 0
  7301                                 [section .text]
  7302                                 ..@2511.resume:
  7303                                 %line 2291+1 /home/se170/VirtualBox-4.3.28/src/VBox/VMM/testcase/tstX86-1A.asm
  7304                                 
  7305                                 
  7306 00002DE7 DBE2                    fnclex
  7307                                 %line 2293+0 /home/se170/VirtualBox-4.3.28/src/VBox/VMM/testcase/tstX86-1A.asm
  7308 00002DE9 E89AE9FFFF              call SetFSW_C0_thru_C3
  7309                                 
  7310 00002DEE 55                      push rbp
  7311 00002DEF 4889E5                  mov rbp, rsp
  7312 00002DF2 4881EC00080000          sub rsp, 2048
  7313 00002DF9 4883E4F0                and rsp, ~0f
  7314 00002DFD C78424080400000000-     mov dword [rsp + 1024 + X86FXSTATE.FPUIP], 0
  7315 00002DFD 0000               
  7316 00002E08 C784240C0400000000-     mov dword [rsp + 1024 + X86FXSTATE.FPUCS], 0
  7317 00002E08 0000               
  7318 00002E13 C78424100400000000-     mov dword [rsp + 1024 + X86FXSTATE.FPUDP], 0
  7319 00002E13 0000               
  7320 00002E1E C78424140400000000-     mov dword [rsp + 1024 + X86FXSTATE.FPUDS], 0
  7321 00002E1E 0000               
  7322 00002E29 480FAE842400040000      o64 fxsave [rsp + 1024]
  7323 00002E32 DFC8                    db 0df
  7324 00002E34 E8C8E7FFFF              call SaveFPUAndGRegsToStack
  7325                                 
  7326 00002E39 480FAE8C2400040000      o64 fxrstor [rsp + 1024]
  7327 00002E42 D9C8                    fxch st0 
  7328 00002E44 E8D5E8FFFF              call CompareFPUAndGRegsOnStackIgnoreOpAndIp
  7329                                 
  7330 00002E49 C9                      leave
  7331                                 
  7332 00002E4A 7408                    jz ..@2523.ok
  7333 00002E4C 05F5080000              add eax, 2293
  7334 00002E51 E9800A0000              jmp .return
  7335                                 ..@2523.ok:
  7336                                 %line 2294+1 /home/se170/VirtualBox-4.3.28/src/VBox/VMM/testcase/tstX86-1A.asm
  7337 00002E56 DBE2                    fnclex
  7338                                 %line 2294+0 /home/se170/VirtualBox-4.3.28/src/VBox/VMM/testcase/tstX86-1A.asm
  7339 00002E58 E82BE9FFFF              call SetFSW_C0_thru_C3
  7340                                 
  7341 00002E5D 55                      push rbp
  7342 00002E5E 4889E5                  mov rbp, rsp
  7343 00002E61 4881EC00080000          sub rsp, 2048
  7344 00002E68 4883E4F0                and rsp, ~0f
  7345 00002E6C C78424080400000000-     mov dword [rsp + 1024 + X86FXSTATE.FPUIP], 0
  7346 00002E6C 0000               
  7347 00002E77 C784240C0400000000-     mov dword [rsp + 1024 + X86FXSTATE.FPUCS], 0
  7348 00002E77 0000               
  7349 00002E82 C78424100400000000-     mov dword [rsp + 1024 + X86FXSTATE.FPUDP], 0
  7350 00002E82 0000               
  7351 00002E8D C78424140400000000-     mov dword [rsp + 1024 + X86FXSTATE.FPUDS], 0
  7352 00002E8D 0000               
  7353 00002E98 480FAE842400040000      o64 fxsave [rsp + 1024]
  7354 00002EA1 DFC9                    db 0df
  7355 00002EA3 E859E7FFFF              call SaveFPUAndGRegsToStack
  7356                                 
  7357 00002EA8 480FAE8C2400040000      o64 fxrstor [rsp + 1024]
  7358 00002EB1 D9C9                    fxch st1 
  7359 00002EB3 E866E8FFFF              call CompareFPUAndGRegsOnStackIgnoreOpAndIp
  7360                                 
  7361 00002EB8 C9                      leave
  7362                                 
  7363 00002EB9 7408                    jz ..@2524.ok
  7364 00002EBB 05F6080000              add eax, 2294
  7365 00002EC0 E9110A0000              jmp .return
  7366                                 ..@2524.ok:
  7367                                 %line 2295+1 /home/se170/VirtualBox-4.3.28/src/VBox/VMM/testcase/tstX86-1A.asm
  7368 00002EC5 DBE2                    fnclex
  7369                                 %line 2295+0 /home/se170/VirtualBox-4.3.28/src/VBox/VMM/testcase/tstX86-1A.asm
  7370 00002EC7 E8BCE8FFFF              call SetFSW_C0_thru_C3
  7371                                 
  7372 00002ECC 55                      push rbp
  7373 00002ECD 4889E5                  mov rbp, rsp
  7374 00002ED0 4881EC00080000          sub rsp, 2048
  7375 00002ED7 4883E4F0                and rsp, ~0f
  7376 00002EDB C78424080400000000-     mov dword [rsp + 1024 + X86FXSTATE.FPUIP], 0
  7377 00002EDB 0000               
  7378 00002EE6 C784240C0400000000-     mov dword [rsp + 1024 + X86FXSTATE.FPUCS], 0
  7379 00002EE6 0000               
  7380 00002EF1 C78424100400000000-     mov dword [rsp + 1024 + X86FXSTATE.FPUDP], 0
  7381 00002EF1 0000               
  7382 00002EFC C78424140400000000-     mov dword [rsp + 1024 + X86FXSTATE.FPUDS], 0
  7383 00002EFC 0000               
  7384 00002F07 480FAE842400040000      o64 fxsave [rsp + 1024]
  7385 00002F10 DFCA                    db 0df
  7386 00002F12 E8EAE6FFFF              call SaveFPUAndGRegsToStack
  7387                                 
  7388 00002F17 480FAE8C2400040000      o64 fxrstor [rsp + 1024]
  7389 00002F20 D9CA                    fxch st2 
  7390 00002F22 E8F7E7FFFF              call CompareFPUAndGRegsOnStackIgnoreOpAndIp
  7391                                 
  7392 00002F27 C9                      leave
  7393                                 
  7394 00002F28 7408                    jz ..@2525.ok
  7395 00002F2A 05F7080000              add eax, 2295
  7396 00002F2F E9A2090000              jmp .return
  7397                                 ..@2525.ok:
  7398                                 %line 2296+1 /home/se170/VirtualBox-4.3.28/src/VBox/VMM/testcase/tstX86-1A.asm
  7399 00002F34 DBE2                    fnclex
  7400                                 %line 2296+0 /home/se170/VirtualBox-4.3.28/src/VBox/VMM/testcase/tstX86-1A.asm
  7401 00002F36 E84DE8FFFF              call SetFSW_C0_thru_C3
  7402                                 
  7403 00002F3B 55                      push rbp
  7404 00002F3C 4889E5                  mov rbp, rsp
  7405 00002F3F 4881EC00080000          sub rsp, 2048
  7406 00002F46 4883E4F0                and rsp, ~0f
  7407 00002F4A C78424080400000000-     mov dword [rsp + 1024 + X86FXSTATE.FPUIP], 0
  7408 00002F4A 0000               
  7409 00002F55 C784240C0400000000-     mov dword [rsp + 1024 + X86FXSTATE.FPUCS], 0
  7410 00002F55 0000               
  7411 00002F60 C78424100400000000-     mov dword [rsp + 1024 + X86FXSTATE.FPUDP], 0
  7412 00002F60 0000               
  7413 00002F6B C78424140400000000-     mov dword [rsp + 1024 + X86FXSTATE.FPUDS], 0
  7414 00002F6B 0000               
  7415 00002F76 480FAE842400040000      o64 fxsave [rsp + 1024]
  7416 00002F7F DFCB                    db 0df
  7417 00002F81 E87BE6FFFF              call SaveFPUAndGRegsToStack
  7418                                 
  7419 00002F86 480FAE8C2400040000      o64 fxrstor [rsp + 1024]
  7420 00002F8F D9CB                    fxch st3 
  7421 00002F91 E888E7FFFF              call CompareFPUAndGRegsOnStackIgnoreOpAndIp
  7422                                 
  7423 00002F96 C9                      leave
  7424                                 
  7425 00002F97 7408                    jz ..@2526.ok
  7426 00002F99 05F8080000              add eax, 2296
  7427 00002F9E E933090000              jmp .return
  7428                                 ..@2526.ok:
  7429                                 %line 2297+1 /home/se170/VirtualBox-4.3.28/src/VBox/VMM/testcase/tstX86-1A.asm
  7430 00002FA3 DBE2                    fnclex
  7431                                 %line 2297+0 /home/se170/VirtualBox-4.3.28/src/VBox/VMM/testcase/tstX86-1A.asm
  7432 00002FA5 E8DEE7FFFF              call SetFSW_C0_thru_C3
  7433                                 
  7434 00002FAA 55                      push rbp
  7435 00002FAB 4889E5                  mov rbp, rsp
  7436 00002FAE 4881EC00080000          sub rsp, 2048
  7437 00002FB5 4883E4F0                and rsp, ~0f
  7438 00002FB9 C78424080400000000-     mov dword [rsp + 1024 + X86FXSTATE.FPUIP], 0
  7439 00002FB9 0000               
  7440 00002FC4 C784240C0400000000-     mov dword [rsp + 1024 + X86FXSTATE.FPUCS], 0
  7441 00002FC4 0000               
  7442 00002FCF C78424100400000000-     mov dword [rsp + 1024 + X86FXSTATE.FPUDP], 0
  7443 00002FCF 0000               
  7444 00002FDA C78424140400000000-     mov dword [rsp + 1024 + X86FXSTATE.FPUDS], 0
  7445 00002FDA 0000               
  7446 00002FE5 480FAE842400040000      o64 fxsave [rsp + 1024]
  7447 00002FEE DFCC                    db 0df
  7448 00002FF0 E80CE6FFFF              call SaveFPUAndGRegsToStack
  7449                                 
  7450 00002FF5 480FAE8C2400040000      o64 fxrstor [rsp + 1024]
  7451 00002FFE D9CC                    fxch st4 
  7452 00003000 E819E7FFFF              call CompareFPUAndGRegsOnStackIgnoreOpAndIp
  7453                                 
  7454 00003005 C9                      leave
  7455                                 
  7456 00003006 7408                    jz ..@2527.ok
  7457 00003008 05F9080000              add eax, 2297
  7458 0000300D E9C4080000              jmp .return
  7459                                 ..@2527.ok:
  7460                                 %line 2298+1 /home/se170/VirtualBox-4.3.28/src/VBox/VMM/testcase/tstX86-1A.asm
  7461 00003012 DBE2                    fnclex
  7462                                 %line 2298+0 /home/se170/VirtualBox-4.3.28/src/VBox/VMM/testcase/tstX86-1A.asm
  7463 00003014 E86FE7FFFF              call SetFSW_C0_thru_C3
  7464                                 
  7465 00003019 55                      push rbp
  7466 0000301A 4889E5                  mov rbp, rsp
  7467 0000301D 4881EC00080000          sub rsp, 2048
  7468 00003024 4883E4F0                and rsp, ~0f
  7469 00003028 C78424080400000000-     mov dword [rsp + 1024 + X86FXSTATE.FPUIP], 0
  7470 00003028 0000               
  7471 00003033 C784240C0400000000-     mov dword [rsp + 1024 + X86FXSTATE.FPUCS], 0
  7472 00003033 0000               
  7473 0000303E C78424100400000000-     mov dword [rsp + 1024 + X86FXSTATE.FPUDP], 0
  7474 0000303E 0000               
  7475 00003049 C78424140400000000-     mov dword [rsp + 1024 + X86FXSTATE.FPUDS], 0
  7476 00003049 0000               
  7477 00003054 480FAE842400040000      o64 fxsave [rsp + 1024]
  7478 0000305D DFCD                    db 0df
  7479 0000305F E89DE5FFFF              call SaveFPUAndGRegsToStack
  7480                                 
  7481 00003064 480FAE8C2400040000      o64 fxrstor [rsp + 1024]
  7482 0000306D D9CD                    fxch st5 
  7483 0000306F E8AAE6FFFF              call CompareFPUAndGRegsOnStackIgnoreOpAndIp
  7484                                 
  7485 00003074 C9                      leave
  7486                                 
  7487 00003075 7408                    jz ..@2528.ok
  7488 00003077 05FA080000              add eax, 2298
  7489 0000307C E955080000              jmp .return
  7490                                 ..@2528.ok:
  7491                                 %line 2299+1 /home/se170/VirtualBox-4.3.28/src/VBox/VMM/testcase/tstX86-1A.asm
  7492 00003081 DBE2                    fnclex
  7493                                 %line 2299+0 /home/se170/VirtualBox-4.3.28/src/VBox/VMM/testcase/tstX86-1A.asm
  7494 00003083 E800E7FFFF              call SetFSW_C0_thru_C3
  7495                                 
  7496 00003088 55                      push rbp
  7497 00003089 4889E5                  mov rbp, rsp
  7498 0000308C 4881EC00080000          sub rsp, 2048
  7499 00003093 4883E4F0                and rsp, ~0f
  7500 00003097 C78424080400000000-     mov dword [rsp + 1024 + X86FXSTATE.FPUIP], 0
  7501 00003097 0000               
  7502 000030A2 C784240C0400000000-     mov dword [rsp + 1024 + X86FXSTATE.FPUCS], 0
  7503 000030A2 0000               
  7504 000030AD C78424100400000000-     mov dword [rsp + 1024 + X86FXSTATE.FPUDP], 0
  7505 000030AD 0000               
  7506 000030B8 C78424140400000000-     mov dword [rsp + 1024 + X86FXSTATE.FPUDS], 0
  7507 000030B8 0000               
  7508 000030C3 480FAE842400040000      o64 fxsave [rsp + 1024]
  7509 000030CC DFCE                    db 0df
  7510 000030CE E82EE5FFFF              call SaveFPUAndGRegsToStack
  7511                                 
  7512 000030D3 480FAE8C2400040000      o64 fxrstor [rsp + 1024]
  7513 000030DC D9CE                    fxch st6 
  7514 000030DE E83BE6FFFF              call CompareFPUAndGRegsOnStackIgnoreOpAndIp
  7515                                 
  7516 000030E3 C9                      leave
  7517                                 
  7518 000030E4 7408                    jz ..@2529.ok
  7519 000030E6 05FB080000              add eax, 2299
  7520 000030EB E9E6070000              jmp .return
  7521                                 ..@2529.ok:
  7522                                 %line 2300+1 /home/se170/VirtualBox-4.3.28/src/VBox/VMM/testcase/tstX86-1A.asm
  7523 000030F0 DBE2                    fnclex
  7524                                 %line 2300+0 /home/se170/VirtualBox-4.3.28/src/VBox/VMM/testcase/tstX86-1A.asm
  7525 000030F2 E891E6FFFF              call SetFSW_C0_thru_C3
  7526                                 
  7527 000030F7 55                      push rbp
  7528 000030F8 4889E5                  mov rbp, rsp
  7529 000030FB 4881EC00080000          sub rsp, 2048
  7530 00003102 4883E4F0                and rsp, ~0f
  7531 00003106 C78424080400000000-     mov dword [rsp + 1024 + X86FXSTATE.FPUIP], 0
  7532 00003106 0000               
  7533 00003111 C784240C0400000000-     mov dword [rsp + 1024 + X86FXSTATE.FPUCS], 0
  7534 00003111 0000               
  7535 0000311C C78424100400000000-     mov dword [rsp + 1024 + X86FXSTATE.FPUDP], 0
  7536 0000311C 0000               
  7537 00003127 C78424140400000000-     mov dword [rsp + 1024 + X86FXSTATE.FPUDS], 0
  7538 00003127 0000               
  7539 00003132 480FAE842400040000      o64 fxsave [rsp + 1024]
  7540 0000313B DFCF                    db 0df
  7541 0000313D E8BFE4FFFF              call SaveFPUAndGRegsToStack
  7542                                 
  7543 00003142 480FAE8C2400040000      o64 fxrstor [rsp + 1024]
  7544 0000314B D9CF                    fxch st7 
  7545 0000314D E8CCE5FFFF              call CompareFPUAndGRegsOnStackIgnoreOpAndIp
  7546                                 
  7547 00003152 C9                      leave
  7548                                 
  7549 00003153 7408                    jz ..@2530.ok
  7550 00003155 05FC080000              add eax, 2300
  7551 0000315A E977070000              jmp .return
  7552                                 ..@2530.ok:
  7553                                 %line 2301+1 /home/se170/VirtualBox-4.3.28/src/VBox/VMM/testcase/tstX86-1A.asm
  7554 0000315F DBE2                    fnclex
  7555                                 %line 2301+0 /home/se170/VirtualBox-4.3.28/src/VBox/VMM/testcase/tstX86-1A.asm
  7556 00003161 E822E6FFFF              call SetFSW_C0_thru_C3
  7557                                 
  7558 00003166 55                      push rbp
  7559 00003167 4889E5                  mov rbp, rsp
  7560 0000316A 4881EC00080000          sub rsp, 2048
  7561 00003171 4883E4F0                and rsp, ~0f
  7562 00003175 C78424080400000000-     mov dword [rsp + 1024 + X86FXSTATE.FPUIP], 0
  7563 00003175 0000               
  7564 00003180 C784240C0400000000-     mov dword [rsp + 1024 + X86FXSTATE.FPUCS], 0
  7565 00003180 0000               
  7566 0000318B C78424100400000000-     mov dword [rsp + 1024 + X86FXSTATE.FPUDP], 0
  7567 0000318B 0000               
  7568 00003196 C78424140400000000-     mov dword [rsp + 1024 + X86FXSTATE.FPUDS], 0
  7569 00003196 0000               
  7570 000031A1 480FAE842400040000      o64 fxsave [rsp + 1024]
  7571 000031AA DFD0                    db 0df
  7572 000031AC E850E4FFFF              call SaveFPUAndGRegsToStack
  7573                                 
  7574 000031B1 480FAE8C2400040000      o64 fxrstor [rsp + 1024]
  7575 000031BA DDD8                    fstp st0 
  7576 000031BC E85DE5FFFF              call CompareFPUAndGRegsOnStackIgnoreOpAndIp
  7577                                 
  7578 000031C1 C9                      leave
  7579                                 
  7580 000031C2 7408                    jz ..@2531.ok
  7581 000031C4 05FD080000              add eax, 2301
  7582 000031C9 E908070000              jmp .return
  7583                                 ..@2531.ok:
  7584                                 %line 2302+1 /home/se170/VirtualBox-4.3.28/src/VBox/VMM/testcase/tstX86-1A.asm
  7585 000031CE DBE2                    fnclex
  7586                                 %line 2302+0 /home/se170/VirtualBox-4.3.28/src/VBox/VMM/testcase/tstX86-1A.asm
  7587 000031D0 E8B3E5FFFF              call SetFSW_C0_thru_C3
  7588                                 
  7589 000031D5 55                      push rbp
  7590 000031D6 4889E5                  mov rbp, rsp
  7591 000031D9 4881EC00080000          sub rsp, 2048
  7592 000031E0 4883E4F0                and rsp, ~0f
  7593 000031E4 C78424080400000000-     mov dword [rsp + 1024 + X86FXSTATE.FPUIP], 0
  7594 000031E4 0000               
  7595 000031EF C784240C0400000000-     mov dword [rsp + 1024 + X86FXSTATE.FPUCS], 0
  7596 000031EF 0000               
  7597 000031FA C78424100400000000-     mov dword [rsp + 1024 + X86FXSTATE.FPUDP], 0
  7598 000031FA 0000               
  7599 00003205 C78424140400000000-     mov dword [rsp + 1024 + X86FXSTATE.FPUDS], 0
  7600 00003205 0000               
  7601 00003210 480FAE842400040000      o64 fxsave [rsp + 1024]
  7602 00003219 DFD1                    db 0df
  7603 0000321B E8E1E3FFFF              call SaveFPUAndGRegsToStack
  7604                                 
  7605 00003220 480FAE8C2400040000      o64 fxrstor [rsp + 1024]
  7606 00003229 DDD9                    fstp st1 
  7607 0000322B E8EEE4FFFF              call CompareFPUAndGRegsOnStackIgnoreOpAndIp
  7608                                 
  7609 00003230 C9                      leave
  7610                                 
  7611 00003231 7408                    jz ..@2532.ok
  7612 00003233 05FE080000              add eax, 2302
  7613 00003238 E999060000              jmp .return
  7614                                 ..@2532.ok:
  7615                                 %line 2303+1 /home/se170/VirtualBox-4.3.28/src/VBox/VMM/testcase/tstX86-1A.asm
  7616 0000323D DBE2                    fnclex
  7617                                 %line 2303+0 /home/se170/VirtualBox-4.3.28/src/VBox/VMM/testcase/tstX86-1A.asm
  7618 0000323F E844E5FFFF              call SetFSW_C0_thru_C3
  7619                                 
  7620 00003244 55                      push rbp
  7621 00003245 4889E5                  mov rbp, rsp
  7622 00003248 4881EC00080000          sub rsp, 2048
  7623 0000324F 4883E4F0                and rsp, ~0f
  7624 00003253 C78424080400000000-     mov dword [rsp + 1024 + X86FXSTATE.FPUIP], 0
  7625 00003253 0000               
  7626 0000325E C784240C0400000000-     mov dword [rsp + 1024 + X86FXSTATE.FPUCS], 0
  7627 0000325E 0000               
  7628 00003269 C78424100400000000-     mov dword [rsp + 1024 + X86FXSTATE.FPUDP], 0
  7629 00003269 0000               
  7630 00003274 C78424140400000000-     mov dword [rsp + 1024 + X86FXSTATE.FPUDS], 0
  7631 00003274 0000               
  7632 0000327F 480FAE842400040000      o64 fxsave [rsp + 1024]
  7633 00003288 DFD2                    db 0df
  7634 0000328A E872E3FFFF              call SaveFPUAndGRegsToStack
  7635                                 
  7636 0000328F 480FAE8C2400040000      o64 fxrstor [rsp + 1024]
  7637 00003298 DDDA                    fstp st2 
  7638 0000329A E87FE4FFFF              call CompareFPUAndGRegsOnStackIgnoreOpAndIp
  7639                                 
  7640 0000329F C9                      leave
  7641                                 
  7642 000032A0 7408                    jz ..@2533.ok
  7643 000032A2 05FF080000              add eax, 2303
  7644 000032A7 E92A060000              jmp .return
  7645                                 ..@2533.ok:
  7646                                 %line 2304+1 /home/se170/VirtualBox-4.3.28/src/VBox/VMM/testcase/tstX86-1A.asm
  7647 000032AC DBE2                    fnclex
  7648                                 %line 2304+0 /home/se170/VirtualBox-4.3.28/src/VBox/VMM/testcase/tstX86-1A.asm
  7649 000032AE E8D5E4FFFF              call SetFSW_C0_thru_C3
  7650                                 
  7651 000032B3 55                      push rbp
  7652 000032B4 4889E5                  mov rbp, rsp
  7653 000032B7 4881EC00080000          sub rsp, 2048
  7654 000032BE 4883E4F0                and rsp, ~0f
  7655 000032C2 C78424080400000000-     mov dword [rsp + 1024 + X86FXSTATE.FPUIP], 0
  7656 000032C2 0000               
  7657 000032CD C784240C0400000000-     mov dword [rsp + 1024 + X86FXSTATE.FPUCS], 0
  7658 000032CD 0000               
  7659 000032D8 C78424100400000000-     mov dword [rsp + 1024 + X86FXSTATE.FPUDP], 0
  7660 000032D8 0000               
  7661 000032E3 C78424140400000000-     mov dword [rsp + 1024 + X86FXSTATE.FPUDS], 0
  7662 000032E3 0000               
  7663 000032EE 480FAE842400040000      o64 fxsave [rsp + 1024]
  7664 000032F7 DFD3                    db 0df
  7665 000032F9 E803E3FFFF              call SaveFPUAndGRegsToStack
  7666                                 
  7667 000032FE 480FAE8C2400040000      o64 fxrstor [rsp + 1024]
  7668 00003307 DDDB                    fstp st3 
  7669 00003309 E810E4FFFF              call CompareFPUAndGRegsOnStackIgnoreOpAndIp
  7670                                 
  7671 0000330E C9                      leave
  7672                                 
  7673 0000330F 7408                    jz ..@2534.ok
  7674 00003311 0500090000              add eax, 2304
  7675 00003316 E9BB050000              jmp .return
  7676                                 ..@2534.ok:
  7677                                 %line 2305+1 /home/se170/VirtualBox-4.3.28/src/VBox/VMM/testcase/tstX86-1A.asm
  7678 0000331B DBE2                    fnclex
  7679                                 %line 2305+0 /home/se170/VirtualBox-4.3.28/src/VBox/VMM/testcase/tstX86-1A.asm
  7680 0000331D E866E4FFFF              call SetFSW_C0_thru_C3
  7681                                 
  7682 00003322 55                      push rbp
  7683 00003323 4889E5                  mov rbp, rsp
  7684 00003326 4881EC00080000          sub rsp, 2048
  7685 0000332D 4883E4F0                and rsp, ~0f
  7686 00003331 C78424080400000000-     mov dword [rsp + 1024 + X86FXSTATE.FPUIP], 0
  7687 00003331 0000               
  7688 0000333C C784240C0400000000-     mov dword [rsp + 1024 + X86FXSTATE.FPUCS], 0
  7689 0000333C 0000               
  7690 00003347 C78424100400000000-     mov dword [rsp + 1024 + X86FXSTATE.FPUDP], 0
  7691 00003347 0000               
  7692 00003352 C78424140400000000-     mov dword [rsp + 1024 + X86FXSTATE.FPUDS], 0
  7693 00003352 0000               
  7694 0000335D 480FAE842400040000      o64 fxsave [rsp + 1024]
  7695 00003366 DFD4                    db 0df
  7696 00003368 E894E2FFFF              call SaveFPUAndGRegsToStack
  7697                                 
  7698 0000336D 480FAE8C2400040000      o64 fxrstor [rsp + 1024]
  7699 00003376 DDDC                    fstp st4 
  7700 00003378 E8A1E3FFFF              call CompareFPUAndGRegsOnStackIgnoreOpAndIp
  7701                                 
  7702 0000337D C9                      leave
  7703                                 
  7704 0000337E 7408                    jz ..@2535.ok
  7705 00003380 0501090000              add eax, 2305
  7706 00003385 E94C050000              jmp .return
  7707                                 ..@2535.ok:
  7708                                 %line 2306+1 /home/se170/VirtualBox-4.3.28/src/VBox/VMM/testcase/tstX86-1A.asm
  7709 0000338A DBE2                    fnclex
  7710                                 %line 2306+0 /home/se170/VirtualBox-4.3.28/src/VBox/VMM/testcase/tstX86-1A.asm
  7711 0000338C E8F7E3FFFF              call SetFSW_C0_thru_C3
  7712                                 
  7713 00003391 55                      push rbp
  7714 00003392 4889E5                  mov rbp, rsp
  7715 00003395 4881EC00080000          sub rsp, 2048
  7716 0000339C 4883E4F0                and rsp, ~0f
  7717 000033A0 C78424080400000000-     mov dword [rsp + 1024 + X86FXSTATE.FPUIP], 0
  7718 000033A0 0000               
  7719 000033AB C784240C0400000000-     mov dword [rsp + 1024 + X86FXSTATE.FPUCS], 0
  7720 000033AB 0000               
  7721 000033B6 C78424100400000000-     mov dword [rsp + 1024 + X86FXSTATE.FPUDP], 0
  7722 000033B6 0000               
  7723 000033C1 C78424140400000000-     mov dword [rsp + 1024 + X86FXSTATE.FPUDS], 0
  7724 000033C1 0000               
  7725 000033CC 480FAE842400040000      o64 fxsave [rsp + 1024]
  7726 000033D5 DFD5                    db 0df
  7727 000033D7 E825E2FFFF              call SaveFPUAndGRegsToStack
  7728                                 
  7729 000033DC 480FAE8C2400040000      o64 fxrstor [rsp + 1024]
  7730 000033E5 DDDD                    fstp st5 
  7731 000033E7 E832E3FFFF              call CompareFPUAndGRegsOnStackIgnoreOpAndIp
  7732                                 
  7733 000033EC C9                      leave
  7734                                 
  7735 000033ED 7408                    jz ..@2536.ok
  7736 000033EF 0502090000              add eax, 2306
  7737 000033F4 E9DD040000              jmp .return
  7738                                 ..@2536.ok:
  7739                                 %line 2307+1 /home/se170/VirtualBox-4.3.28/src/VBox/VMM/testcase/tstX86-1A.asm
  7740 000033F9 DBE2                    fnclex
  7741                                 %line 2307+0 /home/se170/VirtualBox-4.3.28/src/VBox/VMM/testcase/tstX86-1A.asm
  7742 000033FB E888E3FFFF              call SetFSW_C0_thru_C3
  7743                                 
  7744 00003400 55                      push rbp
  7745 00003401 4889E5                  mov rbp, rsp
  7746 00003404 4881EC00080000          sub rsp, 2048
  7747 0000340B 4883E4F0                and rsp, ~0f
  7748 0000340F C78424080400000000-     mov dword [rsp + 1024 + X86FXSTATE.FPUIP], 0
  7749 0000340F 0000               
  7750 0000341A C784240C0400000000-     mov dword [rsp + 1024 + X86FXSTATE.FPUCS], 0
  7751 0000341A 0000               
  7752 00003425 C78424100400000000-     mov dword [rsp + 1024 + X86FXSTATE.FPUDP], 0
  7753 00003425 0000               
  7754 00003430 C78424140400000000-     mov dword [rsp + 1024 + X86FXSTATE.FPUDS], 0
  7755 00003430 0000               
  7756 0000343B 480FAE842400040000      o64 fxsave [rsp + 1024]
  7757 00003444 DFD6                    db 0df
  7758 00003446 E8B6E1FFFF              call SaveFPUAndGRegsToStack
  7759                                 
  7760 0000344B 480FAE8C2400040000      o64 fxrstor [rsp + 1024]
  7761 00003454 DDDE                    fstp st6 
  7762 00003456 E8C3E2FFFF              call CompareFPUAndGRegsOnStackIgnoreOpAndIp
  7763                                 
  7764 0000345B C9                      leave
  7765                                 
  7766 0000345C 7408                    jz ..@2537.ok
  7767 0000345E 0503090000              add eax, 2307
  7768 00003463 E96E040000              jmp .return
  7769                                 ..@2537.ok:
  7770                                 %line 2308+1 /home/se170/VirtualBox-4.3.28/src/VBox/VMM/testcase/tstX86-1A.asm
  7771 00003468 DBE2                    fnclex
  7772                                 %line 2308+0 /home/se170/VirtualBox-4.3.28/src/VBox/VMM/testcase/tstX86-1A.asm
  7773 0000346A E819E3FFFF              call SetFSW_C0_thru_C3
  7774                                 
  7775 0000346F 55                      push rbp
  7776 00003470 4889E5                  mov rbp, rsp
  7777 00003473 4881EC00080000          sub rsp, 2048
  7778 0000347A 4883E4F0                and rsp, ~0f
  7779 0000347E C78424080400000000-     mov dword [rsp + 1024 + X86FXSTATE.FPUIP], 0
  7780 0000347E 0000               
  7781 00003489 C784240C0400000000-     mov dword [rsp + 1024 + X86FXSTATE.FPUCS], 0
  7782 00003489 0000               
  7783 00003494 C78424100400000000-     mov dword [rsp + 1024 + X86FXSTATE.FPUDP], 0
  7784 00003494 0000               
  7785 0000349F C78424140400000000-     mov dword [rsp + 1024 + X86FXSTATE.FPUDS], 0
  7786 0000349F 0000               
  7787 000034AA 480FAE842400040000      o64 fxsave [rsp + 1024]
  7788 000034B3 DFD7                    db 0df
  7789 000034B5 E847E1FFFF              call SaveFPUAndGRegsToStack
  7790                                 
  7791 000034BA 480FAE8C2400040000      o64 fxrstor [rsp + 1024]
  7792 000034C3 DDDF                    fstp st7 
  7793 000034C5 E854E2FFFF              call CompareFPUAndGRegsOnStackIgnoreOpAndIp
  7794                                 
  7795 000034CA C9                      leave
  7796                                 
  7797 000034CB 7408                    jz ..@2538.ok
  7798 000034CD 0504090000              add eax, 2308
  7799 000034D2 E9FF030000              jmp .return
  7800                                 ..@2538.ok:
  7801                                 %line 2309+1 /home/se170/VirtualBox-4.3.28/src/VBox/VMM/testcase/tstX86-1A.asm
  7802 000034D7 DBE2                    fnclex
  7803                                 %line 2309+0 /home/se170/VirtualBox-4.3.28/src/VBox/VMM/testcase/tstX86-1A.asm
  7804 000034D9 E8AAE2FFFF              call SetFSW_C0_thru_C3
  7805                                 
  7806 000034DE 55                      push rbp
  7807 000034DF 4889E5                  mov rbp, rsp
  7808 000034E2 4881EC00080000          sub rsp, 2048
  7809 000034E9 4883E4F0                and rsp, ~0f
  7810 000034ED C78424080400000000-     mov dword [rsp + 1024 + X86FXSTATE.FPUIP], 0
  7811 000034ED 0000               
  7812 000034F8 C784240C0400000000-     mov dword [rsp + 1024 + X86FXSTATE.FPUCS], 0
  7813 000034F8 0000               
  7814 00003503 C78424100400000000-     mov dword [rsp + 1024 + X86FXSTATE.FPUDP], 0
  7815 00003503 0000               
  7816 0000350E C78424140400000000-     mov dword [rsp + 1024 + X86FXSTATE.FPUDS], 0
  7817 0000350E 0000               
  7818 00003519 480FAE842400040000      o64 fxsave [rsp + 1024]
  7819 00003522 DFD8                    db 0df
  7820 00003524 E8D8E0FFFF              call SaveFPUAndGRegsToStack
  7821                                 
  7822 00003529 480FAE8C2400040000      o64 fxrstor [rsp + 1024]
  7823 00003532 DDD8                    fstp st0 
  7824 00003534 E8E5E1FFFF              call CompareFPUAndGRegsOnStackIgnoreOpAndIp
  7825                                 
  7826 00003539 C9                      leave
  7827                                 
  7828 0000353A 7408                    jz ..@2539.ok
  7829 0000353C 0505090000              add eax, 2309
  7830 00003541 E990030000              jmp .return
  7831                                 ..@2539.ok:
  7832                                 %line 2310+1 /home/se170/VirtualBox-4.3.28/src/VBox/VMM/testcase/tstX86-1A.asm
  7833 00003546 DBE2                    fnclex
  7834                                 %line 2310+0 /home/se170/VirtualBox-4.3.28/src/VBox/VMM/testcase/tstX86-1A.asm
  7835 00003548 E83BE2FFFF              call SetFSW_C0_thru_C3
  7836                                 
  7837 0000354D 55                      push rbp
  7838 0000354E 4889E5                  mov rbp, rsp
  7839 00003551 4881EC00080000          sub rsp, 2048
  7840 00003558 4883E4F0                and rsp, ~0f
  7841 0000355C C78424080400000000-     mov dword [rsp + 1024 + X86FXSTATE.FPUIP], 0
  7842 0000355C 0000               
  7843 00003567 C784240C0400000000-     mov dword [rsp + 1024 + X86FXSTATE.FPUCS], 0
  7844 00003567 0000               
  7845 00003572 C78424100400000000-     mov dword [rsp + 1024 + X86FXSTATE.FPUDP], 0
  7846 00003572 0000               
  7847 0000357D C78424140400000000-     mov dword [rsp + 1024 + X86FXSTATE.FPUDS], 0
  7848 0000357D 0000               
  7849 00003588 480FAE842400040000      o64 fxsave [rsp + 1024]
  7850 00003591 DFD9                    db 0df
  7851 00003593 E869E0FFFF              call SaveFPUAndGRegsToStack
  7852                                 
  7853 00003598 480FAE8C2400040000      o64 fxrstor [rsp + 1024]
  7854 000035A1 DDD9                    fstp st1 
  7855 000035A3 E876E1FFFF              call CompareFPUAndGRegsOnStackIgnoreOpAndIp
  7856                                 
  7857 000035A8 C9                      leave
  7858                                 
  7859 000035A9 7408                    jz ..@2540.ok
  7860 000035AB 0506090000              add eax, 2310
  7861 000035B0 E921030000              jmp .return
  7862                                 ..@2540.ok:
  7863                                 %line 2311+1 /home/se170/VirtualBox-4.3.28/src/VBox/VMM/testcase/tstX86-1A.asm
  7864 000035B5 DBE2                    fnclex
  7865                                 %line 2311+0 /home/se170/VirtualBox-4.3.28/src/VBox/VMM/testcase/tstX86-1A.asm
  7866 000035B7 E8CCE1FFFF              call SetFSW_C0_thru_C3
  7867                                 
  7868 000035BC 55                      push rbp
  7869 000035BD 4889E5                  mov rbp, rsp
  7870 000035C0 4881EC00080000          sub rsp, 2048
  7871 000035C7 4883E4F0                and rsp, ~0f
  7872 000035CB C78424080400000000-     mov dword [rsp + 1024 + X86FXSTATE.FPUIP], 0
  7873 000035CB 0000               
  7874 000035D6 C784240C0400000000-     mov dword [rsp + 1024 + X86FXSTATE.FPUCS], 0
  7875 000035D6 0000               
  7876 000035E1 C78424100400000000-     mov dword [rsp + 1024 + X86FXSTATE.FPUDP], 0
  7877 000035E1 0000               
  7878 000035EC C78424140400000000-     mov dword [rsp + 1024 + X86FXSTATE.FPUDS], 0
  7879 000035EC 0000               
  7880 000035F7 480FAE842400040000      o64 fxsave [rsp + 1024]
  7881 00003600 DFDA                    db 0df
  7882 00003602 E8FADFFFFF              call SaveFPUAndGRegsToStack
  7883                                 
  7884 00003607 480FAE8C2400040000      o64 fxrstor [rsp + 1024]
  7885 00003610 DDDA                    fstp st2 
  7886 00003612 E807E1FFFF              call CompareFPUAndGRegsOnStackIgnoreOpAndIp
  7887                                 
  7888 00003617 C9                      leave
  7889                                 
  7890 00003618 7408                    jz ..@2541.ok
  7891 0000361A 0507090000              add eax, 2311
  7892 0000361F E9B2020000              jmp .return
  7893                                 ..@2541.ok:
  7894                                 %line 2312+1 /home/se170/VirtualBox-4.3.28/src/VBox/VMM/testcase/tstX86-1A.asm
  7895 00003624 DBE2                    fnclex
  7896                                 %line 2312+0 /home/se170/VirtualBox-4.3.28/src/VBox/VMM/testcase/tstX86-1A.asm
  7897 00003626 E85DE1FFFF              call SetFSW_C0_thru_C3
  7898                                 
  7899 0000362B 55                      push rbp
  7900 0000362C 4889E5                  mov rbp, rsp
  7901 0000362F 4881EC00080000          sub rsp, 2048
  7902 00003636 4883E4F0                and rsp, ~0f
  7903 0000363A C78424080400000000-     mov dword [rsp + 1024 + X86FXSTATE.FPUIP], 0
  7904 0000363A 0000               
  7905 00003645 C784240C0400000000-     mov dword [rsp + 1024 + X86FXSTATE.FPUCS], 0
  7906 00003645 0000               
  7907 00003650 C78424100400000000-     mov dword [rsp + 1024 + X86FXSTATE.FPUDP], 0
  7908 00003650 0000               
  7909 0000365B C78424140400000000-     mov dword [rsp + 1024 + X86FXSTATE.FPUDS], 0
  7910 0000365B 0000               
  7911 00003666 480FAE842400040000      o64 fxsave [rsp + 1024]
  7912 0000366F DFDB                    db 0df
  7913 00003671 E88BDFFFFF              call SaveFPUAndGRegsToStack
  7914                                 
  7915 00003676 480FAE8C2400040000      o64 fxrstor [rsp + 1024]
  7916 0000367F DDDB                    fstp st3 
  7917 00003681 E898E0FFFF              call CompareFPUAndGRegsOnStackIgnoreOpAndIp
  7918                                 
  7919 00003686 C9                      leave
  7920                                 
  7921 00003687 7408                    jz ..@2542.ok
  7922 00003689 0508090000              add eax, 2312
  7923 0000368E E943020000              jmp .return
  7924                                 ..@2542.ok:
  7925                                 %line 2313+1 /home/se170/VirtualBox-4.3.28/src/VBox/VMM/testcase/tstX86-1A.asm
  7926 00003693 DBE2                    fnclex
  7927                                 %line 2313+0 /home/se170/VirtualBox-4.3.28/src/VBox/VMM/testcase/tstX86-1A.asm
  7928 00003695 E8EEE0FFFF              call SetFSW_C0_thru_C3
  7929                                 
  7930 0000369A 55                      push rbp
  7931 0000369B 4889E5                  mov rbp, rsp
  7932 0000369E 4881EC00080000          sub rsp, 2048
  7933 000036A5 4883E4F0                and rsp, ~0f
  7934 000036A9 C78424080400000000-     mov dword [rsp + 1024 + X86FXSTATE.FPUIP], 0
  7935 000036A9 0000               
  7936 000036B4 C784240C0400000000-     mov dword [rsp + 1024 + X86FXSTATE.FPUCS], 0
  7937 000036B4 0000               
  7938 000036BF C78424100400000000-     mov dword [rsp + 1024 + X86FXSTATE.FPUDP], 0
  7939 000036BF 0000               
  7940 000036CA C78424140400000000-     mov dword [rsp + 1024 + X86FXSTATE.FPUDS], 0
  7941 000036CA 0000               
  7942 000036D5 480FAE842400040000      o64 fxsave [rsp + 1024]
  7943 000036DE DFDC                    db 0df
  7944 000036E0 E81CDFFFFF              call SaveFPUAndGRegsToStack
  7945                                 
  7946 000036E5 480FAE8C2400040000      o64 fxrstor [rsp + 1024]
  7947 000036EE DDDC                    fstp st4 
  7948 000036F0 E829E0FFFF              call CompareFPUAndGRegsOnStackIgnoreOpAndIp
  7949                                 
  7950 000036F5 C9                      leave
  7951                                 
  7952 000036F6 7408                    jz ..@2543.ok
  7953 000036F8 0509090000              add eax, 2313
  7954 000036FD E9D4010000              jmp .return
  7955                                 ..@2543.ok:
  7956                                 %line 2314+1 /home/se170/VirtualBox-4.3.28/src/VBox/VMM/testcase/tstX86-1A.asm
  7957 00003702 DBE2                    fnclex
  7958                                 %line 2314+0 /home/se170/VirtualBox-4.3.28/src/VBox/VMM/testcase/tstX86-1A.asm
  7959 00003704 E87FE0FFFF              call SetFSW_C0_thru_C3
  7960                                 
  7961 00003709 55                      push rbp
  7962 0000370A 4889E5                  mov rbp, rsp
  7963 0000370D 4881EC00080000          sub rsp, 2048
  7964 00003714 4883E4F0                and rsp, ~0f
  7965 00003718 C78424080400000000-     mov dword [rsp + 1024 + X86FXSTATE.FPUIP], 0
  7966 00003718 0000               
  7967 00003723 C784240C0400000000-     mov dword [rsp + 1024 + X86FXSTATE.FPUCS], 0
  7968 00003723 0000               
  7969 0000372E C78424100400000000-     mov dword [rsp + 1024 + X86FXSTATE.FPUDP], 0
  7970 0000372E 0000               
  7971 00003739 C78424140400000000-     mov dword [rsp + 1024 + X86FXSTATE.FPUDS], 0
  7972 00003739 0000               
  7973 00003744 480FAE842400040000      o64 fxsave [rsp + 1024]
  7974 0000374D DFDD                    db 0df
  7975 0000374F E8ADDEFFFF              call SaveFPUAndGRegsToStack
  7976                                 
  7977 00003754 480FAE8C2400040000      o64 fxrstor [rsp + 1024]
  7978 0000375D DDDD                    fstp st5 
  7979 0000375F E8BADFFFFF              call CompareFPUAndGRegsOnStackIgnoreOpAndIp
  7980                                 
  7981 00003764 C9                      leave
  7982                                 
  7983 00003765 7408                    jz ..@2544.ok
  7984 00003767 050A090000              add eax, 2314
  7985 0000376C E965010000              jmp .return
  7986                                 ..@2544.ok:
  7987                                 %line 2315+1 /home/se170/VirtualBox-4.3.28/src/VBox/VMM/testcase/tstX86-1A.asm
  7988 00003771 DBE2                    fnclex
  7989                                 %line 2315+0 /home/se170/VirtualBox-4.3.28/src/VBox/VMM/testcase/tstX86-1A.asm
  7990 00003773 E810E0FFFF              call SetFSW_C0_thru_C3
  7991                                 
  7992 00003778 55                      push rbp
  7993 00003779 4889E5                  mov rbp, rsp
  7994 0000377C 4881EC00080000          sub rsp, 2048
  7995 00003783 4883E4F0                and rsp, ~0f
  7996 00003787 C78424080400000000-     mov dword [rsp + 1024 + X86FXSTATE.FPUIP], 0
  7997 00003787 0000               
  7998 00003792 C784240C0400000000-     mov dword [rsp + 1024 + X86FXSTATE.FPUCS], 0
  7999 00003792 0000               
  8000 0000379D C78424100400000000-     mov dword [rsp + 1024 + X86FXSTATE.FPUDP], 0
  8001 0000379D 0000               
  8002 000037A8 C78424140400000000-     mov dword [rsp + 1024 + X86FXSTATE.FPUDS], 0
  8003 000037A8 0000               
  8004 000037B3 480FAE842400040000      o64 fxsave [rsp + 1024]
  8005 000037BC DFDE                    db 0df
  8006 000037BE E83EDEFFFF              call SaveFPUAndGRegsToStack
  8007                                 
  8008 000037C3 480FAE8C2400040000      o64 fxrstor [rsp + 1024]
  8009 000037CC DDDE                    fstp st6 
  8010 000037CE E84BDFFFFF              call CompareFPUAndGRegsOnStackIgnoreOpAndIp
  8011                                 
  8012 000037D3 C9                      leave
  8013                                 
  8014 000037D4 7408                    jz ..@2545.ok
  8015 000037D6 050B090000              add eax, 2315
  8016 000037DB E9F6000000              jmp .return
  8017                                 ..@2545.ok:
  8018                                 %line 2316+1 /home/se170/VirtualBox-4.3.28/src/VBox/VMM/testcase/tstX86-1A.asm
  8019 000037E0 DBE2                    fnclex
  8020                                 %line 2316+0 /home/se170/VirtualBox-4.3.28/src/VBox/VMM/testcase/tstX86-1A.asm
  8021 000037E2 E8A1DFFFFF              call SetFSW_C0_thru_C3
  8022                                 
  8023 000037E7 55                      push rbp
  8024 000037E8 4889E5                  mov rbp, rsp
  8025 000037EB 4881EC00080000          sub rsp, 2048
  8026 000037F2 4883E4F0                and rsp, ~0f
  8027 000037F6 C78424080400000000-     mov dword [rsp + 1024 + X86FXSTATE.FPUIP], 0
  8028 000037F6 0000               
  8029 00003801 C784240C0400000000-     mov dword [rsp + 1024 + X86FXSTATE.FPUCS], 0
  8030 00003801 0000               
  8031 0000380C C78424100400000000-     mov dword [rsp + 1024 + X86FXSTATE.FPUDP], 0
  8032 0000380C 0000               
  8033 00003817 C78424140400000000-     mov dword [rsp + 1024 + X86FXSTATE.FPUDS], 0
  8034 00003817 0000               
  8035 00003822 480FAE842400040000      o64 fxsave [rsp + 1024]
  8036 0000382B DFDF                    db 0df
  8037 0000382D E8CFDDFFFF              call SaveFPUAndGRegsToStack
  8038                                 
  8039 00003832 480FAE8C2400040000      o64 fxrstor [rsp + 1024]
  8040 0000383B DDDF                    fstp st7 
  8041 0000383D E8DCDEFFFF              call CompareFPUAndGRegsOnStackIgnoreOpAndIp
  8042                                 
  8043 00003842 C9                      leave
  8044                                 
  8045 00003843 7408                    jz ..@2546.ok
  8046 00003845 050C090000              add eax, 2316
  8047 0000384A E987000000              jmp .return
  8048                                 ..@2546.ok:
  8049                                 %line 2317+1 /home/se170/VirtualBox-4.3.28/src/VBox/VMM/testcase/tstX86-1A.asm
  8050                                 ..@2547.trap:
  8051                                 %line 2317+0 /home/se170/VirtualBox-4.3.28/src/VBox/VMM/testcase/tstX86-1A.asm
  8052 0000384F DFE1                    db 0df
  8053                                 ..@2547.trap_end:
  8054 00003851 B80D090000              mov eax, 2317
  8055 00003856 E97B000000              jmp .return
  8056                                 [section .data]
  8057                                 ..@2547.trapinfo: 
  8058                                 ..@2551.strucstart:
  8059 00001ACC [0000000000000000]     dq ..@2547.trap
  8060 00001AD4 [0000000000000000]     dq ..@2547.resume
  8061 00001ADC 06                     db 0x06
  8062 00001ADD 02                     db (..@2547.trap_end - ..@2547.trap)
  8063 00001ADE 00<rept>               times TRAPINFO_size-($-..@2551.strucstart) db 0
  8064                                 [section .text]
  8065                                 ..@2547.resume:
  8066                                 %line 2318+1 /home/se170/VirtualBox-4.3.28/src/VBox/VMM/testcase/tstX86-1A.asm
  8067                                 ..@2559.trap:
  8068                                 %line 2318+0 /home/se170/VirtualBox-4.3.28/src/VBox/VMM/testcase/tstX86-1A.asm
  8069 0000385B DFE2                    db 0df
  8070                                 ..@2559.trap_end:
  8071 0000385D B80E090000              mov eax, 2318
  8072 00003862 EB75                    jmp .return
  8073                                 [section .data]
  8074                                 ..@2559.trapinfo: 
  8075                                 ..@2563.strucstart:
  8076 00001AEC [0000000000000000]     dq ..@2559.trap
  8077 00001AF4 [0000000000000000]     dq ..@2559.resume
  8078 00001AFC 06                     db 0x06
  8079 00001AFD 02                     db (..@2559.trap_end - ..@2559.trap)
  8080 00001AFE 00<rept>               times TRAPINFO_size-($-..@2563.strucstart) db 0
  8081                                 [section .text]
  8082                                 ..@2559.resume:
  8083                                 %line 2319+1 /home/se170/VirtualBox-4.3.28/src/VBox/VMM/testcase/tstX86-1A.asm
  8084                                 ..@2571.trap:
  8085                                 %line 2319+0 /home/se170/VirtualBox-4.3.28/src/VBox/VMM/testcase/tstX86-1A.asm
  8086 00003864 DFE3                    db 0df
  8087                                 ..@2571.trap_end:
  8088 00003866 B80F090000              mov eax, 2319
  8089 0000386B EB6C                    jmp .return
  8090                                 [section .data]
  8091                                 ..@2571.trapinfo: 
  8092                                 ..@2575.strucstart:
  8093 00001B0C [0000000000000000]     dq ..@2571.trap
  8094 00001B14 [0000000000000000]     dq ..@2571.resume
  8095 00001B1C 06                     db 0x06
  8096 00001B1D 02                     db (..@2571.trap_end - ..@2571.trap)
  8097 00001B1E 00<rept>               times TRAPINFO_size-($-..@2575.strucstart) db 0
  8098                                 [section .text]
  8099                                 ..@2571.resume:
  8100                                 %line 2320+1 /home/se170/VirtualBox-4.3.28/src/VBox/VMM/testcase/tstX86-1A.asm
  8101                                 ..@2583.trap:
  8102                                 %line 2320+0 /home/se170/VirtualBox-4.3.28/src/VBox/VMM/testcase/tstX86-1A.asm
  8103 0000386D DFE4                    db 0df
  8104                                 ..@2583.trap_end:
  8105 0000386F B810090000              mov eax, 2320
  8106 00003874 EB63                    jmp .return
  8107                                 [section .data]
  8108                                 ..@2583.trapinfo: 
  8109                                 ..@2587.strucstart:
  8110 00001B2C [0000000000000000]     dq ..@2583.trap
  8111 00001B34 [0000000000000000]     dq ..@2583.resume
  8112 00001B3C 06                     db 0x06
  8113 00001B3D 02                     db (..@2583.trap_end - ..@2583.trap)
  8114 00001B3E 00<rept>               times TRAPINFO_size-($-..@2587.strucstart) db 0
  8115                                 [section .text]
  8116                                 ..@2583.resume:
  8117                                 %line 2321+1 /home/se170/VirtualBox-4.3.28/src/VBox/VMM/testcase/tstX86-1A.asm
  8118                                 ..@2595.trap:
  8119                                 %line 2321+0 /home/se170/VirtualBox-4.3.28/src/VBox/VMM/testcase/tstX86-1A.asm
  8120 00003876 DFE5                    db 0df
  8121                                 ..@2595.trap_end:
  8122 00003878 B811090000              mov eax, 2321
  8123 0000387D EB5A                    jmp .return
  8124                                 [section .data]
  8125                                 ..@2595.trapinfo: 
  8126                                 ..@2599.strucstart:
  8127 00001B4C [0000000000000000]     dq ..@2595.trap
  8128 00001B54 [0000000000000000]     dq ..@2595.resume
  8129 00001B5C 06                     db 0x06
  8130 00001B5D 02                     db (..@2595.trap_end - ..@2595.trap)
  8131 00001B5E 00<rept>               times TRAPINFO_size-($-..@2599.strucstart) db 0
  8132                                 [section .text]
  8133                                 ..@2595.resume:
  8134                                 %line 2322+1 /home/se170/VirtualBox-4.3.28/src/VBox/VMM/testcase/tstX86-1A.asm
  8135                                 ..@2607.trap:
  8136                                 %line 2322+0 /home/se170/VirtualBox-4.3.28/src/VBox/VMM/testcase/tstX86-1A.asm
  8137 0000387F DFE6                    db 0df
  8138                                 ..@2607.trap_end:
  8139 00003881 B812090000              mov eax, 2322
  8140 00003886 EB51                    jmp .return
  8141                                 [section .data]
  8142                                 ..@2607.trapinfo: 
  8143                                 ..@2611.strucstart:
  8144 00001B6C [0000000000000000]     dq ..@2607.trap
  8145 00001B74 [0000000000000000]     dq ..@2607.resume
  8146 00001B7C 06                     db 0x06
  8147 00001B7D 02                     db (..@2607.trap_end - ..@2607.trap)
  8148 00001B7E 00<rept>               times TRAPINFO_size-($-..@2611.strucstart) db 0
  8149                                 [section .text]
  8150                                 ..@2607.resume:
  8151                                 %line 2323+1 /home/se170/VirtualBox-4.3.28/src/VBox/VMM/testcase/tstX86-1A.asm
  8152                                 ..@2619.trap:
  8153                                 %line 2323+0 /home/se170/VirtualBox-4.3.28/src/VBox/VMM/testcase/tstX86-1A.asm
  8154 00003888 DFE7                    db 0df
  8155                                 ..@2619.trap_end:
  8156 0000388A B813090000              mov eax, 2323
  8157 0000388F EB48                    jmp .return
  8158                                 [section .data]
  8159                                 ..@2619.trapinfo: 
  8160                                 ..@2623.strucstart:
  8161 00001B8C [0000000000000000]     dq ..@2619.trap
  8162 00001B94 [0000000000000000]     dq ..@2619.resume
  8163 00001B9C 06                     db 0x06
  8164 00001B9D 02                     db (..@2619.trap_end - ..@2619.trap)
  8165 00001B9E 00<rept>               times TRAPINFO_size-($-..@2623.strucstart) db 0
  8166                                 [section .text]
  8167                                 ..@2619.resume:
  8168                                 %line 2324+1 /home/se170/VirtualBox-4.3.28/src/VBox/VMM/testcase/tstX86-1A.asm
  8169                                 ..@2631.trap:
  8170                                 %line 2324+0 /home/se170/VirtualBox-4.3.28/src/VBox/VMM/testcase/tstX86-1A.asm
  8171 00003891 DFF8                    db 0df
  8172                                 ..@2631.trap_end:
  8173 00003893 B814090000              mov eax, 2324
  8174 00003898 EB3F                    jmp .return
  8175                                 [section .data]
  8176                                 ..@2631.trapinfo: 
  8177                                 ..@2635.strucstart:
  8178 00001BAC [0000000000000000]     dq ..@2631.trap
  8179 00001BB4 [0000000000000000]     dq ..@2631.resume
  8180 00001BBC 06                     db 0x06
  8181 00001BBD 02                     db (..@2631.trap_end - ..@2631.trap)
  8182 00001BBE 00<rept>               times TRAPINFO_size-($-..@2635.strucstart) db 0
  8183                                 [section .text]
  8184                                 ..@2631.resume:
  8185                                 %line 2325+1 /home/se170/VirtualBox-4.3.28/src/VBox/VMM/testcase/tstX86-1A.asm
  8186                                 ..@2643.trap:
  8187                                 %line 2325+0 /home/se170/VirtualBox-4.3.28/src/VBox/VMM/testcase/tstX86-1A.asm
  8188 0000389A DFF9                    db 0df
  8189                                 ..@2643.trap_end:
  8190 0000389C B815090000              mov eax, 2325
  8191 000038A1 EB36                    jmp .return
  8192                                 [section .data]
  8193                                 ..@2643.trapinfo: 
  8194                                 ..@2647.strucstart:
  8195 00001BCC [0000000000000000]     dq ..@2643.trap
  8196 00001BD4 [0000000000000000]     dq ..@2643.resume
  8197 00001BDC 06                     db 0x06
  8198 00001BDD 02                     db (..@2643.trap_end - ..@2643.trap)
  8199 00001BDE 00<rept>               times TRAPINFO_size-($-..@2647.strucstart) db 0
  8200                                 [section .text]
  8201                                 ..@2643.resume:
  8202                                 %line 2326+1 /home/se170/VirtualBox-4.3.28/src/VBox/VMM/testcase/tstX86-1A.asm
  8203                                 ..@2655.trap:
  8204                                 %line 2326+0 /home/se170/VirtualBox-4.3.28/src/VBox/VMM/testcase/tstX86-1A.asm
  8205 000038A3 DFFA                    db 0df
  8206                                 ..@2655.trap_end:
  8207 000038A5 B816090000              mov eax, 2326
  8208 000038AA EB2D                    jmp .return
  8209                                 [section .data]
  8210                                 ..@2655.trapinfo: 
  8211                                 ..@2659.strucstart:
  8212 00001BEC [0000000000000000]     dq ..@2655.trap
  8213 00001BF4 [0000000000000000]     dq ..@2655.resume
  8214 00001BFC 06                     db 0x06
  8215 00001BFD 02                     db (..@2655.trap_end - ..@2655.trap)
  8216 00001BFE 00<rept>               times TRAPINFO_size-($-..@2659.strucstart) db 0
  8217                                 [section .text]
  8218                                 ..@2655.resume:
  8219                                 %line 2327+1 /home/se170/VirtualBox-4.3.28/src/VBox/VMM/testcase/tstX86-1A.asm
  8220                                 ..@2667.trap:
  8221                                 %line 2327+0 /home/se170/VirtualBox-4.3.28/src/VBox/VMM/testcase/tstX86-1A.asm
  8222 000038AC DFFB                    db 0df
  8223                                 ..@2667.trap_end:
  8224 000038AE B817090000              mov eax, 2327
  8225 000038B3 EB24                    jmp .return
  8226                                 [section .data]
  8227                                 ..@2667.trapinfo: 
  8228                                 ..@2671.strucstart:
  8229 00001C0C [0000000000000000]     dq ..@2667.trap
  8230 00001C14 [0000000000000000]     dq ..@2667.resume
  8231 00001C1C 06                     db 0x06
  8232 00001C1D 02                     db (..@2667.trap_end - ..@2667.trap)
  8233 00001C1E 00<rept>               times TRAPINFO_size-($-..@2671.strucstart) db 0
  8234                                 [section .text]
  8235                                 ..@2667.resume:
  8236                                 %line 2328+1 /home/se170/VirtualBox-4.3.28/src/VBox/VMM/testcase/tstX86-1A.asm
  8237                                 ..@2679.trap:
  8238                                 %line 2328+0 /home/se170/VirtualBox-4.3.28/src/VBox/VMM/testcase/tstX86-1A.asm
  8239 000038B5 DFFC                    db 0df
  8240                                 ..@2679.trap_end:
  8241 000038B7 B818090000              mov eax, 2328
  8242 000038BC EB1B                    jmp .return
  8243                                 [section .data]
  8244                                 ..@2679.trapinfo: 
  8245                                 ..@2683.strucstart:
  8246 00001C2C [0000000000000000]     dq ..@2679.trap
  8247 00001C34 [0000000000000000]     dq ..@2679.resume
  8248 00001C3C 06                     db 0x06
  8249 00001C3D 02                     db (..@2679.trap_end - ..@2679.trap)
  8250 00001C3E 00<rept>               times TRAPINFO_size-($-..@2683.strucstart) db 0
  8251                                 [section .text]
  8252                                 ..@2679.resume:
  8253                                 %line 2329+1 /home/se170/VirtualBox-4.3.28/src/VBox/VMM/testcase/tstX86-1A.asm
  8254                                 ..@2691.trap:
  8255                                 %line 2329+0 /home/se170/VirtualBox-4.3.28/src/VBox/VMM/testcase/tstX86-1A.asm
  8256 000038BE DFFD                    db 0df
  8257                                 ..@2691.trap_end:
  8258 000038C0 B819090000              mov eax, 2329
  8259 000038C5 EB12                    jmp .return
  8260                                 [section .data]
  8261                                 ..@2691.trapinfo: 
  8262                                 ..@2695.strucstart:
  8263 00001C4C [0000000000000000]     dq ..@2691.trap
  8264 00001C54 [0000000000000000]     dq ..@2691.resume
  8265 00001C5C 06                     db 0x06
  8266 00001C5D 02                     db (..@2691.trap_end - ..@2691.trap)
  8267 00001C5E 00<rept>               times TRAPINFO_size-($-..@2695.strucstart) db 0
  8268                                 [section .text]
  8269                                 ..@2691.resume:
  8270                                 %line 2330+1 /home/se170/VirtualBox-4.3.28/src/VBox/VMM/testcase/tstX86-1A.asm
  8271                                 ..@2703.trap:
  8272                                 %line 2330+0 /home/se170/VirtualBox-4.3.28/src/VBox/VMM/testcase/tstX86-1A.asm
  8273 000038C7 DFFE                    db 0df
  8274                                 ..@2703.trap_end:
  8275 000038C9 B81A090000              mov eax, 2330
  8276 000038CE EB09                    jmp .return
  8277                                 [section .data]
  8278                                 ..@2703.trapinfo: 
  8279                                 ..@2707.strucstart:
  8280 00001C6C [0000000000000000]     dq ..@2703.trap
  8281 00001C74 [0000000000000000]     dq ..@2703.resume
  8282 00001C7C 06                     db 0x06
  8283 00001C7D 02                     db (..@2703.trap_end - ..@2703.trap)
  8284 00001C7E 00<rept>               times TRAPINFO_size-($-..@2707.strucstart) db 0
  8285                                 [section .text]
  8286                                 ..@2703.resume:
  8287                                 %line 2331+1 /home/se170/VirtualBox-4.3.28/src/VBox/VMM/testcase/tstX86-1A.asm
  8288                                 ..@2715.trap:
  8289                                 %line 2331+0 /home/se170/VirtualBox-4.3.28/src/VBox/VMM/testcase/tstX86-1A.asm
  8290 000038D0 DFFF                    db 0df
  8291                                 ..@2715.trap_end:
  8292 000038D2 B81B090000              mov eax, 2331
  8293 000038D7 EB00                    jmp .return
  8294                                 [section .data]
  8295                                 ..@2715.trapinfo: 
  8296                                 ..@2719.strucstart:
  8297 00001C8C [0000000000000000]     dq ..@2715.trap
  8298 00001C94 [0000000000000000]     dq ..@2715.resume
  8299 00001C9C 06                     db 0x06
  8300 00001C9D 02                     db (..@2715.trap_end - ..@2715.trap)
  8301 00001C9E 00<rept>               times TRAPINFO_size-($-..@2719.strucstart) db 0
  8302                                 [section .text]
  8303                                 ..@2715.resume:
  8304                                 %line 2332+1 /home/se170/VirtualBox-4.3.28/src/VBox/VMM/testcase/tstX86-1A.asm
  8305                                 
  8306                                 
  8307                                 .success:
  8308 000038D9 31C0                    xor eax, eax
  8309                                 .return:
  8310 000038DB 488D6590                lea rsp, [rbp - 14 * 8]
  8311                                 %line 2337+0 /home/se170/VirtualBox-4.3.28/src/VBox/VMM/testcase/tstX86-1A.asm
  8312 000038DF 415F                    pop r15
  8313 000038E1 415E                    pop r14
  8314 000038E3 415D                    pop r13
  8315 000038E5 415C                    pop r12
  8316 000038E7 415B                    pop r11
  8317 000038E9 415A                    pop r10
  8318 000038EB 4159                    pop r9
  8319 000038ED 4158                    pop r8
  8320 000038EF 5F                      pop rdi
  8321 000038F0 5E                      pop rsi
  8322 000038F1 5A                      pop rdx
  8323 000038F2 59                      pop rcx
  8324 000038F3 5B                      pop rbx
  8325 000038F4 9D                      popf
  8326 000038F5 C9                      leave
  8327                                 %line 2338+1 /home/se170/VirtualBox-4.3.28/src/VBox/VMM/testcase/tstX86-1A.asm
  8328 000038F6 C3                      ret
  8329                                 
  8330                                 [global x861_Test6_EndProc:function hidden]
  8331                                 %line 2340+0 /home/se170/VirtualBox-4.3.28/src/VBox/VMM/testcase/tstX86-1A.asm
  8332                                 x861_Test6_EndProc:
  8333                                 [size x861_Test6 x861_Test6_EndProc - x861_Test6]
  8334                                 [size x861_Test6_EndProc 0]
  8335 000038F7 CCCCCCCC                db 0xCC, 0xCC, 0xCC, 0xCC
  8336                                 %line 2341+1 /home/se170/VirtualBox-4.3.28/src/VBox/VMM/testcase/tstX86-1A.asm
  8337                                 
  8338                                 
  8339                                 
  8340                                 
  8341                                 
  8342                                 
  8343                                 
  8344                                 [global x861_Test7:function hidden]
  8345                                 %line 2348+0 /home/se170/VirtualBox-4.3.28/src/VBox/VMM/testcase/tstX86-1A.asm
  8346                                 x861_Test7:
  8347                                 %line 2349+1 /home/se170/VirtualBox-4.3.28/src/VBox/VMM/testcase/tstX86-1A.asm
  8348 000038FB 55                      push rbp
  8349                                 %line 2349+0 /home/se170/VirtualBox-4.3.28/src/VBox/VMM/testcase/tstX86-1A.asm
  8350 000038FC 4889E5                  mov rbp, rsp
  8351 000038FF 9C                      pushf
  8352 00003900 53                      push rbx
  8353 00003901 51                      push rcx
  8354 00003902 52                      push rdx
  8355 00003903 56                      push rsi
  8356 00003904 57                      push rdi
  8357 00003905 4150                    push r8
  8358 00003907 4151                    push r9
  8359 00003909 4152                    push r10
  8360 0000390B 4153                    push r11
  8361 0000390D 4154                    push r12
  8362 0000390F 4155                    push r13
  8363 00003911 4156                    push r14
  8364 00003913 4157                    push r15
  8365 00003915 4883E4F0                and rsp, ~0f
  8366                                 %line 2350+1 /home/se170/VirtualBox-4.3.28/src/VBox/VMM/testcase/tstX86-1A.asm
  8367 00003919 4881EC00080000          sub rsp, 2048
  8368                                 
  8369                                 
  8370 00003920 488D35(F2FFFFFF)        lea rsi, [g_r32V1 wrt rip]
  8371 00003927 488B3D(F2FFFFFF)        mov rdi, [g_pbEfExecPage wrt rip]
  8372 0000392E 4881C700100000          add rdi, 0x1000
  8373                                 
  8374                                 
  8375                                 
  8376                                 
  8377                                 
  8378 00003935 DBE3                    fninit
  8379 00003937 C7042400030000          mov dword [rsp], 0x0300 | 0x0000
  8380 0000393E D92C24                  fldcw [rsp]
  8381 00003941 DBE2                    fnclex
  8382                                 %line 2364+0 /home/se170/VirtualBox-4.3.28/src/VBox/VMM/testcase/tstX86-1A.asm
  8383 00003943 D905(F4FFFFFF)          fld dword [g_r32D0 wrt rip]
  8384                                 ..@2737.trap:
  8385 00003949 9B                      fwait
  8386                                 ..@2737.trap_end:
  8387 0000394A B83C090000              mov eax, 2364
  8388 0000394F E924030000              jmp .return
  8389                                 [section .data]
  8390                                 ..@2737.trapinfo: 
  8391                                 ..@2741.strucstart:
  8392 00001CAC [0000000000000000]     dq ..@2737.trap
  8393 00001CB4 [0000000000000000]     dq ..@2737.resume
  8394 00001CBC 10                     db 0x10
  8395 00001CBD 01                     db (..@2737.trap_end - ..@2737.trap)
  8396 00001CBE 00<rept>               times TRAPINFO_size-($-..@2741.strucstart) db 0
  8397                                 [section .text]
  8398                                 ..@2737.resume:
  8399                                 ..@2749.resume:
  8400 00003954 DFE0                    fnstsw ax
  8401 00003956 25FFC7FFFF              and eax, ~0x3800 & ~(0)
  8402 0000395B 3D82800000              cmp eax, ((((1 << 1)) | (1 << 7) | (1 << 15)))
  8403 00003960 740A                    je ..@2749.ok
  8404                                 
  8405 00003962 678D80802D170E          lea eax, [eax + 2364 * 100000]
  8406 00003969 E90A030000              jmp .return
  8407                                 ..@2749.ok:
  8408 0000396E DBE2                    fnclex
  8409                                 %line 2365+1 /home/se170/VirtualBox-4.3.28/src/VBox/VMM/testcase/tstX86-1A.asm
  8410 00003970 DB3C24                  fstp tword [rsp]
  8411                                 %line 2365+0 /home/se170/VirtualBox-4.3.28/src/VBox/VMM/testcase/tstX86-1A.asm
  8412 00003973 DB2C24                  fld tword [rsp]
  8413 00003976 833C2400                cmp dword [rsp], 0x00000000
  8414 0000397A 7408                    je ..@2750.ok1
  8415                                 ..@2750.bad:
  8416 0000397C B83D090000              mov eax, 2365
  8417 00003981 E9F2020000              jmp .return
  8418                                 ..@2750.ok1:
  8419 00003986 817C240400000080        cmp dword [rsp + 4], 0x80000000
  8420 0000398E 75EA                    jne ..@2750.bad
  8421 00003990 66817C24087F3F          cmp word [rsp + 8], 0x3f7f
  8422 00003997 75E1                    jne ..@2750.bad
  8423                                 %line 2366+1 /home/se170/VirtualBox-4.3.28/src/VBox/VMM/testcase/tstX86-1A.asm
  8424                                 
  8425 00003999 C7042402030000          mov dword [rsp], 0x0300 | 0x0000 | (1 << 1)
  8426 000039A0 D92C24                  fldcw [rsp]
  8427 000039A3 D905(F4FFFFFF)          fld dword [g_r32D0 wrt rip]
  8428 000039A9 9B                      fwait
  8429                                 ..@2751.resume:
  8430                                 %line 2371+0 /home/se170/VirtualBox-4.3.28/src/VBox/VMM/testcase/tstX86-1A.asm
  8431 000039AA DFE0                    fnstsw ax
  8432 000039AC 25FFC7FFFF              and eax, ~0x3800 & ~(0)
  8433 000039B1 83F802                  cmp eax, ((1 << 1))
  8434 000039B4 740A                    je ..@2751.ok
  8435                                 
  8436 000039B6 678D80E0DB210E          lea eax, [eax + 2371 * 100000]
  8437 000039BD E9B6020000              jmp .return
  8438                                 ..@2751.ok:
  8439                                 %line 2372+1 /home/se170/VirtualBox-4.3.28/src/VBox/VMM/testcase/tstX86-1A.asm
  8440 000039C2 DB3C24                  fstp tword [rsp]
  8441                                 %line 2372+0 /home/se170/VirtualBox-4.3.28/src/VBox/VMM/testcase/tstX86-1A.asm
  8442 000039C5 DB2C24                  fld tword [rsp]
  8443 000039C8 833C2400                cmp dword [rsp], 0x00000000
  8444 000039CC 7408                    je ..@2752.ok1
  8445                                 ..@2752.bad:
  8446 000039CE B844090000              mov eax, 2372
  8447 000039D3 E9A0020000              jmp .return
  8448                                 ..@2752.ok1:
  8449 000039D8 817C240400000080        cmp dword [rsp + 4], 0x80000000
  8450 000039E0 75EA                    jne ..@2752.bad
  8451 000039E2 66817C24087F3F          cmp word [rsp + 8], 0x3f7f
  8452 000039E9 75E1                    jne ..@2752.bad
  8453                                 %line 2373+1 /home/se170/VirtualBox-4.3.28/src/VBox/VMM/testcase/tstX86-1A.asm
  8454                                 
  8455                                 
  8456                                 
  8457                                 
  8458 000039EB DBE3                    fninit
  8459 000039ED C7042400030000          mov dword [rsp], 0x0300 | 0x0000
  8460 000039F4 D92C24                  fldcw [rsp]
  8461 000039F7 DD05(F4FFFFFF)          fld qword [g_r64V1 wrt rip]
  8462 000039FD D906                    fld dword [rsi]
  8463 000039FF D906                    fld dword [rsi]
  8464 00003A01 D906                    fld dword [rsi]
  8465 00003A03 D906                    fld dword [rsi]
  8466 00003A05 D906                    fld dword [rsi]
  8467 00003A07 D906                    fld dword [rsi]
  8468 00003A09 DB2D(F4FFFFFF)          fld tword [g_r80V1 wrt rip]
  8469 00003A0F 9B                      fwait
  8470                                 
  8471                                 %line 2391+1 /home/se170/VirtualBox-4.3.28/src/VBox/VMM/testcase/tstX86-1A.asm
  8472 00003A10 DBE2                    fnclex
  8473                                 %line 2391+0 /home/se170/VirtualBox-4.3.28/src/VBox/VMM/testcase/tstX86-1A.asm
  8474 00003A12 D906                    fld dword [rsi]
  8475                                 ..@2753.trap:
  8476 00003A14 9B                      fwait
  8477                                 ..@2753.trap_end:
  8478 00003A15 B857090000              mov eax, 2391
  8479 00003A1A E959020000              jmp .return
  8480                                 [section .data]
  8481                                 ..@2753.trapinfo: 
  8482                                 ..@2757.strucstart:
  8483 00001CCC [0000000000000000]     dq ..@2753.trap
  8484 00001CD4 [0000000000000000]     dq ..@2753.resume
  8485 00001CDC 10                     db 0x10
  8486 00001CDD 01                     db (..@2753.trap_end - ..@2753.trap)
  8487 00001CDE 00<rept>               times TRAPINFO_size-($-..@2757.strucstart) db 0
  8488                                 [section .text]
  8489                                 ..@2753.resume:
  8490                                 ..@2765.resume:
  8491 00003A1F DFE0                    fnstsw ax
  8492 00003A21 25FF82FFFF              and eax, ~0x3800 & ~((1 << 8) | (1 << 10) | (1 << 14))
  8493 00003A26 3DC1820000              cmp eax, ((((1 << 0) | (1 << 6) | (1 << 9)) | (1 << 7) | (1 << 15)))
  8494 00003A2B 740A                    je ..@2765.ok
  8495                                 
  8496 00003A2D 678D806060400E          lea eax, [eax + 2391 * 100000]
  8497 00003A34 E93F020000              jmp .return
  8498                                 ..@2765.ok:
  8499 00003A39 DBE2                    fnclex
  8500                                 %line 2392+1 /home/se170/VirtualBox-4.3.28/src/VBox/VMM/testcase/tstX86-1A.asm
  8501 00003A3B DB3C24                  fstp tword [rsp]
  8502                                 %line 2392+0 /home/se170/VirtualBox-4.3.28/src/VBox/VMM/testcase/tstX86-1A.asm
  8503 00003A3E DB2C24                  fld tword [rsp]
  8504 00003A41 833C2400                cmp dword [rsp], 0x00000000
  8505 00003A45 7408                    je ..@2766.ok1
  8506                                 ..@2766.bad:
  8507 00003A47 B858090000              mov eax, 2392
  8508 00003A4C E927020000              jmp .return
  8509                                 ..@2766.ok1:
  8510 00003A51 817C240400000080        cmp dword [rsp + 4], 0x80000000
  8511 00003A59 75EA                    jne ..@2766.bad
  8512 00003A5B 66817C24080240          cmp word [rsp + 8], 0x4002
  8513 00003A62 75E1                    jne ..@2766.bad
  8514                                 %line 2393+1 /home/se170/VirtualBox-4.3.28/src/VBox/VMM/testcase/tstX86-1A.asm
  8515                                 
  8516                                 %line 2395+1 /home/se170/VirtualBox-4.3.28/src/VBox/VMM/testcase/tstX86-1A.asm
  8517 00003A64 DBE2                    fnclex
  8518                                 %line 2395+0 /home/se170/VirtualBox-4.3.28/src/VBox/VMM/testcase/tstX86-1A.asm
  8519 00003A66 D906                    fld dword [rsi]
  8520                                 ..@2767.trap:
  8521 00003A68 9B                      fwait
  8522                                 ..@2767.trap_end:
  8523 00003A69 B85B090000              mov eax, 2395
  8524 00003A6E E905020000              jmp .return
  8525                                 [section .data]
  8526                                 ..@2767.trapinfo: 
  8527                                 ..@2771.strucstart:
  8528 00001CEC [0000000000000000]     dq ..@2767.trap
  8529 00001CF4 [0000000000000000]     dq ..@2767.resume
  8530 00001CFC 10                     db 0x10
  8531 00001CFD 01                     db (..@2767.trap_end - ..@2767.trap)
  8532 00001CFE 00<rept>               times TRAPINFO_size-($-..@2771.strucstart) db 0
  8533                                 [section .text]
  8534                                 ..@2767.resume:
  8535                                 ..@2779.resume:
  8536 00003A73 DFE0                    fnstsw ax
  8537 00003A75 25FF82FFFF              and eax, ~0x3800 & ~((1 << 8) | (1 << 10) | (1 << 14))
  8538 00003A7A 3DC1820000              cmp eax, ((((1 << 0) | (1 << 6) | (1 << 9)) | (1 << 7) | (1 << 15)))
  8539 00003A7F 740A                    je ..@2779.ok
  8540                                 
  8541 00003A81 678D80E07A460E          lea eax, [eax + 2395 * 100000]
  8542 00003A88 E9EB010000              jmp .return
  8543                                 ..@2779.ok:
  8544 00003A8D DBE2                    fnclex
  8545                                 %line 2396+1 /home/se170/VirtualBox-4.3.28/src/VBox/VMM/testcase/tstX86-1A.asm
  8546 00003A8F DB3C24                  fstp tword [rsp]
  8547                                 %line 2396+0 /home/se170/VirtualBox-4.3.28/src/VBox/VMM/testcase/tstX86-1A.asm
  8548 00003A92 DB2C24                  fld tword [rsp]
  8549 00003A95 833C2400                cmp dword [rsp], 0x00000000
  8550 00003A99 7408                    je ..@2780.ok1
  8551                                 ..@2780.bad:
  8552 00003A9B B85C090000              mov eax, 2396
  8553 00003AA0 E9D3010000              jmp .return
  8554                                 ..@2780.ok1:
  8555 00003AA5 817C240400000080        cmp dword [rsp + 4], 0x80000000
  8556 00003AAD 75EA                    jne ..@2780.bad
  8557 00003AAF 66817C24080240          cmp word [rsp + 8], 0x4002
  8558 00003AB6 75E1                    jne ..@2780.bad
  8559                                 %line 2397+1 /home/se170/VirtualBox-4.3.28/src/VBox/VMM/testcase/tstX86-1A.asm
  8560                                 
  8561                                 
  8562                                 ..@2781.trap:
  8563                                 %line 2399+0 /home/se170/VirtualBox-4.3.28/src/VBox/VMM/testcase/tstX86-1A.asm
  8564 00003AB8 D907                    fld dword [rdi]
  8565                                 ..@2781.trap_end:
  8566 00003ABA B85F090000              mov eax, 2399
  8567 00003ABF E9B4010000              jmp .return
  8568                                 [section .data]
  8569                                 ..@2781.trapinfo: 
  8570                                 ..@2785.strucstart:
  8571 00001D0C [0000000000000000]     dq ..@2781.trap
  8572 00001D14 [0000000000000000]     dq ..@2781.resume
  8573 00001D1C 0E                     db 0x0e
  8574 00001D1D 02                     db (..@2781.trap_end - ..@2781.trap)
  8575 00001D1E 00<rept>               times TRAPINFO_size-($-..@2785.strucstart) db 0
  8576                                 [section .text]
  8577                                 ..@2781.resume:
  8578                                 %line 2400+1 /home/se170/VirtualBox-4.3.28/src/VBox/VMM/testcase/tstX86-1A.asm
  8579 00003AC4 9B                      fwait
  8580                                 
  8581                                 
  8582                                 %line 2404+1 /home/se170/VirtualBox-4.3.28/src/VBox/VMM/testcase/tstX86-1A.asm
  8583 00003AC5 DBE2                    fnclex
  8584                                 %line 2404+0 /home/se170/VirtualBox-4.3.28/src/VBox/VMM/testcase/tstX86-1A.asm
  8585 00003AC7 D906                    fld dword [rsi]
  8586                                 ..@2793.trap:
  8587 00003AC9 9B                      fwait
  8588                                 ..@2793.trap_end:
  8589 00003ACA B864090000              mov eax, 2404
  8590 00003ACF E9A4010000              jmp .return
  8591                                 [section .data]
  8592                                 ..@2793.trapinfo: 
  8593                                 ..@2797.strucstart:
  8594 00001D2C [0000000000000000]     dq ..@2793.trap
  8595 00001D34 [0000000000000000]     dq ..@2793.resume
  8596 00001D3C 10                     db 0x10
  8597 00001D3D 01                     db (..@2793.trap_end - ..@2793.trap)
  8598 00001D3E 00<rept>               times TRAPINFO_size-($-..@2797.strucstart) db 0
  8599                                 [section .text]
  8600                                 ..@2793.resume:
  8601                                 ..@2805.resume:
  8602 00003AD4 DFE0                    fnstsw ax
  8603 00003AD6 25FF82FFFF              and eax, ~0x3800 & ~((1 << 8) | (1 << 10) | (1 << 14))
  8604 00003ADB 3DC1820000              cmp eax, ((((1 << 0) | (1 << 6) | (1 << 9)) | (1 << 7) | (1 << 15)))
  8605 00003AE0 740A                    je ..@2805.ok
  8606                                 
  8607 00003AE2 678D808036540E          lea eax, [eax + 2404 * 100000]
  8608 00003AE9 E98A010000              jmp .return
  8609                                 ..@2805.ok:
  8610 00003AEE DBE2                    fnclex
  8611                                 %line 2405+1 /home/se170/VirtualBox-4.3.28/src/VBox/VMM/testcase/tstX86-1A.asm
  8612 00003AF0 DB3C24                  fstp tword [rsp]
  8613                                 %line 2405+0 /home/se170/VirtualBox-4.3.28/src/VBox/VMM/testcase/tstX86-1A.asm
  8614 00003AF3 DB2C24                  fld tword [rsp]
  8615 00003AF6 833C2400                cmp dword [rsp], 0x00000000
  8616 00003AFA 7408                    je ..@2806.ok1
  8617                                 ..@2806.bad:
  8618 00003AFC B865090000              mov eax, 2405
  8619 00003B01 E972010000              jmp .return
  8620                                 ..@2806.ok1:
  8621 00003B06 817C240400000080        cmp dword [rsp + 4], 0x80000000
  8622 00003B0E 75EA                    jne ..@2806.bad
  8623 00003B10 66817C24080240          cmp word [rsp + 8], 0x4002
  8624 00003B17 75E1                    jne ..@2806.bad
  8625                                 %line 2406+1 /home/se170/VirtualBox-4.3.28/src/VBox/VMM/testcase/tstX86-1A.asm
  8626                                 
  8627                                 
  8628                                 
  8629                                 
  8630                                 
  8631 00003B19 C7042401030000          mov dword [rsp], 0x0300 | 0x0000 | (1 << 0)
  8632 00003B20 D92C24                  fldcw [rsp]
  8633                                 
  8634 00003B23 D906                    fld dword [rsi]
  8635                                 ..@2807.resume:
  8636                                 %line 2415+0 /home/se170/VirtualBox-4.3.28/src/VBox/VMM/testcase/tstX86-1A.asm
  8637 00003B25 DFE0                    fnstsw ax
  8638 00003B27 25FF82FFFF              and eax, ~0x3800 & ~((1 << 8) | (1 << 10) | (1 << 14))
  8639 00003B2C 3D41020000              cmp eax, ((1 << 0) | (1 << 6) | (1 << 9))
  8640 00003B31 740A                    je ..@2807.ok
  8641                                 
  8642 00003B33 678D8060FF640E          lea eax, [eax + 2415 * 100000]
  8643 00003B3A E939010000              jmp .return
  8644                                 ..@2807.ok:
  8645                                 %line 2416+1 /home/se170/VirtualBox-4.3.28/src/VBox/VMM/testcase/tstX86-1A.asm
  8646 00003B3F DBE2                    fnclex
  8647 00003B41 DB3C24                  fstp tword [rsp]
  8648                                 %line 2417+0 /home/se170/VirtualBox-4.3.28/src/VBox/VMM/testcase/tstX86-1A.asm
  8649 00003B44 DB2C24                  fld tword [rsp]
  8650 00003B47 833C2400                cmp dword [rsp], 0x00000000
  8651 00003B4B 7408                    je ..@2808.ok1
  8652                                 ..@2808.bad:
  8653 00003B4D B871090000              mov eax, 2417
  8654 00003B52 E921010000              jmp .return
  8655                                 ..@2808.ok1:
  8656 00003B57 817C2404000000C0        cmp dword [rsp + 4], 0xc0000000
  8657 00003B5F 75EA                    jne ..@2808.bad
  8658 00003B61 66817C2408FFFF          cmp word [rsp + 8], 0xffff
  8659 00003B68 75E1                    jne ..@2808.bad
  8660                                 %line 2418+1 /home/se170/VirtualBox-4.3.28/src/VBox/VMM/testcase/tstX86-1A.asm
  8661                                 
  8662 00003B6A DD05(F4FFFFFF)          fld qword [g_r64V1 wrt rip]
  8663                                 ..@2809.resume:
  8664                                 %line 2420+0 /home/se170/VirtualBox-4.3.28/src/VBox/VMM/testcase/tstX86-1A.asm
  8665 00003B70 DFE0                    fnstsw ax
  8666 00003B72 25FF82FFFF              and eax, ~0x3800 & ~((1 << 8) | (1 << 10) | (1 << 14))
  8667 00003B77 3D41020000              cmp eax, ((1 << 0) | (1 << 6) | (1 << 9))
  8668 00003B7C 740A                    je ..@2809.ok
  8669                                 
  8670 00003B7E 678D8080A06C0E          lea eax, [eax + 2420 * 100000]
  8671 00003B85 E9EE000000              jmp .return
  8672                                 ..@2809.ok:
  8673                                 %line 2421+1 /home/se170/VirtualBox-4.3.28/src/VBox/VMM/testcase/tstX86-1A.asm
  8674 00003B8A DBE2                    fnclex
  8675 00003B8C DB3C24                  fstp tword [rsp]
  8676                                 %line 2422+0 /home/se170/VirtualBox-4.3.28/src/VBox/VMM/testcase/tstX86-1A.asm
  8677 00003B8F DB2C24                  fld tword [rsp]
  8678 00003B92 833C2400                cmp dword [rsp], 0x00000000
  8679 00003B96 7408                    je ..@2810.ok1
  8680                                 ..@2810.bad:
  8681 00003B98 B876090000              mov eax, 2422
  8682 00003B9D E9D6000000              jmp .return
  8683                                 ..@2810.ok1:
  8684 00003BA2 817C2404000000C0        cmp dword [rsp + 4], 0xc0000000
  8685 00003BAA 75EA                    jne ..@2810.bad
  8686 00003BAC 66817C2408FFFF          cmp word [rsp + 8], 0xffff
  8687 00003BB3 75E1                    jne ..@2810.bad
  8688                                 %line 2423+1 /home/se170/VirtualBox-4.3.28/src/VBox/VMM/testcase/tstX86-1A.asm
  8689                                 
  8690                                 
  8691 00003BB5 D905(F4FFFFFF)          fld dword [g_r32D0 wrt rip]
  8692 00003BBB 9B                      fwait
  8693                                 ..@2811.resume:
  8694                                 %line 2427+0 /home/se170/VirtualBox-4.3.28/src/VBox/VMM/testcase/tstX86-1A.asm
  8695 00003BBC DFE0                    fnstsw ax
  8696 00003BBE 25FF82FFFF              and eax, ~0x3800 & ~((1 << 8) | (1 << 10) | (1 << 14))
  8697 00003BC3 3D41020000              cmp eax, ((1 << 0) | (1 << 6) | (1 << 9))
  8698 00003BC8 740A                    je ..@2811.ok
  8699                                 
  8700 00003BCA 678D80E04E770E          lea eax, [eax + 2427 * 100000]
  8701 00003BD1 E9A2000000              jmp .return
  8702                                 ..@2811.ok:
  8703                                 %line 2428+1 /home/se170/VirtualBox-4.3.28/src/VBox/VMM/testcase/tstX86-1A.asm
  8704 00003BD6 DB3C24                  fstp tword [rsp]
  8705                                 %line 2428+0 /home/se170/VirtualBox-4.3.28/src/VBox/VMM/testcase/tstX86-1A.asm
  8706 00003BD9 DB2C24                  fld tword [rsp]
  8707 00003BDC 833C2400                cmp dword [rsp], 0x00000000
  8708 00003BE0 7408                    je ..@2812.ok1
  8709                                 ..@2812.bad:
  8710 00003BE2 B87C090000              mov eax, 2428
  8711 00003BE7 E98C000000              jmp .return
  8712                                 ..@2812.ok1:
  8713 00003BEC 817C2404000000C0        cmp dword [rsp + 4], 0xc0000000
  8714 00003BF4 75EA                    jne ..@2812.bad
  8715 00003BF6 66817C2408FFFF          cmp word [rsp + 8], 0xffff
  8716 00003BFD 75E1                    jne ..@2812.bad
  8717                                 %line 2429+1 /home/se170/VirtualBox-4.3.28/src/VBox/VMM/testcase/tstX86-1A.asm
  8718 00003BFF DBE2                    fnclex
  8719                                 
  8720                                 
  8721                                 
  8722                                 
  8723                                 
  8724 00003C01 C7042400030000          mov dword [rsp], 0x0300 | 0x0000
  8725 00003C08 D92C24                  fldcw [rsp]
  8726 00003C0B DD05(F4FFFFFF)          fld qword [g_r64V1 wrt rip]
  8727                                 ..@2813.trap:
  8728                                 %line 2438+0 /home/se170/VirtualBox-4.3.28/src/VBox/VMM/testcase/tstX86-1A.asm
  8729 00003C11 D907                    fld dword [rdi]
  8730                                 ..@2813.trap_end:
  8731 00003C13 B886090000              mov eax, 2438
  8732 00003C18 EB61                    jmp .return
  8733                                 [section .data]
  8734                                 ..@2813.trapinfo: 
  8735                                 ..@2817.strucstart:
  8736 00001D4C [0000000000000000]     dq ..@2813.trap
  8737 00001D54 [0000000000000000]     dq ..@2813.resume
  8738 00001D5C 10                     db 0x10
  8739 00001D5D 02                     db (..@2813.trap_end - ..@2813.trap)
  8740 00001D5E 00<rept>               times TRAPINFO_size-($-..@2817.strucstart) db 0
  8741                                 [section .text]
  8742                                 ..@2813.resume:
  8743                                 %line 2439+1 /home/se170/VirtualBox-4.3.28/src/VBox/VMM/testcase/tstX86-1A.asm
  8744 00003C1A DBE2                    fnclex
  8745                                 
  8746                                 
  8747                                 
  8748                                 
  8749 00003C1C C7042401030000          mov dword [rsp], 0x0300 | 0x0000 | (1 << 0)
  8750 00003C23 D92C24                  fldcw [rsp]
  8751 00003C26 D906                    fld dword [rsi]
  8752 00003C28 9B                      fwait
  8753                                 ..@2825.resume:
  8754                                 %line 2448+0 /home/se170/VirtualBox-4.3.28/src/VBox/VMM/testcase/tstX86-1A.asm
  8755 00003C29 DFE0                    fnstsw ax
  8756 00003C2B 25FF82FFFF              and eax, ~0x3800 & ~((1 << 8) | (1 << 10) | (1 << 14))
  8757 00003C30 3D41020000              cmp eax, ((1 << 0) | (1 << 6) | (1 << 9))
  8758 00003C35 7407                    je ..@2825.ok
  8759                                 
  8760 00003C37 678D80005A970E          lea eax, [eax + 2448 * 100000]
  8761 00003C3E EB3B                    jmp .return
  8762                                 ..@2825.ok:
  8763                                 %line 2449+1 /home/se170/VirtualBox-4.3.28/src/VBox/VMM/testcase/tstX86-1A.asm
  8764 00003C40 C7042400030000          mov dword [rsp], 0x0300 | 0x0000
  8765 00003C47 D92C24                  fldcw [rsp]
  8766                                 ..@2826.resume:
  8767                                 %line 2451+0 /home/se170/VirtualBox-4.3.28/src/VBox/VMM/testcase/tstX86-1A.asm
  8768 00003C4A DFE0                    fnstsw ax
  8769 00003C4C 25FF82FFFF              and eax, ~0x3800 & ~((1 << 8) | (1 << 10) | (1 << 14))
  8770 00003C51 3DC1820000              cmp eax, ((1 << 7) | (1 << 15) | (1 << 0) | (1 << 6) | (1 << 9))
  8771 00003C56 7407                    je ..@2826.ok
  8772                                 
  8773 00003C58 678D80E0ED9B0E          lea eax, [eax + 2451 * 100000]
  8774 00003C5F EB1A                    jmp .return
  8775                                 ..@2826.ok:
  8776                                 %line 2452+1 /home/se170/VirtualBox-4.3.28/src/VBox/VMM/testcase/tstX86-1A.asm
  8777                                 
  8778                                 ..@2827.trap:
  8779                                 %line 2453+0 /home/se170/VirtualBox-4.3.28/src/VBox/VMM/testcase/tstX86-1A.asm
  8780 00003C61 9B                      fwait
  8781                                 ..@2827.trap_end:
  8782 00003C62 B895090000              mov eax, 2453
  8783 00003C67 EB12                    jmp .return
  8784                                 [section .data]
  8785                                 ..@2827.trapinfo: 
  8786                                 ..@2831.strucstart:
  8787 00001D6C [0000000000000000]     dq ..@2827.trap
  8788 00001D74 [0000000000000000]     dq ..@2827.resume
  8789 00001D7C 10                     db 0x10
  8790 00001D7D 01                     db (..@2827.trap_end - ..@2827.trap)
  8791 00001D7E 00<rept>               times TRAPINFO_size-($-..@2831.strucstart) db 0
  8792                                 [section .text]
  8793                                 ..@2827.resume:
  8794                                 %line 2454+1 /home/se170/VirtualBox-4.3.28/src/VBox/VMM/testcase/tstX86-1A.asm
  8795                                 ..@2839.trap:
  8796                                 %line 2454+0 /home/se170/VirtualBox-4.3.28/src/VBox/VMM/testcase/tstX86-1A.asm
  8797 00003C69 9B                      fwait
  8798                                 ..@2839.trap_end:
  8799 00003C6A B896090000              mov eax, 2454
  8800 00003C6F EB0A                    jmp .return
  8801                                 [section .data]
  8802                                 ..@2839.trapinfo: 
  8803                                 ..@2843.strucstart:
  8804 00001D8C [0000000000000000]     dq ..@2839.trap
  8805 00001D94 [0000000000000000]     dq ..@2839.resume
  8806 00001D9C 10                     db 0x10
  8807 00001D9D 01                     db (..@2839.trap_end - ..@2839.trap)
  8808 00001D9E 00<rept>               times TRAPINFO_size-($-..@2843.strucstart) db 0
  8809                                 [section .text]
  8810                                 ..@2839.resume:
  8811                                 %line 2455+1 /home/se170/VirtualBox-4.3.28/src/VBox/VMM/testcase/tstX86-1A.asm
  8812                                 ..@2851.trap:
  8813                                 %line 2455+0 /home/se170/VirtualBox-4.3.28/src/VBox/VMM/testcase/tstX86-1A.asm
  8814 00003C71 9B                      fwait
  8815                                 ..@2851.trap_end:
  8816 00003C72 B897090000              mov eax, 2455
  8817 00003C77 EB02                    jmp .return
  8818                                 [section .data]
  8819                                 ..@2851.trapinfo: 
  8820                                 ..@2855.strucstart:
  8821 00001DAC [0000000000000000]     dq ..@2851.trap
  8822 00001DB4 [0000000000000000]     dq ..@2851.resume
  8823 00001DBC 10                     db 0x10
  8824 00001DBD 01                     db (..@2851.trap_end - ..@2851.trap)
  8825 00001DBE 00<rept>               times TRAPINFO_size-($-..@2855.strucstart) db 0
  8826                                 [section .text]
  8827                                 ..@2851.resume:
  8828                                 %line 2456+1 /home/se170/VirtualBox-4.3.28/src/VBox/VMM/testcase/tstX86-1A.asm
  8829 00003C79 DBE2                    fnclex
  8830                                 
  8831                                 
  8832                                 .success:
  8833 00003C7B 31C0                    xor eax, eax
  8834                                 .return:
  8835 00003C7D 4881C400080000          add rsp, 2048
  8836 00003C84 488D6590                lea rsp, [rbp - 14 * 8]
  8837                                 %line 2463+0 /home/se170/VirtualBox-4.3.28/src/VBox/VMM/testcase/tstX86-1A.asm
  8838 00003C88 415F                    pop r15
  8839 00003C8A 415E                    pop r14
  8840 00003C8C 415D                    pop r13
  8841 00003C8E 415C                    pop r12
  8842 00003C90 415B                    pop r11
  8843 00003C92 415A                    pop r10
  8844 00003C94 4159                    pop r9
  8845 00003C96 4158                    pop r8
  8846 00003C98 5F                      pop rdi
  8847 00003C99 5E                      pop rsi
  8848 00003C9A 5A                      pop rdx
  8849 00003C9B 59                      pop rcx
  8850 00003C9C 5B                      pop rbx
  8851 00003C9D 9D                      popf
  8852 00003C9E C9                      leave
  8853                                 %line 2464+1 /home/se170/VirtualBox-4.3.28/src/VBox/VMM/testcase/tstX86-1A.asm
  8854 00003C9F C3                      ret
  8855                                 [global x861_Test7_EndProc:function hidden]
  8856                                 %line 2465+0 /home/se170/VirtualBox-4.3.28/src/VBox/VMM/testcase/tstX86-1A.asm
  8857                                 x861_Test7_EndProc:
  8858                                 [size x861_Test7 x861_Test7_EndProc - x861_Test7]
  8859                                 [size x861_Test7_EndProc 0]
  8860 00003CA0 CCCCCCCC                db 0xCC, 0xCC, 0xCC, 0xCC
  8861                                 %line 2466+1 /home/se170/VirtualBox-4.3.28/src/VBox/VMM/testcase/tstX86-1A.asm
  8862                                 
  8863                                 
  8864                                 [extern RTTestISub]
  8865                                 
  8866                                 
  8867                                 
  8868                                 %line 2497+1 /home/se170/VirtualBox-4.3.28/src/VBox/VMM/testcase/tstX86-1A.asm
  8869                                 
  8870                                 
  8871                                 
  8872                                 
  8873                                 
  8874                                 
  8875                                 
  8876                                 
  8877                                 
  8878                                 CheckOpcodeCsIp:
  8879 00003CA4 55                      push rbp
  8880 00003CA5 4889E5                  mov rbp, rsp
  8881 00003CA8 50                      push rax
  8882                                 
  8883                                 
  8884                                 %line 2513+1 /home/se170/VirtualBox-4.3.28/src/VBox/VMM/testcase/tstX86-1A.asm
  8885 00003CA9 483B4D18                cmp rcx, [rbp + 8*2 + X86FXSTATE.FPUIP]
  8886                                 %line 2517+1 /home/se170/VirtualBox-4.3.28/src/VBox/VMM/testcase/tstX86-1A.asm
  8887 00003CAD 7527                    jne .failure1
  8888                                 
  8889                                 .check_fpucs:
  8890 00003CAF 668CC8                  mov ax, cs
  8891 00003CB2 663B8520020000          cmp ax, [rbp + 8*2 + 512 + X86FSTENV32P.FPUCS]
  8892 00003CB9 7538                    jne .failure2
  8893                                 
  8894                                 
  8895 00003CBB 8A21                    mov ah, [rcx]
  8896 00003CBD 8A4101                  mov al, [rcx + 1]
  8897 00003CC0 6625FF07                and ax, 07ff
  8898                                 
  8899 00003CC4 663B4516                cmp ax, [rbp + 8*2 + X86FXSTATE.FOP]
  8900 00003CC8 7407                    je .success
  8901 00003CCA 663B8522020000          cmp ax, [rbp + 8*2 + 512 + X86FSTENV32P.FOP]
  8902 00003CD1 74FE                    je .success
  8903                                 
  8904                                 
  8905                                 
  8906                                 
  8907                                 
  8908                                 .success:
  8909 00003CD3 31C0                    xor eax, eax
  8910                                 .return:
  8911 00003CD5 58                      pop rax
  8912 00003CD6 C9                      leave
  8913 00003CD7 C3                      ret
  8914                                 
  8915                                 .failure1:
  8916                                 
  8917                                 
  8918 00003CD8 31C0                    xor eax, eax
  8919 00003CDA 483B4518                cmp rax, [rbp + 8*2 + X86FXSTATE.FPUIP]
  8920 00003CDE 750C                    jne .failure1_for_real
  8921 00003CE0 483B4520                cmp rax, [rbp + 8*2 + X86FXSTATE.FPUDP]
  8922 00003CE4 7506                    jne .failure1_for_real
  8923 00003CE6 3B8D1C020000            cmp ecx, [rbp + 8*2 + 512 + X86FSTENV32P.FPUIP]
  8924 00003CEC 74BF                    je .check_fpucs
  8925                                 .failure1_for_real:
  8926 00003CEE B880969800              mov eax, 10000000
  8927 00003CF3 EB0C                    jmp .failure
  8928                                 .failure2:
  8929 00003CF5 B8002D3101              mov eax, 20000000
  8930 00003CFA EB05                    jmp .failure
  8931                                 .failure3:
  8932 00003CFC B880C3C901              mov eax, 30000000
  8933 00003D01 EBFE                    jmp .failure
  8934                                 .failure:
  8935 00003D03 09C0                    or eax, eax
  8936 00003D05 C9                      leave
  8937 00003D06 C3                      ret
  8938                                 
  8939                                 
  8940                                 
  8941                                 
  8942                                 
  8943                                 
  8944                                 %line 2591+1 /home/se170/VirtualBox-4.3.28/src/VBox/VMM/testcase/tstX86-1A.asm
  8945                                 
  8946                                 
  8947                                 
  8948                                 
  8949                                 
  8950                                 
  8951                                 
  8952                                 
  8953                                 
  8954                                 
  8955                                 
  8956                                 %line 2639+1 /home/se170/VirtualBox-4.3.28/src/VBox/VMM/testcase/tstX86-1A.asm
  8957                                 
  8958                                 
  8959                                 
  8960                                 
  8961                                 
  8962                                 
  8963                                 
  8964                                 
  8965                                 
  8966                                 
  8967                                 
  8968                                 
  8969                                 CheckOpcodeCsIpDsDp:
  8970 00003D07 55                      push rbp
  8971 00003D08 4889E5                  mov rbp, rsp
  8972 00003D0B 50                      push rax
  8973                                 
  8974                                 
  8975                                 %line 2658+1 /home/se170/VirtualBox-4.3.28/src/VBox/VMM/testcase/tstX86-1A.asm
  8976 00003D0C 483B5520                cmp rdx, [rbp + 8*2 + X86FXSTATE.FPUDP]
  8977                                 %line 2662+1 /home/se170/VirtualBox-4.3.28/src/VBox/VMM/testcase/tstX86-1A.asm
  8978 00003D10 750E                    jne .failure1
  8979                                 
  8980                                 .check_fpuds:
  8981 00003D12 668CD8                  mov ax, ds
  8982 00003D15 663B8528020000          cmp ax, [rbp + 8*2 + 512 + X86FSTENV32P.FPUDS]
  8983 00003D1C 751F                    jne .failure2
  8984                                 
  8985                                 .success:
  8986 00003D1E 58                      pop rax
  8987 00003D1F C9                      leave
  8988                                 
  8989 00003D20 EB80                    jmp CheckOpcodeCsIp
  8990                                 
  8991                                 .failure1:
  8992                                 
  8993                                 
  8994 00003D22 31C0                    xor eax, eax
  8995 00003D24 483B4520                cmp rax, [rbp + 8*2 + X86FXSTATE.FPUDP]
  8996 00003D28 750C                    jne .failure1_for_real
  8997 00003D2A 483B4518                cmp rax, [rbp + 8*2 + X86FXSTATE.FPUIP]
  8998 00003D2E 7506                    jne .failure1_for_real
  8999 00003D30 3B9524020000            cmp edx, [rbp + 8*2 + 512 + X86FSTENV32P.FPUDP]
  9000 00003D36 74D8                    je .check_fpuds
  9001                                 .failure1_for_real:
  9002 00003D38 B800879303              mov eax, 60000000
  9003 00003D3D EB03                    jmp .failure
  9004                                 .failure2:
  9005 00003D3F B800B4C404              mov eax, 80000000
  9006                                 .failure:
  9007 00003D44 09C0                    or eax, eax
  9008 00003D46 C9                      leave
  9009 00003D47 C3                      ret
  9010                                 
  9011                                 
  9012                                 
  9013                                 
  9014                                 
  9015                                 
  9016                                 
  9017                                 %line 2719+1 /home/se170/VirtualBox-4.3.28/src/VBox/VMM/testcase/tstX86-1A.asm
  9018                                 
  9019                                 
  9020                                 
  9021                                 
  9022                                 
  9023                                 
  9024                                 
  9025                                 
  9026                                 
  9027                                 
  9028                                 
  9029                                 
  9030                                 %line 2765+1 /home/se170/VirtualBox-4.3.28/src/VBox/VMM/testcase/tstX86-1A.asm
  9031                                 
  9032                                 
  9033                                 
  9034                                 
  9035                                 
  9036                                 
  9037                                 
  9038                                 
  9039                                 
  9040                                 %line 2783+1 /home/se170/VirtualBox-4.3.28/src/VBox/VMM/testcase/tstX86-1A.asm
  9041                                 
  9042                                 
  9043                                 
  9044                                 
  9045                                 
  9046                                 
  9047                                 
  9048                                 %line 2796+1 /home/se170/VirtualBox-4.3.28/src/VBox/VMM/testcase/tstX86-1A.asm
  9049                                 
  9050                                 
  9051                                 
  9052                                 
  9053                                 
  9054                                 
  9055                                 [global x861_TestFPUInstr1:function hidden]
  9056                                 %line 2802+0 /home/se170/VirtualBox-4.3.28/src/VBox/VMM/testcase/tstX86-1A.asm
  9057                                 x861_TestFPUInstr1:
  9058                                 %line 2803+1 /home/se170/VirtualBox-4.3.28/src/VBox/VMM/testcase/tstX86-1A.asm
  9059 00003D48 55                      push rbp
  9060                                 %line 2803+0 /home/se170/VirtualBox-4.3.28/src/VBox/VMM/testcase/tstX86-1A.asm
  9061 00003D49 4889E5                  mov rbp, rsp
  9062 00003D4C 9C                      pushf
  9063 00003D4D 53                      push rbx
  9064 00003D4E 51                      push rcx
  9065 00003D4F 52                      push rdx
  9066 00003D50 56                      push rsi
  9067 00003D51 57                      push rdi
  9068 00003D52 4150                    push r8
  9069 00003D54 4151                    push r9
  9070 00003D56 4152                    push r10
  9071 00003D58 4153                    push r11
  9072 00003D5A 4154                    push r12
  9073 00003D5C 4155                    push r13
  9074 00003D5E 4156                    push r14
  9075 00003D60 4157                    push r15
  9076 00003D62 4883E4F0                and rsp, ~0f
  9077                                 %line 2804+1 /home/se170/VirtualBox-4.3.28/src/VBox/VMM/testcase/tstX86-1A.asm
  9078 00003D66 4881EC00080000          sub rsp, 2048
  9079                                 %line 3121+1 /home/se170/VirtualBox-4.3.28/src/VBox/VMM/testcase/tstX86-1A.asm
  9080                                 
  9081                                 
  9082                                 
  9083                                 
  9084 00003D6D 488D3D00000000          lea rdi, [..@2874.s_szName wrt rip]
  9085                                 %line 3125+0 /home/se170/VirtualBox-4.3.28/src/VBox/VMM/testcase/tstX86-1A.asm
  9086 00003D74 E8(F6FFFFFF)            call RTTestISub
  9087 00003D79 EB0D                    jmp ..@2874.done
  9088                                 ..@2874.s_szName:
  9089 00003D7B 46535450204D333252-     db "FSTP M32R, ST0", 0
  9090 00003D7B 2C2053543000       
  9091                                 ..@2874.done:
  9092                                 %line 3126+1 /home/se170/VirtualBox-4.3.28/src/VBox/VMM/testcase/tstX86-1A.asm
  9093                                 
  9094 00003D8A 488B1D(F2FFFFFF)        mov rbx, [g_pbEfExecPage wrt rip]
  9095 00003D91 488D9BFC0F0000          lea rbx, [rbx + 0x1000 - 4]
  9096                                 
  9097                                 
  9098 00003D98 E80DC3FFFF              call x861_LoadUniqueRegValuesSSE
  9099                                 %line 3131+0 /home/se170/VirtualBox-4.3.28/src/VBox/VMM/testcase/tstX86-1A.asm
  9100 00003D9D DBE3                    fninit
  9101 00003D9F C7042400030000          mov dword [rsp], 0x0300 | 0x0000
  9102 00003DA6 D92C24                  fldcw [rsp]
  9103                                 %line 3132+1 /home/se170/VirtualBox-4.3.28/src/VBox/VMM/testcase/tstX86-1A.asm
  9104 00003DA9 D905(F4FFFFFF)          fld dword [g_r32_Ten wrt rip]
  9105 00003DAF C744240800000000        mov dword [rsp + X86FXSTATE.FPUIP], 0
  9106                                 %line 3133+0 /home/se170/VirtualBox-4.3.28/src/VBox/VMM/testcase/tstX86-1A.asm
  9107 00003DB7 C744240C00000000        mov dword [rsp + X86FXSTATE.FPUCS], 0
  9108 00003DBF C744241000000000        mov dword [rsp + X86FXSTATE.FPUDP], 0
  9109 00003DC7 C744241400000000        mov dword [rsp + X86FXSTATE.FPUDS], 0
  9110                                 ..@2876.instruction:
  9111 00003DCF D91B                    fstp dword [rbx] 
  9112 00003DD1 480FAE0424              o64 fxsave [rsp]
  9113 00003DD6 D9B42400020000          fnstenv [rsp + 512]
  9114 00003DDD 480FAE0C24              o64 fxrstor [rsp]
  9115 00003DE2 488D0DDFFFFFFF          lea rcx, [..@2876.instruction wrt rip]
  9116 00003DE9 E8B1FEFFFF              call CheckOpcodeCsIp
  9117 00003DEE 740A                    jz ..@2876.ok
  9118 00003DF0 488D803D0C0000          lea rax, [rax + 3133]
  9119 00003DF7 E9280A0000              jmp .return
  9120                                 ..@2876.ok:
  9121                                 %line 3134+1 /home/se170/VirtualBox-4.3.28/src/VBox/VMM/testcase/tstX86-1A.asm
  9122                                 ..@2877.resume:
  9123                                 %line 3134+0 /home/se170/VirtualBox-4.3.28/src/VBox/VMM/testcase/tstX86-1A.asm
  9124 00003DFC 0FB7442402              movzx eax, word [rsp + X86FXSTATE.FSW]
  9125 00003E01 25FFC7FFFF              and eax, ~0x3800 & ~(0)
  9126 00003E06 83F800                  cmp eax, (0)
  9127 00003E09 7408                    je ..@2877.ok
  9128 00003E0B B83EEDF505              mov eax, 100000000 + 3134
  9129 00003E10 E90F0A0000              jmp .return
  9130                                 ..@2877.ok:
  9131                                 %line 3135+1 /home/se170/VirtualBox-4.3.28/src/VBox/VMM/testcase/tstX86-1A.asm
  9132 00003E15 0FB7442402              movzx eax, word [rsp + X86FXSTATE.FSW]
  9133                                 %line 3135+0 /home/se170/VirtualBox-4.3.28/src/VBox/VMM/testcase/tstX86-1A.asm
  9134 00003E1A 2500380000              and eax, 0x3800
  9135 00003E1F C1E80B                  shr eax, 11
  9136 00003E22 0FA3442404              bt [rsp + X86FXSTATE.FTW], eax
  9137 00003E27 7308                    jnc ..@2878.ok
  9138 00003E29 B83FCEEB0B              mov eax, 200000000 + 3135
  9139 00003E2E E9F1090000              jmp .return
  9140                                 ..@2878.ok:
  9141                                 %line 3136+1 /home/se170/VirtualBox-4.3.28/src/VBox/VMM/testcase/tstX86-1A.asm
  9142 00003E33 8B05(F4FFFFFF)          mov eax, [g_r32_Ten wrt rip]
  9143                                 %line 3136+0 /home/se170/VirtualBox-4.3.28/src/VBox/VMM/testcase/tstX86-1A.asm
  9144 00003E39 3903                    cmp dword [rbx], eax
  9145 00003E3B 7408                    je ..@2879.ok
  9146                                 ..@2879.bad:
  9147 00003E3D B8C0565D05              mov eax, 90000000 + 3136
  9148 00003E42 E9DD090000              jmp .return
  9149                                 ..@2879.ok:
  9150                                 %line 3137+1 /home/se170/VirtualBox-4.3.28/src/VBox/VMM/testcase/tstX86-1A.asm
  9151                                 
  9152                                 
  9153                                 
  9154                                 
  9155 00003E47 DBE3                    fninit
  9156 00003E49 C744240800000000        mov dword [rsp + X86FXSTATE.FPUIP], 0
  9157                                 %line 3142+0 /home/se170/VirtualBox-4.3.28/src/VBox/VMM/testcase/tstX86-1A.asm
  9158 00003E51 C744240C00000000        mov dword [rsp + X86FXSTATE.FPUCS], 0
  9159 00003E59 C744241000000000        mov dword [rsp + X86FXSTATE.FPUDP], 0
  9160 00003E61 C744241400000000        mov dword [rsp + X86FXSTATE.FPUDS], 0
  9161                                 ..@2880.instruction:
  9162 00003E69 D91B                    fstp dword [rbx] 
  9163 00003E6B 480FAE0424              o64 fxsave [rsp]
  9164 00003E70 D9B42400020000          fnstenv [rsp + 512]
  9165 00003E77 480FAE0C24              o64 fxrstor [rsp]
  9166 00003E7C 488D0DDFFFFFFF          lea rcx, [..@2880.instruction wrt rip]
  9167 00003E83 E817FEFFFF              call CheckOpcodeCsIp
  9168 00003E88 740A                    jz ..@2880.ok
  9169 00003E8A 488D80460C0000          lea rax, [rax + 3142]
  9170 00003E91 E98E090000              jmp .return
  9171                                 ..@2880.ok:
  9172                                 %line 3143+1 /home/se170/VirtualBox-4.3.28/src/VBox/VMM/testcase/tstX86-1A.asm
  9173                                 ..@2881.resume:
  9174                                 %line 3143+0 /home/se170/VirtualBox-4.3.28/src/VBox/VMM/testcase/tstX86-1A.asm
  9175 00003E96 0FB7442402              movzx eax, word [rsp + X86FXSTATE.FSW]
  9176 00003E9B 25FF82FFFF              and eax, ~0x3800 & ~((1 << 8) | (1 << 10) | (1 << 14))
  9177 00003EA0 83F841                  cmp eax, ((1 << 0) | (1 << 6))
  9178 00003EA3 7408                    je ..@2881.ok
  9179 00003EA5 B847EDF505              mov eax, 100000000 + 3143
  9180 00003EAA E975090000              jmp .return
  9181                                 ..@2881.ok:
  9182                                 %line 3144+1 /home/se170/VirtualBox-4.3.28/src/VBox/VMM/testcase/tstX86-1A.asm
  9183 00003EAF 8B05(F4FFFFFF)          mov eax, [g_r32_NegQNaN wrt rip]
  9184                                 %line 3144+0 /home/se170/VirtualBox-4.3.28/src/VBox/VMM/testcase/tstX86-1A.asm
  9185 00003EB5 3903                    cmp dword [rbx], eax
  9186 00003EB7 7408                    je ..@2882.ok
  9187                                 ..@2882.bad:
  9188 00003EB9 B8C8565D05              mov eax, 90000000 + 3144
  9189 00003EBE E961090000              jmp .return
  9190                                 ..@2882.ok:
  9191                                 %line 3145+1 /home/se170/VirtualBox-4.3.28/src/VBox/VMM/testcase/tstX86-1A.asm
  9192                                 
  9193 00003EC3 DBE3                    fninit
  9194 00003EC5 DB2D(F4FFFFFF)          fld tword [g_r80_0dot1 wrt rip]
  9195 00003ECB DB2D(F4FFFFFF)          fld tword [g_r80_3dot2 wrt rip]
  9196 00003ED1 DB2D(F4FFFFFF)          fld tword [g_r80_Ten wrt rip]
  9197 00003ED7 DDC0                    ffree st0
  9198 00003ED9 C744240800000000        mov dword [rsp + X86FXSTATE.FPUIP], 0
  9199                                 %line 3151+0 /home/se170/VirtualBox-4.3.28/src/VBox/VMM/testcase/tstX86-1A.asm
  9200 00003EE1 C744240C00000000        mov dword [rsp + X86FXSTATE.FPUCS], 0
  9201 00003EE9 C744241000000000        mov dword [rsp + X86FXSTATE.FPUDP], 0
  9202 00003EF1 C744241400000000        mov dword [rsp + X86FXSTATE.FPUDS], 0
  9203                                 ..@2883.instruction:
  9204 00003EF9 D91B                    fstp dword [rbx] 
  9205 00003EFB 480FAE0424              o64 fxsave [rsp]
  9206 00003F00 D9B42400020000          fnstenv [rsp + 512]
  9207 00003F07 480FAE0C24              o64 fxrstor [rsp]
  9208 00003F0C 488D0DDFFFFFFF          lea rcx, [..@2883.instruction wrt rip]
  9209 00003F13 E887FDFFFF              call CheckOpcodeCsIp
  9210 00003F18 740A                    jz ..@2883.ok
  9211 00003F1A 488D804F0C0000          lea rax, [rax + 3151]
  9212 00003F21 E9FE080000              jmp .return
  9213                                 ..@2883.ok:
  9214                                 %line 3152+1 /home/se170/VirtualBox-4.3.28/src/VBox/VMM/testcase/tstX86-1A.asm
  9215                                 ..@2884.resume:
  9216                                 %line 3152+0 /home/se170/VirtualBox-4.3.28/src/VBox/VMM/testcase/tstX86-1A.asm
  9217 00003F26 0FB7442402              movzx eax, word [rsp + X86FXSTATE.FSW]
  9218 00003F2B 25FF82FFFF              and eax, ~0x3800 & ~((1 << 8) | (1 << 10) | (1 << 14))
  9219 00003F30 83F841                  cmp eax, ((1 << 0) | (1 << 6))
  9220 00003F33 7408                    je ..@2884.ok
  9221 00003F35 B850EDF505              mov eax, 100000000 + 3152
  9222 00003F3A E9E5080000              jmp .return
  9223                                 ..@2884.ok:
  9224                                 %line 3153+1 /home/se170/VirtualBox-4.3.28/src/VBox/VMM/testcase/tstX86-1A.asm
  9225 00003F3F 8B05(F4FFFFFF)          mov eax, [g_r32_NegQNaN wrt rip]
  9226                                 %line 3153+0 /home/se170/VirtualBox-4.3.28/src/VBox/VMM/testcase/tstX86-1A.asm
  9227 00003F45 3903                    cmp dword [rbx], eax
  9228 00003F47 7408                    je ..@2885.ok
  9229                                 ..@2885.bad:
  9230 00003F49 B8D1565D05              mov eax, 90000000 + 3153
  9231 00003F4E E9D1080000              jmp .return
  9232                                 ..@2885.ok:
  9233                                 %line 3154+1 /home/se170/VirtualBox-4.3.28/src/VBox/VMM/testcase/tstX86-1A.asm
  9234 00003F53 0FB7442402              movzx eax, word [rsp + X86FXSTATE.FSW]
  9235                                 %line 3154+0 /home/se170/VirtualBox-4.3.28/src/VBox/VMM/testcase/tstX86-1A.asm
  9236 00003F58 2500380000              and eax, 0x3800
  9237 00003F5D C1E80B                  shr eax, 11
  9238 00003F60 83C000                  add eax, 0
  9239 00003F63 83E007                  and eax, 0x0007
  9240 00003F66 0FA3442404              bt [rsp + X86FXSTATE.FTW], eax
  9241 00003F6B 7208                    jc ..@2887.ok
  9242 00003F6D B8D2CFC901              mov eax, 30000000 + 3154
  9243 00003F72 E9AD080000              jmp .return
  9244                                 ..@2887.ok:
  9245 00003F77 8B05(F4FFFFFF)          mov eax, [g_r80_3dot2 wrt rip]
  9246 00003F7D 39442420                cmp dword [rsp + X86FXSTATE.st0 + 0 * 16], eax
  9247 00003F81 7408                    je ..@2888.ok1
  9248                                 ..@2888.bad:
  9249 00003F83 B852666202              mov eax, 40000000 + 3154
  9250 00003F88 E997080000              jmp .return
  9251                                 ..@2888.ok1:
  9252 00003F8D 8B05(F8FFFFFF)          mov eax, [4 + g_r80_3dot2 wrt rip]
  9253 00003F93 39442424                cmp dword [rsp + X86FXSTATE.st0 + 0 * 16 + 4], eax
  9254 00003F97 75E8                    jne ..@2888.bad
  9255 00003F99 668B05(FAFFFFFF)        mov ax, [8 + g_r80_3dot2 wrt rip]
  9256 00003FA0 6639442428              cmp word [rsp + X86FXSTATE.st0 + 0 * 16 + 8], ax
  9257 00003FA5 75DA                    jne ..@2888.bad
  9258                                 %line 3155+1 /home/se170/VirtualBox-4.3.28/src/VBox/VMM/testcase/tstX86-1A.asm
  9259 00003FA7 0FB7442402              movzx eax, word [rsp + X86FXSTATE.FSW]
  9260                                 %line 3155+0 /home/se170/VirtualBox-4.3.28/src/VBox/VMM/testcase/tstX86-1A.asm
  9261 00003FAC 2500380000              and eax, 0x3800
  9262 00003FB1 C1E80B                  shr eax, 11
  9263 00003FB4 83C001                  add eax, 1
  9264 00003FB7 83E007                  and eax, 0x0007
  9265 00003FBA 0FA3442404              bt [rsp + X86FXSTATE.FTW], eax
  9266 00003FBF 7208                    jc ..@2890.ok
  9267 00003FC1 B8D3CFC901              mov eax, 30000000 + 3155
  9268 00003FC6 E959080000              jmp .return
  9269                                 ..@2890.ok:
  9270 00003FCB 8B05(F4FFFFFF)          mov eax, [g_r80_0dot1 wrt rip]
  9271 00003FD1 39442430                cmp dword [rsp + X86FXSTATE.st0 + 1 * 16], eax
  9272 00003FD5 7408                    je ..@2891.ok1
  9273                                 ..@2891.bad:
  9274 00003FD7 B853666202              mov eax, 40000000 + 3155
  9275 00003FDC E943080000              jmp .return
  9276                                 ..@2891.ok1:
  9277 00003FE1 8B05(F8FFFFFF)          mov eax, [4 + g_r80_0dot1 wrt rip]
  9278 00003FE7 39442434                cmp dword [rsp + X86FXSTATE.st0 + 1 * 16 + 4], eax
  9279 00003FEB 75E8                    jne ..@2891.bad
  9280 00003FED 668B05(FAFFFFFF)        mov ax, [8 + g_r80_0dot1 wrt rip]
  9281 00003FF4 6639442438              cmp word [rsp + X86FXSTATE.st0 + 1 * 16 + 8], ax
  9282 00003FF9 75DA                    jne ..@2891.bad
  9283                                 %line 3156+1 /home/se170/VirtualBox-4.3.28/src/VBox/VMM/testcase/tstX86-1A.asm
  9284                                 
  9285                                 
  9286 00003FFB DBE3                    fninit
  9287 00003FFD DB2D(F4FFFFFF)          fld tword [g_r80_SNaN wrt rip]
  9288 00004003 C744240800000000        mov dword [rsp + X86FXSTATE.FPUIP], 0
  9289                                 %line 3160+0 /home/se170/VirtualBox-4.3.28/src/VBox/VMM/testcase/tstX86-1A.asm
  9290 0000400B C744240C00000000        mov dword [rsp + X86FXSTATE.FPUCS], 0
  9291 00004013 C744241000000000        mov dword [rsp + X86FXSTATE.FPUDP], 0
  9292 0000401B C744241400000000        mov dword [rsp + X86FXSTATE.FPUDS], 0
  9293                                 ..@2892.instruction:
  9294 00004023 D91B                    fstp dword [rbx] 
  9295 00004025 480FAE0424              o64 fxsave [rsp]
  9296 0000402A D9B42400020000          fnstenv [rsp + 512]
  9297 00004031 480FAE0C24              o64 fxrstor [rsp]
  9298 00004036 488D0DDFFFFFFF          lea rcx, [..@2892.instruction wrt rip]
  9299 0000403D E85DFCFFFF              call CheckOpcodeCsIp
  9300 00004042 740A                    jz ..@2892.ok
  9301 00004044 488D80580C0000          lea rax, [rax + 3160]
  9302 0000404B E9D4070000              jmp .return
  9303                                 ..@2892.ok:
  9304                                 %line 3161+1 /home/se170/VirtualBox-4.3.28/src/VBox/VMM/testcase/tstX86-1A.asm
  9305                                 ..@2893.resume:
  9306                                 %line 3161+0 /home/se170/VirtualBox-4.3.28/src/VBox/VMM/testcase/tstX86-1A.asm
  9307 00004050 0FB7442402              movzx eax, word [rsp + X86FXSTATE.FSW]
  9308 00004055 25FF82FFFF              and eax, ~0x3800 & ~((1 << 8) | (1 << 10) | (1 << 14))
  9309 0000405A 83F801                  cmp eax, ((1 << 0))
  9310 0000405D 7408                    je ..@2893.ok
  9311 0000405F B859EDF505              mov eax, 100000000 + 3161
  9312 00004064 E9BB070000              jmp .return
  9313                                 ..@2893.ok:
  9314                                 %line 3162+1 /home/se170/VirtualBox-4.3.28/src/VBox/VMM/testcase/tstX86-1A.asm
  9315 00004069 8B05(F4FFFFFF)          mov eax, [g_r32_QNaN wrt rip]
  9316                                 %line 3162+0 /home/se170/VirtualBox-4.3.28/src/VBox/VMM/testcase/tstX86-1A.asm
  9317 0000406F 3903                    cmp dword [rbx], eax
  9318 00004071 7408                    je ..@2894.ok
  9319                                 ..@2894.bad:
  9320 00004073 B8DA565D05              mov eax, 90000000 + 3162
  9321 00004078 E9A7070000              jmp .return
  9322                                 ..@2894.ok:
  9323                                 %line 3163+1 /home/se170/VirtualBox-4.3.28/src/VBox/VMM/testcase/tstX86-1A.asm
  9324                                 
  9325                                 
  9326 0000407D DBE3                    fninit
  9327 0000407F DB2D(F4FFFFFF)          fld tword [g_r80_DnMin wrt rip]
  9328 00004085 C744240800000000        mov dword [rsp + X86FXSTATE.FPUIP], 0
  9329                                 %line 3167+0 /home/se170/VirtualBox-4.3.28/src/VBox/VMM/testcase/tstX86-1A.asm
  9330 0000408D C744240C00000000        mov dword [rsp + X86FXSTATE.FPUCS], 0
  9331 00004095 C744241000000000        mov dword [rsp + X86FXSTATE.FPUDP], 0
  9332 0000409D C744241400000000        mov dword [rsp + X86FXSTATE.FPUDS], 0
  9333                                 ..@2895.instruction:
  9334 000040A5 D91B                    fstp dword [rbx] 
  9335 000040A7 480FAE0424              o64 fxsave [rsp]
  9336 000040AC D9B42400020000          fnstenv [rsp + 512]
  9337 000040B3 480FAE0C24              o64 fxrstor [rsp]
  9338 000040B8 488D0DDFFFFFFF          lea rcx, [..@2895.instruction wrt rip]
  9339 000040BF E8DBFBFFFF              call CheckOpcodeCsIp
  9340 000040C4 740A                    jz ..@2895.ok
  9341 000040C6 488D805F0C0000          lea rax, [rax + 3167]
  9342 000040CD E952070000              jmp .return
  9343                                 ..@2895.ok:
  9344                                 %line 3168+1 /home/se170/VirtualBox-4.3.28/src/VBox/VMM/testcase/tstX86-1A.asm
  9345                                 ..@2896.resume:
  9346                                 %line 3168+0 /home/se170/VirtualBox-4.3.28/src/VBox/VMM/testcase/tstX86-1A.asm
  9347 000040D2 0FB7442402              movzx eax, word [rsp + X86FXSTATE.FSW]
  9348 000040D7 25FF82FFFF              and eax, ~0x3800 & ~((1 << 8) | (1 << 10) | (1 << 14))
  9349 000040DC 83F830                  cmp eax, ((1 << 4) | (1 << 5))
  9350 000040DF 7408                    je ..@2896.ok
  9351 000040E1 B860EDF505              mov eax, 100000000 + 3168
  9352 000040E6 E939070000              jmp .return
  9353                                 ..@2896.ok:
  9354                                 %line 3169+1 /home/se170/VirtualBox-4.3.28/src/VBox/VMM/testcase/tstX86-1A.asm
  9355 000040EB 8B05(F4FFFFFF)          mov eax, [g_r32_Zero wrt rip]
  9356                                 %line 3169+0 /home/se170/VirtualBox-4.3.28/src/VBox/VMM/testcase/tstX86-1A.asm
  9357 000040F1 3903                    cmp dword [rbx], eax
  9358 000040F3 7408                    je ..@2897.ok
  9359                                 ..@2897.bad:
  9360 000040F5 B8E1565D05              mov eax, 90000000 + 3169
  9361 000040FA E925070000              jmp .return
  9362                                 ..@2897.ok:
  9363                                 %line 3170+1 /home/se170/VirtualBox-4.3.28/src/VBox/VMM/testcase/tstX86-1A.asm
  9364                                 
  9365                                 
  9366 000040FF DBE3                    fninit
  9367 00004101 DB2D(F4FFFFFF)          fld tword [g_r80_3dot2 wrt rip]
  9368 00004107 C744240800000000        mov dword [rsp + X86FXSTATE.FPUIP], 0
  9369                                 %line 3174+0 /home/se170/VirtualBox-4.3.28/src/VBox/VMM/testcase/tstX86-1A.asm
  9370 0000410F C744240C00000000        mov dword [rsp + X86FXSTATE.FPUCS], 0
  9371 00004117 C744241000000000        mov dword [rsp + X86FXSTATE.FPUDP], 0
  9372 0000411F C744241400000000        mov dword [rsp + X86FXSTATE.FPUDS], 0
  9373                                 ..@2898.instruction:
  9374 00004127 D91B                    fstp dword [rbx] 
  9375 00004129 480FAE0424              o64 fxsave [rsp]
  9376 0000412E D9B42400020000          fnstenv [rsp + 512]
  9377 00004135 480FAE0C24              o64 fxrstor [rsp]
  9378 0000413A 488D0DDFFFFFFF          lea rcx, [..@2898.instruction wrt rip]
  9379 00004141 E859FBFFFF              call CheckOpcodeCsIp
  9380 00004146 740A                    jz ..@2898.ok
  9381 00004148 488D80660C0000          lea rax, [rax + 3174]
  9382 0000414F E9D0060000              jmp .return
  9383                                 ..@2898.ok:
  9384                                 %line 3175+1 /home/se170/VirtualBox-4.3.28/src/VBox/VMM/testcase/tstX86-1A.asm
  9385                                 ..@2899.resume:
  9386                                 %line 3175+0 /home/se170/VirtualBox-4.3.28/src/VBox/VMM/testcase/tstX86-1A.asm
  9387 00004154 0FB7442402              movzx eax, word [rsp + X86FXSTATE.FSW]
  9388 00004159 25FF82FFFF              and eax, ~0x3800 & ~((1 << 8) | (1 << 10) | (1 << 14))
  9389 0000415E 3D20020000              cmp eax, ((1 << 9) | (1 << 5))
  9390 00004163 7408                    je ..@2899.ok
  9391 00004165 B867EDF505              mov eax, 100000000 + 3175
  9392 0000416A E9B5060000              jmp .return
  9393                                 ..@2899.ok:
  9394                                 %line 3176+1 /home/se170/VirtualBox-4.3.28/src/VBox/VMM/testcase/tstX86-1A.asm
  9395 0000416F 8B05(F4FFFFFF)          mov eax, [g_r32_3dot2 wrt rip]
  9396                                 %line 3176+0 /home/se170/VirtualBox-4.3.28/src/VBox/VMM/testcase/tstX86-1A.asm
  9397 00004175 3903                    cmp dword [rbx], eax
  9398 00004177 7408                    je ..@2900.ok
  9399                                 ..@2900.bad:
  9400 00004179 B8E8565D05              mov eax, 90000000 + 3176
  9401 0000417E E9A1060000              jmp .return
  9402                                 ..@2900.ok:
  9403                                 %line 3177+1 /home/se170/VirtualBox-4.3.28/src/VBox/VMM/testcase/tstX86-1A.asm
  9404                                 
  9405                                 
  9406                                 
  9407                                 
  9408 00004183 E822BFFFFF              call x861_LoadUniqueRegValuesSSE
  9409                                 %line 3181+0 /home/se170/VirtualBox-4.3.28/src/VBox/VMM/testcase/tstX86-1A.asm
  9410 00004188 DBE3                    fninit
  9411 0000418A C7042400030000          mov dword [rsp], 0x0300 | 0x0000
  9412 00004191 D92C24                  fldcw [rsp]
  9413                                 %line 3182+1 /home/se170/VirtualBox-4.3.28/src/VBox/VMM/testcase/tstX86-1A.asm
  9414 00004194 C703CCDDEEFF            mov dword [rbx], 0xffeeddcc
  9415 0000419A C78424080600000000-     mov dword [rsp + 1024 + 512 + X86FXSTATE.FPUIP], 0
  9416 0000419A 0000               
  9417                                 %line 3183+0 /home/se170/VirtualBox-4.3.28/src/VBox/VMM/testcase/tstX86-1A.asm
  9418 000041A5 C784240C0600000000-     mov dword [rsp + 1024 + 512 + X86FXSTATE.FPUCS], 0
  9419 000041A5 0000               
  9420 000041B0 C78424100600000000-     mov dword [rsp + 1024 + 512 + X86FXSTATE.FPUDP], 0
  9421 000041B0 0000               
  9422 000041BB C78424140600000000-     mov dword [rsp + 1024 + 512 + X86FXSTATE.FPUDS], 0
  9423 000041BB 0000               
  9424 000041C6 C744240800000000        mov dword [rsp + X86FXSTATE.FPUIP], 0
  9425 000041CE C744240C00000000        mov dword [rsp + X86FXSTATE.FPUCS], 0
  9426 000041D6 C744241000000000        mov dword [rsp + X86FXSTATE.FPUDP], 0
  9427 000041DE C744241400000000        mov dword [rsp + X86FXSTATE.FPUDS], 0
  9428                                 ..@2902.instruction:
  9429 000041E6 D91B                    fstp dword [rbx] 
  9430 000041E8 0FAE842400060000        fxsave [rsp + 1024 +512]
  9431                                 
  9432 000041F0 480FAE0424              o64 fxsave [rsp]
  9433 000041F5 D9B42400020000          fnstenv [rsp + 512]
  9434 000041FC 480FAE0C24              o64 fxrstor [rsp]
  9435                                 ..@2902.trap:
  9436 00004201 9B                      fwait
  9437                                 ..@2902.trap_end:
  9438 00004202 B86F0C0000              mov eax, 3183
  9439 00004207 E918060000              jmp .return
  9440                                 [section .data]
  9441                                 ..@2902.trapinfo: 
  9442                                 ..@2906.strucstart:
  9443 00001DCC [0000000000000000]     dq ..@2902.trap
  9444 00001DD4 [0000000000000000]     dq ..@2902.resume
  9445 00001DDC 10                     db 0x10
  9446 00001DDD 01                     db (..@2902.trap_end - ..@2902.trap)
  9447 00001DDE 00<rept>               times TRAPINFO_size-($-..@2906.strucstart) db 0
  9448                                 [section .text]
  9449                                 ..@2902.resume:
  9450 0000420C 488D0DCCFFFFFF          lea rcx, [..@2902.instruction wrt rip]
  9451 00004213 E887FAFFFF              call CheckOpcodeCsIp
  9452 00004218 740A                    jz ..@2902.ok
  9453 0000421A 488D806F0C0000          lea rax, [rax + 3183]
  9454 00004221 E9FE050000              jmp .return
  9455                                 ..@2902.ok:
  9456                                 %line 3184+1 /home/se170/VirtualBox-4.3.28/src/VBox/VMM/testcase/tstX86-1A.asm
  9457                                 ..@2914.resume:
  9458                                 %line 3184+0 /home/se170/VirtualBox-4.3.28/src/VBox/VMM/testcase/tstX86-1A.asm
  9459 00004226 0FB7442402              movzx eax, word [rsp + X86FXSTATE.FSW]
  9460 0000422B 25FF82FFFF              and eax, ~0x3800 & ~((1 << 8) | (1 << 10) | (1 << 14))
  9461 00004230 3DC1800000              cmp eax, ((1 << 0) | (1 << 6) | (1 << 7) | (1 << 15))
  9462 00004235 7408                    je ..@2914.ok
  9463 00004237 B870EDF505              mov eax, 100000000 + 3184
  9464 0000423C E9E3050000              jmp .return
  9465                                 ..@2914.ok:
  9466                                 %line 3185+1 /home/se170/VirtualBox-4.3.28/src/VBox/VMM/testcase/tstX86-1A.asm
  9467 00004241 813BCCDDEEFF            cmp dword [rbx], 0xffeeddcc
  9468                                 %line 3185+0 /home/se170/VirtualBox-4.3.28/src/VBox/VMM/testcase/tstX86-1A.asm
  9469 00004247 7408                    je ..@2915.ok
  9470 00004249 B8710C0000              mov eax, 3185
  9471 0000424E E9D1050000              jmp .return
  9472                                 ..@2915.ok:
  9473                                 %line 3186+1 /home/se170/VirtualBox-4.3.28/src/VBox/VMM/testcase/tstX86-1A.asm
  9474                                 
  9475 00004253 E852BEFFFF              call x861_LoadUniqueRegValuesSSE
  9476                                 %line 3187+0 /home/se170/VirtualBox-4.3.28/src/VBox/VMM/testcase/tstX86-1A.asm
  9477 00004258 DBE3                    fninit
  9478 0000425A C7042400030000          mov dword [rsp], 0x0300 | 0x0000
  9479 00004261 D92C24                  fldcw [rsp]
  9480                                 %line 3188+1 /home/se170/VirtualBox-4.3.28/src/VBox/VMM/testcase/tstX86-1A.asm
  9481 00004264 DB2D(F4FFFFFF)          fld tword [g_r80_0dot1 wrt rip]
  9482 0000426A DB2D(F4FFFFFF)          fld tword [g_r80_3dot2 wrt rip]
  9483 00004270 DB2D(F4FFFFFF)          fld tword [g_r80_Ten wrt rip]
  9484 00004276 DDC0                    ffree st0
  9485 00004278 C703CCDDEEFF            mov dword [rbx], 0xffeeddcc
  9486 0000427E C78424080600000000-     mov dword [rsp + 1024 + 512 + X86FXSTATE.FPUIP], 0
  9487 0000427E 0000               
  9488                                 %line 3193+0 /home/se170/VirtualBox-4.3.28/src/VBox/VMM/testcase/tstX86-1A.asm
  9489 00004289 C784240C0600000000-     mov dword [rsp + 1024 + 512 + X86FXSTATE.FPUCS], 0
  9490 00004289 0000               
  9491 00004294 C78424100600000000-     mov dword [rsp + 1024 + 512 + X86FXSTATE.FPUDP], 0
  9492 00004294 0000               
  9493 0000429F C78424140600000000-     mov dword [rsp + 1024 + 512 + X86FXSTATE.FPUDS], 0
  9494 0000429F 0000               
  9495 000042AA C744240800000000        mov dword [rsp + X86FXSTATE.FPUIP], 0
  9496 000042B2 C744240C00000000        mov dword [rsp + X86FXSTATE.FPUCS], 0
  9497 000042BA C744241000000000        mov dword [rsp + X86FXSTATE.FPUDP], 0
  9498 000042C2 C744241400000000        mov dword [rsp + X86FXSTATE.FPUDS], 0
  9499                                 ..@2917.instruction:
  9500 000042CA D91B                    fstp dword [rbx] 
  9501 000042CC 0FAE842400060000        fxsave [rsp + 1024 +512]
  9502                                 
  9503 000042D4 480FAE0424              o64 fxsave [rsp]
  9504 000042D9 D9B42400020000          fnstenv [rsp + 512]
  9505 000042E0 480FAE0C24              o64 fxrstor [rsp]
  9506                                 ..@2917.trap:
  9507 000042E5 9B                      fwait
  9508                                 ..@2917.trap_end:
  9509 000042E6 B8790C0000              mov eax, 3193
  9510 000042EB E934050000              jmp .return
  9511                                 [section .data]
  9512                                 ..@2917.trapinfo: 
  9513                                 ..@2921.strucstart:
  9514 00001DEC [0000000000000000]     dq ..@2917.trap
  9515 00001DF4 [0000000000000000]     dq ..@2917.resume
  9516 00001DFC 10                     db 0x10
  9517 00001DFD 01                     db (..@2917.trap_end - ..@2917.trap)
  9518 00001DFE 00<rept>               times TRAPINFO_size-($-..@2921.strucstart) db 0
  9519                                 [section .text]
  9520                                 ..@2917.resume:
  9521 000042F0 488D0DCCFFFFFF          lea rcx, [..@2917.instruction wrt rip]
  9522 000042F7 E8A3F9FFFF              call CheckOpcodeCsIp
  9523 000042FC 740A                    jz ..@2917.ok
  9524 000042FE 488D80790C0000          lea rax, [rax + 3193]
  9525 00004305 E91A050000              jmp .return
  9526                                 ..@2917.ok:
  9527                                 %line 3194+1 /home/se170/VirtualBox-4.3.28/src/VBox/VMM/testcase/tstX86-1A.asm
  9528                                 ..@2929.resume:
  9529                                 %line 3194+0 /home/se170/VirtualBox-4.3.28/src/VBox/VMM/testcase/tstX86-1A.asm
  9530 0000430A 0FB7442402              movzx eax, word [rsp + X86FXSTATE.FSW]
  9531 0000430F 25FF82FFFF              and eax, ~0x3800 & ~((1 << 8) | (1 << 10) | (1 << 14))
  9532 00004314 3DC1800000              cmp eax, ((1 << 0) | (1 << 6) | (1 << 7) | (1 << 15))
  9533 00004319 7408                    je ..@2929.ok
  9534 0000431B B87AEDF505              mov eax, 100000000 + 3194
  9535 00004320 E9FF040000              jmp .return
  9536                                 ..@2929.ok:
  9537                                 %line 3195+1 /home/se170/VirtualBox-4.3.28/src/VBox/VMM/testcase/tstX86-1A.asm
  9538 00004325 813BCCDDEEFF            cmp dword [rbx], 0xffeeddcc
  9539                                 %line 3195+0 /home/se170/VirtualBox-4.3.28/src/VBox/VMM/testcase/tstX86-1A.asm
  9540 0000432B 7408                    je ..@2930.ok
  9541 0000432D B87B0C0000              mov eax, 3195
  9542 00004332 E9ED040000              jmp .return
  9543                                 ..@2930.ok:
  9544                                 %line 3196+1 /home/se170/VirtualBox-4.3.28/src/VBox/VMM/testcase/tstX86-1A.asm
  9545 00004337 0FB7442402              movzx eax, word [rsp + X86FXSTATE.FSW]
  9546                                 %line 3196+0 /home/se170/VirtualBox-4.3.28/src/VBox/VMM/testcase/tstX86-1A.asm
  9547 0000433C 2500380000              and eax, 0x3800
  9548 00004341 C1E80B                  shr eax, 11
  9549 00004344 83C000                  add eax, 0
  9550 00004347 83E007                  and eax, 0x0007
  9551 0000434A 0FA3442404              bt [rsp + X86FXSTATE.FTW], eax
  9552 0000434F 7308                    jnc ..@2931.ok
  9553 00004351 B87C393101              mov eax, 20000000 + 3196
  9554 00004356 E9C9040000              jmp .return
  9555                                 ..@2931.ok:
  9556                                 %line 3197+1 /home/se170/VirtualBox-4.3.28/src/VBox/VMM/testcase/tstX86-1A.asm
  9557 0000435B 0FB7442402              movzx eax, word [rsp + X86FXSTATE.FSW]
  9558                                 %line 3197+0 /home/se170/VirtualBox-4.3.28/src/VBox/VMM/testcase/tstX86-1A.asm
  9559 00004360 2500380000              and eax, 0x3800
  9560 00004365 C1E80B                  shr eax, 11
  9561 00004368 83C001                  add eax, 1
  9562 0000436B 83E007                  and eax, 0x0007
  9563 0000436E 0FA3442404              bt [rsp + X86FXSTATE.FTW], eax
  9564 00004373 7208                    jc ..@2933.ok
  9565 00004375 B8FDCFC901              mov eax, 30000000 + 3197
  9566 0000437A E9A5040000              jmp .return
  9567                                 ..@2933.ok:
  9568 0000437F 8B05(F4FFFFFF)          mov eax, [g_r80_3dot2 wrt rip]
  9569 00004385 39442430                cmp dword [rsp + X86FXSTATE.st0 + 1 * 16], eax
  9570 00004389 7408                    je ..@2934.ok1
  9571                                 ..@2934.bad:
  9572 0000438B B87D666202              mov eax, 40000000 + 3197
  9573 00004390 E98F040000              jmp .return
  9574                                 ..@2934.ok1:
  9575 00004395 8B05(F8FFFFFF)          mov eax, [4 + g_r80_3dot2 wrt rip]
  9576 0000439B 39442434                cmp dword [rsp + X86FXSTATE.st0 + 1 * 16 + 4], eax
  9577 0000439F 75E8                    jne ..@2934.bad
  9578 000043A1 668B05(FAFFFFFF)        mov ax, [8 + g_r80_3dot2 wrt rip]
  9579 000043A8 6639442438              cmp word [rsp + X86FXSTATE.st0 + 1 * 16 + 8], ax
  9580 000043AD 75DA                    jne ..@2934.bad
  9581                                 %line 3198+1 /home/se170/VirtualBox-4.3.28/src/VBox/VMM/testcase/tstX86-1A.asm
  9582 000043AF 0FB7442402              movzx eax, word [rsp + X86FXSTATE.FSW]
  9583                                 %line 3198+0 /home/se170/VirtualBox-4.3.28/src/VBox/VMM/testcase/tstX86-1A.asm
  9584 000043B4 2500380000              and eax, 0x3800
  9585 000043B9 C1E80B                  shr eax, 11
  9586 000043BC 83C002                  add eax, 2
  9587 000043BF 83E007                  and eax, 0x0007
  9588 000043C2 0FA3442404              bt [rsp + X86FXSTATE.FTW], eax
  9589 000043C7 7208                    jc ..@2936.ok
  9590 000043C9 B8FECFC901              mov eax, 30000000 + 3198
  9591 000043CE E951040000              jmp .return
  9592                                 ..@2936.ok:
  9593 000043D3 8B05(F4FFFFFF)          mov eax, [g_r80_0dot1 wrt rip]
  9594 000043D9 39442440                cmp dword [rsp + X86FXSTATE.st0 + 2 * 16], eax
  9595 000043DD 7408                    je ..@2937.ok1
  9596                                 ..@2937.bad:
  9597 000043DF B87E666202              mov eax, 40000000 + 3198
  9598 000043E4 E93B040000              jmp .return
  9599                                 ..@2937.ok1:
  9600 000043E9 8B05(F8FFFFFF)          mov eax, [4 + g_r80_0dot1 wrt rip]
  9601 000043EF 39442444                cmp dword [rsp + X86FXSTATE.st0 + 2 * 16 + 4], eax
  9602 000043F3 75E8                    jne ..@2937.bad
  9603 000043F5 668B05(FAFFFFFF)        mov ax, [8 + g_r80_0dot1 wrt rip]
  9604 000043FC 6639442448              cmp word [rsp + X86FXSTATE.st0 + 2 * 16 + 8], ax
  9605 00004401 75DA                    jne ..@2937.bad
  9606                                 %line 3199+1 /home/se170/VirtualBox-4.3.28/src/VBox/VMM/testcase/tstX86-1A.asm
  9607                                 
  9608                                 
  9609 00004403 E8A2BCFFFF              call x861_LoadUniqueRegValuesSSE
  9610                                 %line 3201+0 /home/se170/VirtualBox-4.3.28/src/VBox/VMM/testcase/tstX86-1A.asm
  9611 00004408 DBE3                    fninit
  9612 0000440A C7042400030000          mov dword [rsp], 0x0300 | 0x0000
  9613 00004411 D92C24                  fldcw [rsp]
  9614                                 %line 3202+1 /home/se170/VirtualBox-4.3.28/src/VBox/VMM/testcase/tstX86-1A.asm
  9615 00004414 DB2D(F4FFFFFF)          fld tword [g_r80_SNaN wrt rip]
  9616 0000441A C703CCDDEEFF            mov dword [rbx], 0xffeeddcc
  9617 00004420 C78424080600000000-     mov dword [rsp + 1024 + 512 + X86FXSTATE.FPUIP], 0
  9618 00004420 0000               
  9619                                 %line 3204+0 /home/se170/VirtualBox-4.3.28/src/VBox/VMM/testcase/tstX86-1A.asm
  9620 0000442B C784240C0600000000-     mov dword [rsp + 1024 + 512 + X86FXSTATE.FPUCS], 0
  9621 0000442B 0000               
  9622 00004436 C78424100600000000-     mov dword [rsp + 1024 + 512 + X86FXSTATE.FPUDP], 0
  9623 00004436 0000               
  9624 00004441 C78424140600000000-     mov dword [rsp + 1024 + 512 + X86FXSTATE.FPUDS], 0
  9625 00004441 0000               
  9626 0000444C C744240800000000        mov dword [rsp + X86FXSTATE.FPUIP], 0
  9627 00004454 C744240C00000000        mov dword [rsp + X86FXSTATE.FPUCS], 0
  9628 0000445C C744241000000000        mov dword [rsp + X86FXSTATE.FPUDP], 0
  9629 00004464 C744241400000000        mov dword [rsp + X86FXSTATE.FPUDS], 0
  9630                                 ..@2939.instruction:
  9631 0000446C D91B                    fstp dword [rbx] 
  9632 0000446E 0FAE842400060000        fxsave [rsp + 1024 +512]
  9633                                 
  9634 00004476 480FAE0424              o64 fxsave [rsp]
  9635 0000447B D9B42400020000          fnstenv [rsp + 512]
  9636 00004482 480FAE0C24              o64 fxrstor [rsp]
  9637                                 ..@2939.trap:
  9638 00004487 9B                      fwait
  9639                                 ..@2939.trap_end:
  9640 00004488 B8840C0000              mov eax, 3204
  9641 0000448D E992030000              jmp .return
  9642                                 [section .data]
  9643                                 ..@2939.trapinfo: 
  9644                                 ..@2943.strucstart:
  9645 00001E0C [0000000000000000]     dq ..@2939.trap
  9646 00001E14 [0000000000000000]     dq ..@2939.resume
  9647 00001E1C 10                     db 0x10
  9648 00001E1D 01                     db (..@2939.trap_end - ..@2939.trap)
  9649 00001E1E 00<rept>               times TRAPINFO_size-($-..@2943.strucstart) db 0
  9650                                 [section .text]
  9651                                 ..@2939.resume:
  9652 00004492 488D0DCCFFFFFF          lea rcx, [..@2939.instruction wrt rip]
  9653 00004499 E801F8FFFF              call CheckOpcodeCsIp
  9654 0000449E 740A                    jz ..@2939.ok
  9655 000044A0 488D80840C0000          lea rax, [rax + 3204]
  9656 000044A7 E978030000              jmp .return
  9657                                 ..@2939.ok:
  9658                                 %line 3205+1 /home/se170/VirtualBox-4.3.28/src/VBox/VMM/testcase/tstX86-1A.asm
  9659                                 ..@2951.resume:
  9660                                 %line 3205+0 /home/se170/VirtualBox-4.3.28/src/VBox/VMM/testcase/tstX86-1A.asm
  9661 000044AC 0FB7442402              movzx eax, word [rsp + X86FXSTATE.FSW]
  9662 000044B1 25FF82FFFF              and eax, ~0x3800 & ~((1 << 8) | (1 << 10) | (1 << 14))
  9663 000044B6 3D81800000              cmp eax, ((1 << 0) | (1 << 7) | (1 << 15))
  9664 000044BB 7408                    je ..@2951.ok
  9665 000044BD B885EDF505              mov eax, 100000000 + 3205
  9666 000044C2 E95D030000              jmp .return
  9667                                 ..@2951.ok:
  9668                                 %line 3206+1 /home/se170/VirtualBox-4.3.28/src/VBox/VMM/testcase/tstX86-1A.asm
  9669 000044C7 813BCCDDEEFF            cmp dword [rbx], 0xffeeddcc
  9670                                 %line 3206+0 /home/se170/VirtualBox-4.3.28/src/VBox/VMM/testcase/tstX86-1A.asm
  9671 000044CD 7408                    je ..@2952.ok
  9672 000044CF B8860C0000              mov eax, 3206
  9673 000044D4 E94B030000              jmp .return
  9674                                 ..@2952.ok:
  9675                                 %line 3207+1 /home/se170/VirtualBox-4.3.28/src/VBox/VMM/testcase/tstX86-1A.asm
  9676                                 
  9677                                 
  9678 000044D9 E8CCBBFFFF              call x861_LoadUniqueRegValuesSSE
  9679                                 %line 3209+0 /home/se170/VirtualBox-4.3.28/src/VBox/VMM/testcase/tstX86-1A.asm
  9680 000044DE DBE3                    fninit
  9681 000044E0 C7042400030000          mov dword [rsp], 0x0300 | 0x0000
  9682 000044E7 D92C24                  fldcw [rsp]
  9683                                 %line 3210+1 /home/se170/VirtualBox-4.3.28/src/VBox/VMM/testcase/tstX86-1A.asm
  9684 000044EA DB2D(F4FFFFFF)          fld tword [g_r80_DnMin wrt rip]
  9685 000044F0 C703CCDDEEFF            mov dword [rbx], 0xffeeddcc
  9686 000044F6 C78424080600000000-     mov dword [rsp + 1024 + 512 + X86FXSTATE.FPUIP], 0
  9687 000044F6 0000               
  9688                                 %line 3212+0 /home/se170/VirtualBox-4.3.28/src/VBox/VMM/testcase/tstX86-1A.asm
  9689 00004501 C784240C0600000000-     mov dword [rsp + 1024 + 512 + X86FXSTATE.FPUCS], 0
  9690 00004501 0000               
  9691 0000450C C78424100600000000-     mov dword [rsp + 1024 + 512 + X86FXSTATE.FPUDP], 0
  9692 0000450C 0000               
  9693 00004517 C78424140600000000-     mov dword [rsp + 1024 + 512 + X86FXSTATE.FPUDS], 0
  9694 00004517 0000               
  9695 00004522 C744240800000000        mov dword [rsp + X86FXSTATE.FPUIP], 0
  9696 0000452A C744240C00000000        mov dword [rsp + X86FXSTATE.FPUCS], 0
  9697 00004532 C744241000000000        mov dword [rsp + X86FXSTATE.FPUDP], 0
  9698 0000453A C744241400000000        mov dword [rsp + X86FXSTATE.FPUDS], 0
  9699                                 ..@2954.instruction:
  9700 00004542 D91B                    fstp dword [rbx] 
  9701 00004544 0FAE842400060000        fxsave [rsp + 1024 +512]
  9702                                 
  9703 0000454C 480FAE0424              o64 fxsave [rsp]
  9704 00004551 D9B42400020000          fnstenv [rsp + 512]
  9705 00004558 480FAE0C24              o64 fxrstor [rsp]
  9706                                 ..@2954.trap:
  9707 0000455D 9B                      fwait
  9708                                 ..@2954.trap_end:
  9709 0000455E B88C0C0000              mov eax, 3212
  9710 00004563 E9BC020000              jmp .return
  9711                                 [section .data]
  9712                                 ..@2954.trapinfo: 
  9713                                 ..@2958.strucstart:
  9714 00001E2C [0000000000000000]     dq ..@2954.trap
  9715 00001E34 [0000000000000000]     dq ..@2954.resume
  9716 00001E3C 10                     db 0x10
  9717 00001E3D 01                     db (..@2954.trap_end - ..@2954.trap)
  9718 00001E3E 00<rept>               times TRAPINFO_size-($-..@2958.strucstart) db 0
  9719                                 [section .text]
  9720                                 ..@2954.resume:
  9721 00004568 488D0DCCFFFFFF          lea rcx, [..@2954.instruction wrt rip]
  9722 0000456F E82BF7FFFF              call CheckOpcodeCsIp
  9723 00004574 740A                    jz ..@2954.ok
  9724 00004576 488D808C0C0000          lea rax, [rax + 3212]
  9725 0000457D E9A2020000              jmp .return
  9726                                 ..@2954.ok:
  9727                                 %line 3213+1 /home/se170/VirtualBox-4.3.28/src/VBox/VMM/testcase/tstX86-1A.asm
  9728                                 ..@2966.resume:
  9729                                 %line 3213+0 /home/se170/VirtualBox-4.3.28/src/VBox/VMM/testcase/tstX86-1A.asm
  9730 00004582 0FB7442402              movzx eax, word [rsp + X86FXSTATE.FSW]
  9731 00004587 25FF82FFFF              and eax, ~0x3800 & ~((1 << 8) | (1 << 10) | (1 << 14))
  9732 0000458C 3D90800000              cmp eax, ((1 << 4) | (1 << 7) | (1 << 15))
  9733 00004591 7408                    je ..@2966.ok
  9734 00004593 B88DEDF505              mov eax, 100000000 + 3213
  9735 00004598 E987020000              jmp .return
  9736                                 ..@2966.ok:
  9737                                 %line 3214+1 /home/se170/VirtualBox-4.3.28/src/VBox/VMM/testcase/tstX86-1A.asm
  9738 0000459D 813BCCDDEEFF            cmp dword [rbx], 0xffeeddcc
  9739                                 %line 3214+0 /home/se170/VirtualBox-4.3.28/src/VBox/VMM/testcase/tstX86-1A.asm
  9740 000045A3 7408                    je ..@2967.ok
  9741 000045A5 B88E0C0000              mov eax, 3214
  9742 000045AA E975020000              jmp .return
  9743                                 ..@2967.ok:
  9744                                 %line 3215+1 /home/se170/VirtualBox-4.3.28/src/VBox/VMM/testcase/tstX86-1A.asm
  9745                                 
  9746                                 
  9747 000045AF E8F6BAFFFF              call x861_LoadUniqueRegValuesSSE
  9748                                 %line 3217+0 /home/se170/VirtualBox-4.3.28/src/VBox/VMM/testcase/tstX86-1A.asm
  9749 000045B4 DBE3                    fninit
  9750 000045B6 C7042400030000          mov dword [rsp], 0x0300 | 0x0000
  9751 000045BD D92C24                  fldcw [rsp]
  9752                                 %line 3218+1 /home/se170/VirtualBox-4.3.28/src/VBox/VMM/testcase/tstX86-1A.asm
  9753 000045C0 DB2D(F4FFFFFF)          fld tword [g_r80_Min wrt rip]
  9754 000045C6 C703CCDDEEFF            mov dword [rbx], 0xffeeddcc
  9755 000045CC C78424080600000000-     mov dword [rsp + 1024 + 512 + X86FXSTATE.FPUIP], 0
  9756 000045CC 0000               
  9757                                 %line 3220+0 /home/se170/VirtualBox-4.3.28/src/VBox/VMM/testcase/tstX86-1A.asm
  9758 000045D7 C784240C0600000000-     mov dword [rsp + 1024 + 512 + X86FXSTATE.FPUCS], 0
  9759 000045D7 0000               
  9760 000045E2 C78424100600000000-     mov dword [rsp + 1024 + 512 + X86FXSTATE.FPUDP], 0
  9761 000045E2 0000               
  9762 000045ED C78424140600000000-     mov dword [rsp + 1024 + 512 + X86FXSTATE.FPUDS], 0
  9763 000045ED 0000               
  9764 000045F8 C744240800000000        mov dword [rsp + X86FXSTATE.FPUIP], 0
  9765 00004600 C744240C00000000        mov dword [rsp + X86FXSTATE.FPUCS], 0
  9766 00004608 C744241000000000        mov dword [rsp + X86FXSTATE.FPUDP], 0
  9767 00004610 C744241400000000        mov dword [rsp + X86FXSTATE.FPUDS], 0
  9768                                 ..@2969.instruction:
  9769 00004618 D91B                    fstp dword [rbx] 
  9770 0000461A 0FAE842400060000        fxsave [rsp + 1024 +512]
  9771                                 
  9772 00004622 480FAE0424              o64 fxsave [rsp]
  9773 00004627 D9B42400020000          fnstenv [rsp + 512]
  9774 0000462E 480FAE0C24              o64 fxrstor [rsp]
  9775                                 ..@2969.trap:
  9776 00004633 9B                      fwait
  9777                                 ..@2969.trap_end:
  9778 00004634 B8940C0000              mov eax, 3220
  9779 00004639 E9E6010000              jmp .return
  9780                                 [section .data]
  9781                                 ..@2969.trapinfo: 
  9782                                 ..@2973.strucstart:
  9783 00001E4C [0000000000000000]     dq ..@2969.trap
  9784 00001E54 [0000000000000000]     dq ..@2969.resume
  9785 00001E5C 10                     db 0x10
  9786 00001E5D 01                     db (..@2969.trap_end - ..@2969.trap)
  9787 00001E5E 00<rept>               times TRAPINFO_size-($-..@2973.strucstart) db 0
  9788                                 [section .text]
  9789                                 ..@2969.resume:
  9790 0000463E 488D0DCCFFFFFF          lea rcx, [..@2969.instruction wrt rip]
  9791 00004645 E855F6FFFF              call CheckOpcodeCsIp
  9792 0000464A 740A                    jz ..@2969.ok
  9793 0000464C 488D80940C0000          lea rax, [rax + 3220]
  9794 00004653 E9CC010000              jmp .return
  9795                                 ..@2969.ok:
  9796                                 %line 3221+1 /home/se170/VirtualBox-4.3.28/src/VBox/VMM/testcase/tstX86-1A.asm
  9797                                 ..@2981.resume:
  9798                                 %line 3221+0 /home/se170/VirtualBox-4.3.28/src/VBox/VMM/testcase/tstX86-1A.asm
  9799 00004658 0FB7442402              movzx eax, word [rsp + X86FXSTATE.FSW]
  9800 0000465D 25FF82FFFF              and eax, ~0x3800 & ~((1 << 8) | (1 << 10) | (1 << 14))
  9801 00004662 3D90800000              cmp eax, ((1 << 4) | (1 << 7) | (1 << 15))
  9802 00004667 7408                    je ..@2981.ok
  9803 00004669 B895EDF505              mov eax, 100000000 + 3221
  9804 0000466E E9B1010000              jmp .return
  9805                                 ..@2981.ok:
  9806                                 %line 3222+1 /home/se170/VirtualBox-4.3.28/src/VBox/VMM/testcase/tstX86-1A.asm
  9807 00004673 813BCCDDEEFF            cmp dword [rbx], 0xffeeddcc
  9808                                 %line 3222+0 /home/se170/VirtualBox-4.3.28/src/VBox/VMM/testcase/tstX86-1A.asm
  9809 00004679 7408                    je ..@2982.ok
  9810 0000467B B8960C0000              mov eax, 3222
  9811 00004680 E99F010000              jmp .return
  9812                                 ..@2982.ok:
  9813                                 %line 3223+1 /home/se170/VirtualBox-4.3.28/src/VBox/VMM/testcase/tstX86-1A.asm
  9814                                 
  9815                                 
  9816 00004685 E820BAFFFF              call x861_LoadUniqueRegValuesSSE
  9817                                 %line 3225+0 /home/se170/VirtualBox-4.3.28/src/VBox/VMM/testcase/tstX86-1A.asm
  9818 0000468A DBE3                    fninit
  9819 0000468C C7042400030000          mov dword [rsp], 0x0300 | 0x0000
  9820 00004693 D92C24                  fldcw [rsp]
  9821                                 %line 3226+1 /home/se170/VirtualBox-4.3.28/src/VBox/VMM/testcase/tstX86-1A.asm
  9822 00004696 DB2D(F4FFFFFF)          fld tword [g_r80_Max wrt rip]
  9823 0000469C C703CCDDEEFF            mov dword [rbx], 0xffeeddcc
  9824 000046A2 C78424080600000000-     mov dword [rsp + 1024 + 512 + X86FXSTATE.FPUIP], 0
  9825 000046A2 0000               
  9826                                 %line 3228+0 /home/se170/VirtualBox-4.3.28/src/VBox/VMM/testcase/tstX86-1A.asm
  9827 000046AD C784240C0600000000-     mov dword [rsp + 1024 + 512 + X86FXSTATE.FPUCS], 0
  9828 000046AD 0000               
  9829 000046B8 C78424100600000000-     mov dword [rsp + 1024 + 512 + X86FXSTATE.FPUDP], 0
  9830 000046B8 0000               
  9831 000046C3 C78424140600000000-     mov dword [rsp + 1024 + 512 + X86FXSTATE.FPUDS], 0
  9832 000046C3 0000               
  9833 000046CE C744240800000000        mov dword [rsp + X86FXSTATE.FPUIP], 0
  9834 000046D6 C744240C00000000        mov dword [rsp + X86FXSTATE.FPUCS], 0
  9835 000046DE C744241000000000        mov dword [rsp + X86FXSTATE.FPUDP], 0
  9836 000046E6 C744241400000000        mov dword [rsp + X86FXSTATE.FPUDS], 0
  9837                                 ..@2984.instruction:
  9838 000046EE D91B                    fstp dword [rbx] 
  9839 000046F0 0FAE842400060000        fxsave [rsp + 1024 +512]
  9840                                 
  9841 000046F8 480FAE0424              o64 fxsave [rsp]
  9842 000046FD D9B42400020000          fnstenv [rsp + 512]
  9843 00004704 480FAE0C24              o64 fxrstor [rsp]
  9844                                 ..@2984.trap:
  9845 00004709 9B                      fwait
  9846                                 ..@2984.trap_end:
  9847 0000470A B89C0C0000              mov eax, 3228
  9848 0000470F E910010000              jmp .return
  9849                                 [section .data]
  9850                                 ..@2984.trapinfo: 
  9851                                 ..@2988.strucstart:
  9852 00001E6C [0000000000000000]     dq ..@2984.trap
  9853 00001E74 [0000000000000000]     dq ..@2984.resume
  9854 00001E7C 10                     db 0x10
  9855 00001E7D 01                     db (..@2984.trap_end - ..@2984.trap)
  9856 00001E7E 00<rept>               times TRAPINFO_size-($-..@2988.strucstart) db 0
  9857                                 [section .text]
  9858                                 ..@2984.resume:
  9859 00004714 488D0DCCFFFFFF          lea rcx, [..@2984.instruction wrt rip]
  9860 0000471B E87FF5FFFF              call CheckOpcodeCsIp
  9861 00004720 740A                    jz ..@2984.ok
  9862 00004722 488D809C0C0000          lea rax, [rax + 3228]
  9863 00004729 E9F6000000              jmp .return
  9864                                 ..@2984.ok:
  9865                                 %line 3229+1 /home/se170/VirtualBox-4.3.28/src/VBox/VMM/testcase/tstX86-1A.asm
  9866                                 ..@2996.resume:
  9867                                 %line 3229+0 /home/se170/VirtualBox-4.3.28/src/VBox/VMM/testcase/tstX86-1A.asm
  9868 0000472E 0FB7442402              movzx eax, word [rsp + X86FXSTATE.FSW]
  9869 00004733 25FF82FFFF              and eax, ~0x3800 & ~((1 << 8) | (1 << 10) | (1 << 14))
  9870 00004738 3D88800000              cmp eax, ((1 << 3) | (1 << 7) | (1 << 15))
  9871 0000473D 7408                    je ..@2996.ok
  9872 0000473F B89DEDF505              mov eax, 100000000 + 3229
  9873 00004744 E9DB000000              jmp .return
  9874                                 ..@2996.ok:
  9875                                 %line 3230+1 /home/se170/VirtualBox-4.3.28/src/VBox/VMM/testcase/tstX86-1A.asm
  9876 00004749 813BCCDDEEFF            cmp dword [rbx], 0xffeeddcc
  9877                                 %line 3230+0 /home/se170/VirtualBox-4.3.28/src/VBox/VMM/testcase/tstX86-1A.asm
  9878 0000474F 7408                    je ..@2997.ok
  9879 00004751 B89E0C0000              mov eax, 3230
  9880 00004756 E9C9000000              jmp .return
  9881                                 ..@2997.ok:
  9882                                 %line 3231+1 /home/se170/VirtualBox-4.3.28/src/VBox/VMM/testcase/tstX86-1A.asm
  9883                                 
  9884                                 
  9885 0000475B E84AB9FFFF              call x861_LoadUniqueRegValuesSSE
  9886                                 %line 3233+0 /home/se170/VirtualBox-4.3.28/src/VBox/VMM/testcase/tstX86-1A.asm
  9887 00004760 DBE3                    fninit
  9888 00004762 C7042400030000          mov dword [rsp], 0x0300 | 0x0000
  9889 00004769 D92C24                  fldcw [rsp]
  9890                                 %line 3234+1 /home/se170/VirtualBox-4.3.28/src/VBox/VMM/testcase/tstX86-1A.asm
  9891 0000476C DB2D(F4FFFFFF)          fld tword [g_r80_3dot2 wrt rip]
  9892 00004772 C703CCDDEEFF            mov dword [rbx], 0xffeeddcc
  9893 00004778 C78424080600000000-     mov dword [rsp + 1024 + 512 + X86FXSTATE.FPUIP], 0
  9894 00004778 0000               
  9895                                 %line 3236+0 /home/se170/VirtualBox-4.3.28/src/VBox/VMM/testcase/tstX86-1A.asm
  9896 00004783 C784240C0600000000-     mov dword [rsp + 1024 + 512 + X86FXSTATE.FPUCS], 0
  9897 00004783 0000               
  9898 0000478E C78424100600000000-     mov dword [rsp + 1024 + 512 + X86FXSTATE.FPUDP], 0
  9899 0000478E 0000               
  9900 00004799 C78424140600000000-     mov dword [rsp + 1024 + 512 + X86FXSTATE.FPUDS], 0
  9901 00004799 0000               
  9902 000047A4 C744240800000000        mov dword [rsp + X86FXSTATE.FPUIP], 0
  9903 000047AC C744240C00000000        mov dword [rsp + X86FXSTATE.FPUCS], 0
  9904 000047B4 C744241000000000        mov dword [rsp + X86FXSTATE.FPUDP], 0
  9905 000047BC C744241400000000        mov dword [rsp + X86FXSTATE.FPUDS], 0
  9906                                 ..@2999.instruction:
  9907 000047C4 D91B                    fstp dword [rbx] 
  9908 000047C6 0FAE842400060000        fxsave [rsp + 1024 +512]
  9909                                 
  9910 000047CE 480FAE0424              o64 fxsave [rsp]
  9911 000047D3 D9B42400020000          fnstenv [rsp + 512]
  9912 000047DA 480FAE0C24              o64 fxrstor [rsp]
  9913                                 ..@2999.trap:
  9914 000047DF 9B                      fwait
  9915                                 ..@2999.trap_end:
  9916 000047E0 B8A40C0000              mov eax, 3236
  9917 000047E5 EB40                    jmp .return
  9918                                 [section .data]
  9919                                 ..@2999.trapinfo: 
  9920                                 ..@3003.strucstart:
  9921 00001E8C [0000000000000000]     dq ..@2999.trap
  9922 00001E94 [0000000000000000]     dq ..@2999.resume
  9923 00001E9C 10                     db 0x10
  9924 00001E9D 01                     db (..@2999.trap_end - ..@2999.trap)
  9925 00001E9E 00<rept>               times TRAPINFO_size-($-..@3003.strucstart) db 0
  9926                                 [section .text]
  9927                                 ..@2999.resume:
  9928 000047E7 488D0DCFFFFFFF          lea rcx, [..@2999.instruction wrt rip]
  9929 000047EE E8ACF4FFFF              call CheckOpcodeCsIp
  9930 000047F3 7407                    jz ..@2999.ok
  9931 000047F5 488D80A40C0000          lea rax, [rax + 3236]
  9932 000047FC EB29                    jmp .return
  9933                                 ..@2999.ok:
  9934                                 %line 3237+1 /home/se170/VirtualBox-4.3.28/src/VBox/VMM/testcase/tstX86-1A.asm
  9935                                 ..@3011.resume:
  9936                                 %line 3237+0 /home/se170/VirtualBox-4.3.28/src/VBox/VMM/testcase/tstX86-1A.asm
  9937 000047FE 0FB7442402              movzx eax, word [rsp + X86FXSTATE.FSW]
  9938 00004803 25FF82FFFF              and eax, ~0x3800 & ~((1 << 8) | (1 << 10) | (1 << 14))
  9939 00004808 3DA0820000              cmp eax, ((1 << 9) | (1 << 5) | (1 << 7) | (1 << 15))
  9940 0000480D 7405                    je ..@3011.ok
  9941 0000480F B8A5EDF505              mov eax, 100000000 + 3237
  9942 00004814 EB11                    jmp .return
  9943                                 ..@3011.ok:
  9944                                 %line 3238+1 /home/se170/VirtualBox-4.3.28/src/VBox/VMM/testcase/tstX86-1A.asm
  9945 00004816 8B05(F4FFFFFF)          mov eax, [g_r32_3dot2 wrt rip]
  9946                                 %line 3238+0 /home/se170/VirtualBox-4.3.28/src/VBox/VMM/testcase/tstX86-1A.asm
  9947 0000481C 3903                    cmp dword [rbx], eax
  9948 0000481E 7405                    je ..@3012.ok
  9949                                 ..@3012.bad:
  9950 00004820 B826575D05              mov eax, 90000000 + 3238
  9951 00004825 EB00                    jmp .return
  9952                                 ..@3012.ok:
  9953                                 %line 3239+1 /home/se170/VirtualBox-4.3.28/src/VBox/VMM/testcase/tstX86-1A.asm
  9954                                 
  9955                                 %line 3411+1 /home/se170/VirtualBox-4.3.28/src/VBox/VMM/testcase/tstX86-1A.asm
  9956                                 
  9957                                 
  9958                                 .success:
  9959 00004827 31C0                    xor eax, eax
  9960                                 .return:
  9961 00004829 4881C400080000          add rsp, 2048
  9962 00004830 488D6590                lea rsp, [rbp - 14 * 8]
  9963                                 %line 3417+0 /home/se170/VirtualBox-4.3.28/src/VBox/VMM/testcase/tstX86-1A.asm
  9964 00004834 415F                    pop r15
  9965 00004836 415E                    pop r14
  9966 00004838 415D                    pop r13
  9967 0000483A 415C                    pop r12
  9968 0000483C 415B                    pop r11
  9969 0000483E 415A                    pop r10
  9970 00004840 4159                    pop r9
  9971 00004842 4158                    pop r8
  9972 00004844 5F                      pop rdi
  9973 00004845 5E                      pop rsi
  9974 00004846 5A                      pop rdx
  9975 00004847 59                      pop rcx
  9976 00004848 5B                      pop rbx
  9977 00004849 9D                      popf
  9978 0000484A C9                      leave
  9979                                 %line 3418+1 /home/se170/VirtualBox-4.3.28/src/VBox/VMM/testcase/tstX86-1A.asm
  9980 0000484B C3                      ret
  9981                                 
  9982                                 [global x861_TestFPUInstr1_EndProc:function hidden]
  9983                                 %line 3420+0 /home/se170/VirtualBox-4.3.28/src/VBox/VMM/testcase/tstX86-1A.asm
  9984                                 x861_TestFPUInstr1_EndProc:
  9985                                 [size x861_TestFPUInstr1 x861_TestFPUInstr1_EndProc - x861_TestFPUInstr1]
  9986                                 [size x861_TestFPUInstr1_EndProc 0]
  9987 0000484C CCCCCCCC                db 0xCC, 0xCC, 0xCC, 0xCC
  9988                                 %line 3421+1 /home/se170/VirtualBox-4.3.28/src/VBox/VMM/testcase/tstX86-1A.asm
  9989                                 
  9990                                 
  9991                                 
  9992                                 
  9993                                 
  9994                                 
  9995                                 [section .data]
  9996                                 [global g_aTrapInfoExecPage]
  9997                                 %line 3428+0 /home/se170/VirtualBox-4.3.28/src/VBox/VMM/testcase/tstX86-1A.asm
  9998                                 g_aTrapInfoExecPage:
  9999                                 %line 3429+1 /home/se170/VirtualBox-4.3.28/src/VBox/VMM/testcase/tstX86-1A.asm
 10000                                 ..@3024.strucstart:
 10001                                 %line 3430+0 /home/se170/VirtualBox-4.3.28/src/VBox/VMM/testcase/tstX86-1A.asm
 10002 00001EAC 0100000000000000       dq 1
 10003                                 %line 3431+1 /home/se170/VirtualBox-4.3.28/src/VBox/VMM/testcase/tstX86-1A.asm
 10004                                 %line 3431+0 /home/se170/VirtualBox-4.3.28/src/VBox/VMM/testcase/tstX86-1A.asm
 10005 00001EB4 0100000000000000       dq 1
 10006                                 %line 3432+1 /home/se170/VirtualBox-4.3.28/src/VBox/VMM/testcase/tstX86-1A.asm
 10007                                 %line 3432+0 /home/se170/VirtualBox-4.3.28/src/VBox/VMM/testcase/tstX86-1A.asm
 10008 00001EBC 10                     db 16
 10009                                 %line 3433+1 /home/se170/VirtualBox-4.3.28/src/VBox/VMM/testcase/tstX86-1A.asm
 10010                                 %line 3433+0 /home/se170/VirtualBox-4.3.28/src/VBox/VMM/testcase/tstX86-1A.asm
 10011 00001EBD 03                     db 3
 10012                                 %line 3434+1 /home/se170/VirtualBox-4.3.28/src/VBox/VMM/testcase/tstX86-1A.asm
 10013 00001EBE 00<rept>               times TRAPINFO_size-($-..@3024.strucstart) db 0
 10014                                 [global g_aTrapInfoEnd]
 10015                                 %line 3435+0 /home/se170/VirtualBox-4.3.28/src/VBox/VMM/testcase/tstX86-1A.asm
 10016                                 g_aTrapInfoEnd:
 10017                                 %line 3436+1 /home/se170/VirtualBox-4.3.28/src/VBox/VMM/testcase/tstX86-1A.asm
 10018                                 ..@3033.strucstart:
 10019                                 %line 3437+0 /home/se170/VirtualBox-4.3.28/src/VBox/VMM/testcase/tstX86-1A.asm
 10020 00001ECC 0000000000000000       dq 0
 10021                                 %line 3438+1 /home/se170/VirtualBox-4.3.28/src/VBox/VMM/testcase/tstX86-1A.asm
 10022                                 %line 3438+0 /home/se170/VirtualBox-4.3.28/src/VBox/VMM/testcase/tstX86-1A.asm
 10023 00001ED4 0000000000000000       dq 0
 10024                                 %line 3439+1 /home/se170/VirtualBox-4.3.28/src/VBox/VMM/testcase/tstX86-1A.asm
 10025                                 %line 3439+0 /home/se170/VirtualBox-4.3.28/src/VBox/VMM/testcase/tstX86-1A.asm
 10026 00001EDC 00                     db 0
 10027                                 %line 3440+1 /home/se170/VirtualBox-4.3.28/src/VBox/VMM/testcase/tstX86-1A.asm
 10028                                 %line 3440+0 /home/se170/VirtualBox-4.3.28/src/VBox/VMM/testcase/tstX86-1A.asm
 10029 00001EDD 00                     db 0
 10030                                 %line 3441+1 /home/se170/VirtualBox-4.3.28/src/VBox/VMM/testcase/tstX86-1A.asm
 10031 00001EDE 00<rept>               times TRAPINFO_size-($-..@3033.strucstart) db 0
 10032                                 
